 gt2

 Timestamp is 3adcf024 (Wed Apr 18 03:38:44 2001)

 Preferred load address is 00400000

 Start         Length     Name                   Class
 0001:00000000 0002690aH .text                   CODE
 0001:00026910 00000b72H .text$x                 CODE
 0002:00000000 00006dbfH .rdata                  DATA
 0002:00006dc0 00000044H .rdata$r                DATA
 0002:00006e04 00001084H .xdata$x                DATA
 0002:00007e88 00000000H .edata                  DATA
 0003:00000000 00000004H .CRT$XCA                DATA
 0003:00000004 00000020H .CRT$XCU                DATA
 0003:00000024 00000004H .CRT$XCZ                DATA
 0003:00000028 00000004H .CRT$XIA                DATA
 0003:0000002c 00000010H .CRT$XIC                DATA
 0003:0000003c 00000004H .CRT$XIY                DATA
 0003:00000040 00000004H .CRT$XIZ                DATA
 0003:00000044 00000004H .CRT$XPA                DATA
 0003:00000048 00000008H .CRT$XPX                DATA
 0003:00000050 00000004H .CRT$XPZ                DATA
 0003:00000054 00000004H .CRT$XTA                DATA
 0003:00000058 00000004H .CRT$XTB                DATA
 0003:0000005c 00000004H .CRT$XTZ                DATA
 0003:00000060 00003630H .data                   DATA
 0003:00003690 000059d4H .bss                    DATA
 0004:00000000 00000050H .idata$2                DATA
 0004:00000050 00000014H .idata$3                DATA
 0004:00000064 000001c4H .idata$4                DATA
 0004:00000228 000001c4H .idata$5                DATA
 0004:000003ec 000007f4H .idata$6                DATA

  Address         Publics by Value              Rva+Base     Lib:Object

 0001:00000080       ??0MSJExceptionHandler@@QAE@XZ 00401080 f   gt_crashtracker.obj
 0001:000000f0       ??1MSJExceptionHandler@@QAE@XZ 004010f0 f   gt_crashtracker.obj
 0001:00000100       ?SetLogFileName@MSJExceptionHandler@@QAEXPAD@Z 00401100 f   gt_crashtracker.obj
 0001:00000120       ?MSJUnhandledExceptionFilter@MSJExceptionHandler@@CGJPAU_EXCEPTION_POINTERS@@@Z 00401120 f   gt_crashtracker.obj
 0001:00000190       ?GenerateExceptionReport@MSJExceptionHandler@@CIXPAU_EXCEPTION_POINTERS@@@Z 00401190 f   gt_crashtracker.obj
 0001:00000300       ?GetExceptionString@MSJExceptionHandler@@CIPADK@Z 00401300 f   gt_crashtracker.obj
 0001:00000580       ?GetLogicalAddress@MSJExceptionHandler@@CIHPAXPADKAAK2@Z 00401580 f   gt_crashtracker.obj
 0001:00000630       ?IntelStackWalk@MSJExceptionHandler@@CIXPAU_CONTEXT@@@Z 00401630 f   gt_crashtracker.obj
 0001:000006e0       ?ImagehlpStackWalk@MSJExceptionHandler@@CIXPAU_CONTEXT@@@Z 004016e0 f   gt_crashtracker.obj
 0001:00000860       ?printf@MSJExceptionHandler@@CAHPBDZZ 00401860 f   gt_crashtracker.obj
 0001:000008b0       ?InitImagehlpFunctions@MSJExceptionHandler@@CIHXZ 004018b0 f   gt_crashtracker.obj
 0001:00000960       _main                      00401960 f   gt_main.obj
 0001:00001040       ??0ADLP_String@@QAE@PBDI@Z 00402040 f i gt_main.obj
 0001:000010b0       ??1ADLP_String@@UAE@XZ     004020b0 f i gt_main.obj
 0001:000010e0       ?ReleaseMemory@ADLP_String@@QAEXXZ 004020e0 f i gt_main.obj
 0001:00001100       ??_EADLP_String@@UAEPAXI@Z 00402100 f i gt_main.obj
 0001:00001100       ??_GADLP_String@@UAEPAXI@Z 00402100 f i gt_main.obj
 0001:00001500       ??_EPFileSearch@@UAEPAXI@Z 00402500 f i gt_main.obj
 0001:00001500       ??_GPFileSearch@@UAEPAXI@Z 00402500 f i gt_main.obj
 0001:00001530       ?_resize@ADLP_String@@AAEXI@Z 00402530 f i gt_main.obj
 0001:00001580       ?_append@ADLP_String@@AAEXPBD@Z 00402580 f i gt_main.obj
 0001:00001600       ?_set_at@ADLP_String@@AAEXIPBDI@Z 00402600 f i gt_main.obj
 0001:00001ac0       ??0GT_Cleanup@@QAE@XZ      00402ac0 f   gt_cleanup.obj
 0001:00001ae0       ?PrintFooter@GT_Cleanup@@QAEXH@Z 00402ae0 f   gt_cleanup.obj
 0001:00001c50       ?PrintCacheStats@GT_Cleanup@@QAEXXZ 00402c50 f   gt_cleanup.obj
 0001:00001cd0       ?WaitForKey@GT_Cleanup@@QAEXXZ 00402cd0 f   gt_cleanup.obj
 0001:00001d30       ??1GT_DriveInfo@@UAE@XZ    00402d30 f i gt_driveinfo.obj
 0001:00001dc0       ??_EGT_DriveInfo@@UAEPAXI@Z 00402dc0 f i gt_driveinfo.obj
 0001:00001dc0       ??_GGT_DriveInfo@@UAEPAXI@Z 00402dc0 f i gt_driveinfo.obj
 0001:00001df0       ??0GT_DriveInfo@@QAE@XZ    00402df0 f   gt_driveinfo.obj
 0001:00001f30       ??_GGT_SingleDriveInfo@@UAEPAXI@Z 00402f30 f i gt_driveinfo.obj
 0001:00001f30       ??_EGT_SingleDriveInfo@@UAEPAXI@Z 00402f30 f i gt_driveinfo.obj
 0001:00001f60       ?CheckParameter@GT_DriveInfo@@QAEHPBD@Z 00402f60 f   gt_driveinfo.obj
 0001:00001fd0       ??1?$GT_Sequence@PAVGT_SingleDriveInfo@@@@UAE@XZ 00402fd0 f i gt_driveinfo.obj
 0001:00002010       ??_E?$GT_Sequence@PAVGT_SingleDriveInfo@@@@UAEPAXI@Z 00403010 f i gt_driveinfo.obj
 0001:00002010       ??_G?$GT_Sequence@PAVGT_SingleDriveInfo@@@@UAEPAXI@Z 00403010 f i gt_driveinfo.obj
 0001:00002060       @StartGTUI2@0              00403060 f   gt_gtui_starter.obj
 0001:000021c0       ?GlobalListFile@@YGHPBDJQAX@Z 004031c0 f   gt_mainlister.obj
 0001:00002880       _GetModuleFileNameA@12     00403880 f   kernel32:KERNEL32.dll
 0001:00002886       _SetUnhandledExceptionFilter@4 00403886 f   kernel32:KERNEL32.dll
 0001:0000288c       _CloseHandle@4             0040388c f   kernel32:KERNEL32.dll
 0001:00002892       _SetFilePointer@16         00403892 f   kernel32:KERNEL32.dll
 0001:00002898       _CreateFileA@28            00403898 f   kernel32:KERNEL32.dll
 0001:0000289e       _GetCurrentProcess@0       0040389e f   kernel32:KERNEL32.dll
 0001:000028a4       _OutputDebugStringA@4      004038a4 f   kernel32:KERNEL32.dll
 0001:000028aa       _FormatMessageA@28         004038aa f   kernel32:KERNEL32.dll
 0001:000028b0       _GetModuleHandleA@4        004038b0 f   kernel32:KERNEL32.dll
 0001:000028b6       _VirtualQuery@12           004038b6 f   kernel32:KERNEL32.dll
 0001:000028bc       _IsBadWritePtr@8           004038bc f   kernel32:KERNEL32.dll
 0001:000028c2       _GetCurrentThread@0        004038c2 f   kernel32:KERNEL32.dll
 0001:000028c8       _WriteFile@20              004038c8 f   kernel32:KERNEL32.dll
 0001:000028ce       _GetProcAddress@8          004038ce f   kernel32:KERNEL32.dll
 0001:000028d4       _LoadLibraryA@4            004038d4 f   kernel32:KERNEL32.dll
 0001:000028da       _SetConsoleCtrlHandler@8   004038da f   kernel32:KERNEL32.dll
 0001:000028e0       _GetDriveTypeA@4           004038e0 f   kernel32:KERNEL32.dll
 0001:000028e6       _GetLogicalDriveStringsA@8 004038e6 f   kernel32:KERNEL32.dll
 0001:000028ec       _WinExec@8                 004038ec f   kernel32:KERNEL32.dll
 0001:000028f2       __onexit                   004038f2 f   libc:onexit.obj
 0001:0000295f       _atexit                    0040395f f   libc:onexit.obj
 0001:00002971       ___onexitinit              00403971 f   libc:onexit.obj
 0001:000029a0       _strrchr                   004039a0 f   libc:strrchr.obj
 0001:000029e0       _strchr                    004039e0 f   libc:strchr.obj
 0001:000029e6       ___from_strstr_to_strchr   004039e6 f   libc:strchr.obj
 0001:00002a9c       _sprintf                   00403a9c f   libc:sprintf.obj
 0001:00002aee       _free                      00403aee f   libc:free.obj
 0001:00002b57       _fprintf                   00403b57 f   libc:fprintf.obj
 0001:00002b89       ___initstdio               00403b89 f   libc:_file.obj
 0001:00002c2e       ___endstdio                00403c2e f   libc:_file.obj
 0001:00002c42       ?_JumpToContinuation@@YGXPAXPAUEHRegistrationNode@@@Z 00403c42 f   libc:trnsctrl.obj
 0001:00002c76       ?_CallMemberFunction0@@YGXPAX0@Z 00403c76 f   libc:trnsctrl.obj
 0001:00002c7d       ?_CallMemberFunction1@@YGXPAX00@Z 00403c7d f   libc:trnsctrl.obj
 0001:00002c84       ?_CallMemberFunction2@@YGXPAX00H@Z 00403c84 f   libc:trnsctrl.obj
 0001:00002c8b       ?_UnwindNestedFrames@@YGXPAUEHRegistrationNode@@PAUEHExceptionRecord@@@Z 00403c8b f   libc:trnsctrl.obj
 0001:00002cda       ___CxxFrameHandler         00403cda f   libc:trnsctrl.obj
 0001:00002d10       ___CxxLongjmpUnwind@4      00403d10 f   libc:trnsctrl.obj
 0001:00002d2a       ?_CallCatchBlock2@@YAPAXPAUEHRegistrationNode@@PBU_s_FuncInfo@@PAXHK@Z 00403d2a f   libc:trnsctrl.obj
 0001:00002da3       ?_CallSETranslator@@YAHPAUEHExceptionRecord@@PAUEHRegistrationNode@@PAX2PBU_s_FuncInfo@@H1@Z 00403da3 f   libc:trnsctrl.obj
 0001:00002ecc       ?_GetRangeOfTrysToCheck@@YAPBU_s_TryBlockMapEntry@@PBU_s_FuncInfo@@HHPAI1@Z 00403ecc f   libc:trnsctrl.obj
 0001:00002f47       __fpmath                   00403f47 f   libc:fpinit.obj
 0001:00002f5e       __fpclear                  00403f5e f   libc:fpinit.obj
 0001:00002f5f       __cfltcvt_init             00403f5f f   libc:fpinit.obj
 0001:00002f97       ___setfflag                00403f97 f   libc:fpinit.obj
 0001:00002fa8       __global_unwind2           00403fa8 f   libc:exsup.obj
 0001:00002fea       __local_unwind2            00403fea f   libc:exsup.obj
 0001:00003042       __NLG_Return2              00404042 f   libc:exsup.obj
 0001:00003052       __abnormal_termination     00404052 f   libc:exsup.obj
 0001:00003075       __NLG_Notify1              00404075 f   libc:exsup.obj
 0001:0000307e       __NLG_Notify               0040407e f   libc:exsup.obj
 0001:00003091       __NLG_Dispatch             00404091 f   libc:exsup.obj
 0001:000030a0       _memmove                   004040a0 f   libc:memmove.obj
 0001:000033d5       _malloc                    004043d5 f   libc:malloc.obj
 0001:000033e7       __nh_malloc                004043e7 f   libc:malloc.obj
 0001:00003413       __heap_alloc               00404413 f   libc:malloc.obj
 0001:00003487       ??3@YAXPAX@Z               00404487 f   libc:delete.obj
 0001:00003492       _realloc                   00404492 f   libc:realloc.obj
 0001:00003732       _printf                    00404732 f   libc:printf.obj
 0001:00003763       __getch                    00404763 f   libc:getch.obj
 0001:00003834       __getche                   00404834 f   libc:getch.obj
 0001:0000386c       __kbhit                    0040486c f   libc:getch.obj
 0001:0000392a       __ungetch                  0040492a f   libc:getch.obj
 0001:00003a0b       ??2@YAPAXI@Z               00404a0b f   libc:new.obj
 0001:00003a19       _mainCRTStartup            00404a19 f   libc:crt0.obj
 0001:00003af8       __amsg_exit                00404af8 f   libc:crt0.obj
 0001:00003b41       __cinit                    00404b41 f   libc:crt0dat.obj
 0001:00003b6e       _exit                      00404b6e f   libc:crt0dat.obj
 0001:00003b7f       __exit                     00404b7f f   libc:crt0dat.obj
 0001:00003b90       __cexit                    00404b90 f   libc:crt0dat.obj
 0001:00003b9f       __c_exit                   00404b9f f   libc:crt0dat.obj
 0001:00003c61       __msize                    00404c61 f   libc:msize.obj
 0001:00003cc2       __flsbuf                   00404cc2 f   libc:_flsbuf.obj
 0001:00003dd7       __output                   00404dd7 f   libc:output.obj
 0001:000045e1       __GetLinkerVersion         004055e1 f   libc:heapinit.obj
 0001:0000460e       ___heap_select             0040560e f   libc:heapinit.obj
 0001:00004756       __heap_init                00405756 f   libc:heapinit.obj
 0001:000047b3       __heap_term                004057b3 f   libc:heapinit.obj
 0001:0000485b       __get_sbh_threshold        0040585b f   libc:sbheap.obj
 0001:0000487a       __set_sbh_threshold        0040587a f   libc:sbheap.obj
 0001:0000492d       ___sbh_heap_init           0040592d f   libc:sbheap.obj
 0001:00004975       ___sbh_find_block          00405975 f   libc:sbheap.obj
 0001:000049a0       ___sbh_free_block          004059a0 f   libc:sbheap.obj
 0001:00004cc9       ___sbh_alloc_block         00405cc9 f   libc:sbheap.obj
 0001:00004fd2       ___sbh_alloc_new_region    00405fd2 f   libc:sbheap.obj
 0001:00005083       ___sbh_alloc_new_group     00406083 f   libc:sbheap.obj
 0001:0000517e       ___sbh_resize_block        0040617e f   libc:sbheap.obj
 0001:00005474       ___sbh_heapmin             00406474 f   libc:sbheap.obj
 0001:00005545       ___sbh_heap_check          00406545 f   libc:sbheap.obj
 0001:00005874       __get_old_sbh_threshold    00406874 f   libc:sbheap.obj
 0001:0000587a       __set_old_sbh_threshold    0040687a f   libc:sbheap.obj
 0001:00005896       ___old_sbh_new_region      00406896 f   libc:sbheap.obj
 0001:000059da       ___old_sbh_release_region  004069da f   libc:sbheap.obj
 0001:00005a30       ___old_sbh_decommit_pages  00406a30 f   libc:sbheap.obj
 0001:00005af2       ___old_sbh_find_block      00406af2 f   libc:sbheap.obj
 0001:00005b49       ___old_sbh_free_block      00406b49 f   libc:sbheap.obj
 0001:00005b8e       ___old_sbh_alloc_block     00406b8e f   libc:sbheap.obj
 0001:00005d96       ___old_sbh_alloc_block_from_page 00406d96 f   libc:sbheap.obj
 0001:00005eba       ___old_sbh_resize_block    00406eba f   libc:sbheap.obj
 0001:00005f63       ___old_sbh_heap_check      00406f63 f   libc:sbheap.obj
 0001:000060c1       __stbuf                    004070c1 f   libc:_sftbuf.obj
 0001:0000614e       __ftbuf                    0040714e f   libc:_sftbuf.obj
 0001:0000618b       __ioinit                   0040718b f   libc:ioinit.obj
 0001:00006336       __ioterm                   00407336 f   libc:ioinit.obj
 0001:00006359       _calloc                    00407359 f   libc:calloc.obj
 0001:0000640a       __fcloseall                0040740a f   libc:closeall.obj
 0001:00006462       _fflush                    00407462 f   libc:fflush.obj
 0001:0000649d       __flush                    0040749d f   libc:fflush.obj
 0001:000064f9       __flushall                 004074f9 f   libc:fflush.obj
 0001:0000656f       ___InternalCxxFrameHandler 0040756f f   libc:frame.obj
 0001:000068b6       ___FrameUnwindToState      004078b6 f   libc:frame.obj
 0001:00006cdf       ?_DestructExceptionObject@@YAXPAUEHExceptionRecord@@E@Z 00407cdf f   libc:frame.obj
 0001:00006d70       __CallSettingFrame@12      00407d70 f   libc:lowhelpr.obj
 0001:00006d97       __NLG_Return               00407d97 f   libc:lowhelpr.obj
 0001:00006dbc       ?terminate@@YAXXZ          00407dbc f   libc:hooks.obj
 0001:00006e12       ?unexpected@@YAXXZ         00407e12 f   libc:hooks.obj
 0001:00006e22       ?_inconsistency@@YAXXZ     00407e22 f   libc:hooks.obj
 0001:00006e78       __setdefaultprecision      00407e78 f   libc:fp8.obj
 0001:00006e8a       __ms_p5_test_fdiv          00407e8a f   libc:testfdiv.obj
 0001:00006ec8       __ms_p5_mp_test_fdiv       00407ec8 f   libc:testfdiv.obj
 0001:00006ef1       __forcdecpt                00407ef1 f   libc:cvt.obj
 0001:00006f4b       __cropzeros                00407f4b f   libc:cvt.obj
 0001:00006f99       __positive                 00407f99 f   libc:cvt.obj
 0001:00006fb1       __fassign                  00407fb1 f   libc:cvt.obj
 0001:00006fef       __cftoe                    00407fef f   libc:cvt.obj
 0001:000070f3       __cftof                    004080f3 f   libc:cvt.obj
 0001:000071d1       __cftog                    004081d1 f   libc:cvt.obj
 0001:000072b6       __cfltcvt                  004082b6 f   libc:cvt.obj
 0001:0000732c       ?_set_new_handler@@YAP6AHI@ZP6AHI@Z@Z 0040832c f   libc:handler.obj
 0001:0000733c       ?_query_new_handler@@YAP6AHI@ZXZ 0040833c f   libc:handler.obj
 0001:00007342       __callnewh                 00408342 f   libc:handler.obj
 0001:00007360       _memcpy                    00408360 f   libc:memcpy.obj
 0001:00007695       ___initconin               00408695 f   libc:initcon.obj
 0001:000076b4       ___initconout              004086b4 f   libc:initcon.obj
 0001:000076d3       ___termcon                 004086d3 f   libc:initcon.obj
 0001:00007700       __putch                    00408700 f   libc:putch.obj
 0001:00007750       __chkstk                   00408750 f   libc:chkstk.obj
 0001:00007750       __alloca_probe             00408750 f   libc:chkstk.obj
 0001:0000777f       __XcptFilter               0040877f f   libc:winxfltr.obj
 0001:00007903       __setenvp                  00408903 f   libc:stdenvp.obj
 0001:000079bc       __setargv                  004089bc f   libc:stdargv.obj
 0001:00007c09       ___crtGetEnvironmentStringsA 00408c09 f   libc:a_env.obj
 0001:00007d44       __except_handler3          00408d44 f   libc:exsup3.obj
 0001:00007e01       __seh_longjmp_unwind@4     00408e01 f   libc:exsup3.obj
 0001:00007e1c       __FF_MSGBANNER             00408e1c f   libc:crt0msg.obj
 0001:00007e55       __NMSG_WRITE               00408e55 f   libc:crt0msg.obj
 0001:00007fa8       __GET_RTERRMSG             00408fa8 f   libc:crt0msg.obj
 0001:00007fd9       __lseek                    00408fd9 f   libc:lseek.obj
 0001:00008073       __write                    00409073 f   libc:write.obj
 0001:00008220       __getbuf                   00409220 f   libc:_getbuf.obj
 0001:00008264       __isatty                   00409264 f   libc:isatty.obj
 0001:00008290       _strlen                    00409290 f   libc:strlen.obj
 0001:0000830b       _wctomb                    0040930b f   libc:wctomb.obj
 0001:00008380       __aulldiv                  00409380 f   libc:ulldiv.obj
 0001:000083f0       __aullrem                  004093f0 f   libc:ullrem.obj
 0001:00008465       _strtol                    00409465 f   libc:strtol.obj
 0001:00008684       _strtoul                   00409684 f   libc:strtol.obj
 0001:000086a0       _strstr                    004096a0 f   libc:strstr.obj
 0001:00008720       _strncmp                   00409720 f   libc:strncmp.obj
 0001:00008760       _memset                    00409760 f   libc:memset.obj
 0001:000087b8       _fclose                    004097b8 f   libc:fclose.obj
 0001:0000880e       __commit                   0040980e f   libc:commit.obj
 0001:00008865       ?__CxxUnhandledExceptionFilter@@YGJPAU_EXCEPTION_POINTERS@@@Z 00409865 f   libc:unhandld.obj
 0001:000088ab       ?__CxxSetUnhandledExceptionFilter@@YAXXZ 004098ab f   libc:unhandld.obj
 0001:000088bc       ?__CxxRestoreUnhandledExceptionFilter@@YAXXZ 004098bc f   libc:unhandld.obj
 0001:000088c9       ?_ValidateRead@@YAHPBXI@Z  004098c9 f   libc:validate.obj
 0001:000088e5       ?_ValidateWrite@@YAHPAXI@Z 004098e5 f   libc:validate.obj
 0001:00008901       ?_ValidateExecute@@YAHP6GHXZ@Z 00409901 f   libc:validate.obj
 0001:00008920       _strcmp                    00409920 f   libc:strcmp.obj
 0001:000089a4       _abort                     004099a4 f   libc:abort.obj
 0001:000089bb       __statusfp                 004099bb f   libc:ieee87.obj
 0001:000089ce       __clearfp                  004099ce f   libc:ieee87.obj
 0001:000089e2       __control87                004099e2 f   libc:ieee87.obj
 0001:00008a17       __controlfp                00409a17 f   libc:ieee87.obj
 0001:00008a2d       __fpreset                  00409a2d f   libc:ieee87.obj
 0001:00008ba7       __isctype                  00409ba7 f   libc:isctype.obj
 0001:00008c1c       __tolower                  00409c1c f   libc:tolower.obj
 0001:00008c24       _tolower                   00409c24 f   libc:tolower.obj
 0001:00008cef       __ZeroTail                 00409cef f   libc:intrncvt.obj
 0001:00008d38       __IncMan                   00409d38 f   libc:intrncvt.obj
 0001:00008d8e       __RoundMan                 00409d8e f   libc:intrncvt.obj
 0001:00008e1a       __CopyMan                  00409e1a f   libc:intrncvt.obj
 0001:00008e35       __FillZeroMan              00409e35 f   libc:intrncvt.obj
 0001:00008e41       __IsZeroMan                00409e41 f   libc:intrncvt.obj
 0001:00008e5c       __ShrMan                   00409e5c f   libc:intrncvt.obj
 0001:00008ee9       __ld12cvt                  00409ee9 f   libc:intrncvt.obj
 0001:00009055       __ld12tod                  0040a055 f   libc:intrncvt.obj
 0001:0000906b       __ld12tof                  0040a06b f   libc:intrncvt.obj
 0001:00009081       __ld12told                 0040a081 f   libc:intrncvt.obj
 0001:000090fb       __atodbl                   0040a0fb f   libc:intrncvt.obj
 0001:00009128       __atoldbl                  0040a128 f   libc:intrncvt.obj
 0001:00009156       __atoflt                   0040a156 f   libc:intrncvt.obj
 0001:00009190       _strcpy                    0040a190 f   libc:strcat.obj
 0001:000091a0       _strcat                    0040a1a0 f   libc:strcat.obj
 0001:00009280       __fptostr                  0040a280 f   libc:_fptostr.obj
 0001:000092f7       __fltout                   0040a2f7 f   libc:cfout.obj
 0001:0000935b       ___dtold                   0040a35b f   libc:cfout.obj
 0001:00009411       __fptrap                   0040a411 f   libc:crt0fp.obj
 0001:0000941a       __setmbcp                  0040a41a f   libc:mbctype.obj
 0001:000097de       __getmbcp                  0040a7de f   libc:mbctype.obj
 0001:000097ee       ___initmbctable            0040a7ee f   libc:mbctype.obj
 0001:0000980a       ___crtMessageBoxA          0040a80a f   libc:crtmbox.obj
 0001:000098a0       _strncpy                   0040a8a0 f   libc:strncpy.obj
 0001:0000999e       __dosmaperr                0040a99e f   libc:dosmap.obj
 0001:00009a05       __alloc_osfhnd             0040aa05 f   libc:osfinfo.obj
 0001:00009a9a       __set_osfhnd               0040aa9a f   libc:osfinfo.obj
 0001:00009b11       __free_osfhnd              0040ab11 f   libc:osfinfo.obj
 0001:00009b8b       __get_osfhandle            0040ab8b f   libc:osfinfo.obj
 0001:00009bc8       __open_osfhandle           0040abc8 f   libc:osfinfo.obj
 0001:00009c65       __toupper                  0040ac65 f   libc:toupper.obj
 0001:00009c6d       _toupper                   0040ac6d f   libc:toupper.obj
 0001:00009d39       __close                    0040ad39 f   libc:close.obj
 0001:00009dec       __freebuf                  0040adec f   libc:_freebuf.obj
 0001:00009e17       _signal                    0040ae17 f   libc:winsig.obj
 0001:00009f5b       _raise                     0040af5b f   libc:winsig.obj
 0001:0000a0cd       ___crtGetStringTypeA       0040b0cd f   libc:a_str.obj
 0001:0000a216       ___crtLCMapStringA         0040b216 f   libc:a_map.obj
 0001:0000a465       ___addl                    0040b465 f   libc:mantold.obj
 0001:0000a486       ___add_12                  0040b486 f   libc:mantold.obj
 0001:0000a4e4       ___shl_12                  0040b4e4 f   libc:mantold.obj
 0001:0000a512       ___shr_12                  0040b512 f   libc:mantold.obj
 0001:0000a53f       ___mtold12                 0040b53f f   libc:mantold.obj
 0001:0000a606       ___strgtold12              0040b606 f   libc:strgtold.obj
 0001:0000aad7       ___STRINGTOLD              0040bad7 f   libc:strgtold.obj
 0001:0000ab13       _$I10_OUTPUT               0040bb13 f   libc:x10fout.obj
 0001:0000ada6       ___ld12mul                 0040bda6 f   libc:tenpow.obj
 0001:0000afc6       ___multtenpow12            0040bfc6 f   libc:tenpow.obj
 0001:0000b050       _wvsprintfA@12             0040c050 f   user32:USER32.dll
 0001:0000b056       _EnumWindows@8             0040c056 f   user32:USER32.dll
 0001:0000b05c       _SendMessageA@16           0040c05c f   user32:USER32.dll
 0001:0000b062       _GetWindowTextA@12         0040c062 f   user32:USER32.dll
 0001:0000b070       ?Start@PTimer@@QAEXXZ      0040c070 f   plib:ptimer.obj
 0001:0000b090       ?Stop@PTimer@@QAEXXZ       0040c090 f   plib:ptimer.obj
 0001:0000b0b0       ?PError_ShowErrorMessage@@YAXPBDZZ 0040c0b0 f   plib:perror.obj
 0001:0000b100       ?PError_ShowWin32Error@@YGXPBD@Z 0040c100 f   plib:perror.obj
 0001:0000b170       ?PError_ShowWin32Error@@YGXKPBD@Z 0040c170 f   plib:perror.obj
 0001:0000b250       ?_insert@ADLP_String@@AAEXPBDII@Z 0040c250 f   plib:adlp_string.obj
 0001:0000b4b0       ?_realloc@ADLP_String@@AAEXXZ 0040c4b0 f i plib:adlp_string.obj
 0001:0000b4d0       ?_alloc@ADLP_String@@AAEXH@Z 0040c4d0 f i plib:adlp_string.obj
 0001:0000b510       ??0ADLP_String@@QAE@D@Z    0040c510 f   plib:adlp_string.obj
 0001:0000b550       ??0ADLP_String@@QAE@E@Z    0040c550 f   plib:adlp_string.obj
 0001:0000b590       ??0ADLP_String@@QAE@F@Z    0040c590 f   plib:adlp_string.obj
 0001:0000b630       ??0ADLP_String@@QAE@G@Z    0040c630 f   plib:adlp_string.obj
 0001:0000b6d0       ??0ADLP_String@@QAE@H@Z    0040c6d0 f   plib:adlp_string.obj
 0001:0000b770       ??0ADLP_String@@QAE@I@Z    0040c770 f   plib:adlp_string.obj
 0001:0000b810       ??0ADLP_String@@QAE@J@Z    0040c810 f   plib:adlp_string.obj
 0001:0000b8b0       ??0ADLP_String@@QAE@K@Z    0040c8b0 f   plib:adlp_string.obj
 0001:0000b950       ??0ADLP_String@@QAE@NPBD@Z 0040c950 f   plib:adlp_string.obj
 0001:0000ba00       ??YADLP_String@@QAEXD@Z    0040ca00 f   plib:adlp_string.obj
 0001:0000ba70       ??YADLP_String@@QAEXE@Z    0040ca70 f   plib:adlp_string.obj
 0001:0000bae0       ??YADLP_String@@QAEXABV0@@Z 0040cae0 f   plib:adlp_string.obj
 0001:0000bb70       ??YADLP_String@@QAEXF@Z    0040cb70 f   plib:adlp_string.obj
 0001:0000bc10       ??YADLP_String@@QAEXG@Z    0040cc10 f   plib:adlp_string.obj
 0001:0000bcb0       ??YADLP_String@@QAEXH@Z    0040ccb0 f   plib:adlp_string.obj
 0001:0000bd50       ??YADLP_String@@QAEXI@Z    0040cd50 f   plib:adlp_string.obj
 0001:0000bdf0       ??YADLP_String@@QAEXJ@Z    0040cdf0 f   plib:adlp_string.obj
 0001:0000be90       ??YADLP_String@@QAEXK@Z    0040ce90 f   plib:adlp_string.obj
 0001:0000bf30       ??YADLP_String@@QAEXN@Z    0040cf30 f   plib:adlp_string.obj
 0001:0000bfd0       ??YADLP_String@@QAEX_J@Z   0040cfd0 f   plib:adlp_string.obj
 0001:0000c070       ??4ADLP_String@@QAEAAV0@D@Z 0040d070 f   plib:adlp_string.obj
 0001:0000c0d0       ??4ADLP_String@@QAEAAV0@PBD@Z 0040d0d0 f   plib:adlp_string.obj
 0001:0000c180       ??4ADLP_String@@QAEAAV0@ABV0@@Z 0040d180 f   plib:adlp_string.obj
 0001:0000c220       ??4ADLP_String@@QAEAAV0@F@Z 0040d220 f   plib:adlp_string.obj
 0001:0000c2b0       ??4ADLP_String@@QAEAAV0@G@Z 0040d2b0 f   plib:adlp_string.obj
 0001:0000c340       ??4ADLP_String@@QAEAAV0@H@Z 0040d340 f   plib:adlp_string.obj
 0001:0000c3d0       ??4ADLP_String@@QAEAAV0@I@Z 0040d3d0 f   plib:adlp_string.obj
 0001:0000c460       ??4ADLP_String@@QAEAAV0@J@Z 0040d460 f   plib:adlp_string.obj
 0001:0000c4f0       ??4ADLP_String@@QAEAAV0@K@Z 0040d4f0 f   plib:adlp_string.obj
 0001:0000c580       ??4ADLP_String@@QAEAAV0@N@Z 0040d580 f   plib:adlp_string.obj
 0001:0000c610       ??4ADLP_String@@QAEAAV0@_J@Z 0040d610 f   plib:adlp_string.obj
 0001:0000c6a0       ?Insert@ADLP_String@@QAEAAV1@ABV1@I@Z 0040d6a0 f   plib:adlp_string.obj
 0001:0000c6d0       ?Insert@ADLP_String@@QAEAAV1@PBDI@Z 0040d6d0 f   plib:adlp_string.obj
 0001:0000c710       ?Insert@ADLP_String@@QAEAAV1@DI@Z 0040d710 f   plib:adlp_string.obj
 0001:0000c740       ?Erase@ADLP_String@@QAEAAV1@I@Z 0040d740 f   plib:adlp_string.obj
 0001:0000c760       ?Erase@ADLP_String@@QAEAAV1@II@Z 0040d760 f   plib:adlp_string.obj
 0001:0000c7c0       ?Cut@ADLP_String@@QAE?AV1@II@Z 0040d7c0 f   plib:adlp_string.obj
 0001:0000c920       ?Clear@ADLP_String@@QAEXXZ 0040d920 f i plib:adlp_string.obj
 0001:0000c940       ?Copy@ADLP_String@@QBE?AV1@II@Z 0040d940 f   plib:adlp_string.obj
 0001:0000ca40       ?EraseLeadingChars@ADLP_String@@QAEXD@Z 0040da40 f   plib:adlp_string.obj
 0001:0000caa0       ?EraseTrailingChars@ADLP_String@@QAEXD@Z 0040daa0 f   plib:adlp_string.obj
 0001:0000caf0       ?IsUpper@ADLP_String@@QBEHXZ 0040daf0 f   plib:adlp_string.obj
 0001:0000cb20       ?IsLower@ADLP_String@@QBEHXZ 0040db20 f   plib:adlp_string.obj
 0001:0000cb50       ?IsAlpha@ADLP_String@@QBEHXZ 0040db50 f   plib:adlp_string.obj
 0001:0000cb90       ?IsNumeric@ADLP_String@@QBEHXZ 0040db90 f   plib:adlp_string.obj
 0001:0000cbc0       ?IsAlphaNumeric@ADLP_String@@QBEHXZ 0040dbc0 f   plib:adlp_string.obj
 0001:0000cc00       ?ToUpper@ADLP_String@@QAEXXZ 0040dc00 f   plib:adlp_string.obj
 0001:0000cc40       ?ToLower@ADLP_String@@QAEXXZ 0040dc40 f   plib:adlp_string.obj
 0001:0000cc80       ?GetCharCount@ADLP_String@@QBEID@Z 0040dc80 f   plib:adlp_string.obj
 0001:0000ccb0       ?GetStrCount@ADLP_String@@QBEIPBD@Z 0040dcb0 f   plib:adlp_string.obj
 0001:0000cd00       ?Set@ADLP_String@@QAEXPBDI@Z 0040dd00 f   plib:adlp_string.obj
 0001:0000cda0       ?Append@ADLP_String@@QAEXNPBD@Z 0040dda0 f   plib:adlp_string.obj
 0001:0000ce40       ?Append@ADLP_String@@QAEXDI@Z 0040de40 f   plib:adlp_string.obj
 0001:0000cee0       ?Append@ADLP_String@@QAEXPADI@Z 0040dee0 f   plib:adlp_string.obj
 0001:0000d030       ?Append@ADLP_String@@QAEXABV1@I@Z 0040e030 f   plib:adlp_string.obj
 0001:0000d0c0       ?AppendHexByte@ADLP_String@@QAEXE@Z 0040e0c0 f   plib:adlp_string.obj
 0001:0000d160       ?AppendHexWord@ADLP_String@@QAEXG@Z 0040e160 f   plib:adlp_string.obj
 0001:0000d200       ?AppendHexLong@ADLP_String@@QAEXK@Z 0040e200 f   plib:adlp_string.obj
 0001:0000d2a0       ?ReplaceAllChar@ADLP_String@@QAEIDD@Z 0040e2a0 f   plib:adlp_string.obj
 0001:0000d2f0       ?ReplaceAllChar@ADLP_String@@QAEIDPBD@Z 0040e2f0 f   plib:adlp_string.obj
 0001:0000d510       ?ReplaceAllStr@ADLP_String@@QAEIPBD0@Z 0040e510 f   plib:adlp_string.obj
 0001:0000d740       ?ADLP_IsValidInteger@@YIHPBD@Z 0040e740 f   plib:adlp_string.obj
 0001:0000d780       ?ADLP_IsValidDouble@@YIHPBD@Z 0040e780 f   plib:adlp_string.obj
 0001:0000d7f0       ?ADLP_Mask@@YIXPBDAAVADLP_String@@H@Z 0040e7f0 f   plib:adlp_string.obj
 0001:0000d940       ?ADLP_Unmask@@YIXPBDAAVADLP_String@@@Z 0040e940 f   plib:adlp_string.obj
 0001:0000da80       ?ADLP_Unmask@@YIXABVADLP_String@@AAV1@@Z 0040ea80 f   plib:adlp_string.obj
 0001:0000dba0       ??1PFileSearch@@UAE@XZ     0040eba0 f   plib:pfilesearch.obj
 0001:0000dbd0       ?FindFirst@PFileSearch@@QAEXPBD@Z 0040ebd0 f   plib:pfilesearch.obj
 0001:0000dc30       ?FindNext@PFileSearch@@QAEXXZ 0040ec30 f   plib:pfilesearch.obj
 0001:0000dc60       ?FindClose@PFileSearch@@QAEXXZ 0040ec60 f   plib:pfilesearch.obj
 0001:0000dc90       ?GetFilename@PFileSearch@@QBEPBDXZ 0040ec90 f   plib:pfilesearch.obj
 0001:0000dcc0       ?GetFilesize@PFileSearch@@QBEJXZ 0040ecc0 f   plib:pfilesearch.obj
 0001:0000dcd0       ?GetAttr@PFileSearch@@QBEHXZ 0040ecd0 f   plib:pfilesearch.obj
 0001:0000dce0       ?IsDirectory@PFileSearch@@QBEHXZ 0040ece0 f   plib:pfilesearch.obj
 0001:0000ddb0       ?out_init_listmode@@YGXH@Z 0040edb0 f   lib_gt:gt_output.obj
 0001:0000ddc0       ?out_init_all@@YGXHHJ@Z    0040edc0 f   lib_gt:gt_output.obj
 0001:0000ddf0       ?out_flush@@YGXXZ          0040edf0 f   lib_gt:gt_output.obj
 0001:0000e1d0       ?out_append@@YGXPBD@Z      0040f1d0 f   lib_gt:gt_output.obj
 0001:0000e490       ??0ADLP_String@@QAE@ABV0@@Z 0040f490 f i lib_gt:gt_output.obj
 0001:0000e500       ?out_append@@YGXPBDW4GT_Color@@@Z 0040f500 f   lib_gt:gt_output.obj
 0001:0000e530       ?out_append@@YGXABVADLP_String@@@Z 0040f530 f   lib_gt:gt_output.obj
 0001:0000e550       ?out_append@@YGXABVADLP_String@@W4GT_Color@@@Z 0040f550 f   lib_gt:gt_output.obj
 0001:0000e570       ?out_format@@YAXPBDZZ      0040f570 f   lib_gt:gt_output.obj
 0001:0000e7c0       ?out_color_format@@YAXW4GT_Color@@PBDZZ 0040f7c0 f   lib_gt:gt_output.obj
 0001:0000ea90       ?out_title@@YGXPBD@Z       0040fa90 f   lib_gt:gt_output.obj
 0001:0000eb80       ?out_filename@@YGXPAVGT_FileBuffer@@@Z 0040fb80 f   lib_gt:gt_output.obj
 0001:0000eca0       ?firstElement@?$GT_Sequence@VGT_OutputMember@@@@QAEAAVGT_OutputMember@@XZ 0040fca0 f i lib_gt:gt_output.obj
 0001:0000ecb0       ?setFirst@Cursor@?$GT_Sequence@VGT_OutputMember@@@@UAEXXZ 0040fcb0 f i lib_gt:gt_output.obj
 0001:0000ecc0       ?setNext@Cursor@?$GT_Sequence@VGT_OutputMember@@@@UAEXXZ 0040fcc0 f i lib_gt:gt_output.obj
 0001:0000ecd0       ?isValid@Cursor@?$GT_Sequence@VGT_OutputMember@@@@UBEHXZ 0040fcd0 f i lib_gt:gt_output.obj
 0001:0000ece0       ?element@Cursor@?$GT_Sequence@VGT_OutputMember@@@@UAEABVGT_OutputMember@@XZ 0040fce0 f i lib_gt:gt_output.obj
 0001:0000ecf0       ??_E?$GT_Sequence@VGT_OutputMember@@@@UAEPAXI@Z 0040fcf0 f i lib_gt:gt_output.obj
 0001:0000ecf0       ??_G?$GT_Sequence@VGT_OutputMember@@@@UAEPAXI@Z 0040fcf0 f i lib_gt:gt_output.obj
 0001:0000ed40       ?addFirst@?$GT_Sequence@VGT_OutputMember@@@@QAEXABVGT_OutputMember@@@Z 0040fd40 f i lib_gt:gt_output.obj
 0001:0000ed90       ?addLast@?$GT_Sequence@VGT_OutputMember@@@@QAEXABVGT_OutputMember@@@Z 0040fd90 f i lib_gt:gt_output.obj
 0001:0000ede0       ??0?$GT_Entry@VGT_OutputMember@@@@QAE@PAV0@ABVGT_OutputMember@@0@Z 0040fde0 f i lib_gt:gt_output.obj
 0001:0000ee10       ?GT_Flags_Init@@YGXHPAPAD@Z 0040fe10 f   lib_gt:gt_commandlineflags.obj
 0001:0000ee60       ?GT_Flags_Parse@@YGXXZ     0040fe60 f   lib_gt:gt_commandlineflags.obj
 0001:0000eea0       ?GT_Flags_SetToDefault@@YGXXZ 0040fea0 f   lib_gt:gt_commandlineflags.obj
 0001:0000eee0       ?GT_Flags_SetFlag@@YGHPBD@Z 0040fee0 f   lib_gt:gt_commandlineflags.obj
 0001:0000ef80       ?GT_Flags_OptimizeFlags@@YGXXZ 0040ff80 f   lib_gt:gt_commandlineflags.obj
 0001:0000f030       ?GT_Flags_GetAsString@@YG?AVADLP_String@@D@Z 00410030 f   lib_gt:gt_commandlineflags.obj
 0001:0000f240       ??0GT_ConfigFile@@QAE@XZ   00410240 f   lib_gt:gt_configfile.obj
 0001:0000f3b0       ??_GGT_ConfigFile@@UAEPAXI@Z 004103b0 f i lib_gt:gt_configfile.obj
 0001:0000f3b0       ??_EGT_ConfigFile@@UAEPAXI@Z 004103b0 f i lib_gt:gt_configfile.obj
 0001:0000f3f0       ??1GT_ConfigFile@@UAE@XZ   004103f0 f   lib_gt:gt_configfile.obj
 0001:0000f420       ?_ShowConfigFileError@GT_ConfigFile@@AAEXPBDJPAX@Z 00410420 f   lib_gt:gt_configfile.obj
 0001:0000f480       ?Read@GT_ConfigFile@@QAEHXZ 00410480 f   lib_gt:gt_configfile.obj
 0001:0000f650       ??0GT_FileBuffer@@QAE@PBDJP6GH0JQAX@ZJ1@Z 00410650 f   lib_gt:gt_filebuffer.obj
 0001:0000f7b0       ??_EGT_FileBuffer@@UAEPAXI@Z 004107b0 f i lib_gt:gt_filebuffer.obj
 0001:0000f7b0       ??_GGT_FileBuffer@@UAEPAXI@Z 004107b0 f i lib_gt:gt_filebuffer.obj
 0001:0000f7e0       ?_Open@GT_FileBuffer@@AAE?AW4GT_OpenReturnCode@@XZ 004107e0 f   lib_gt:gt_filebuffer.obj
 0001:0000f870       ?Init@GT_FileBuffer@@QAE?AW4GT_OpenReturnCode@@XZ 00410870 f   lib_gt:gt_filebuffer.obj
 0001:0000f930       ??1GT_FileBuffer@@UAE@XZ   00410930 f   lib_gt:gt_filebuffer.obj
 0001:0000f9d0       ?_InitBuffer@GT_FileBuffer@@AAEXXZ 004109d0 f   lib_gt:gt_filebuffer.obj
 0001:0000faa0       ?_DetermineIfText@GT_FileBuffer@@AAEXXZ 00410aa0 f   lib_gt:gt_filebuffer.obj
 0001:0000fb60       ?_Read@GT_FileBuffer@@ABEKPAXJ@Z 00410b60 f   lib_gt:gt_filebuffer.obj
 0001:0000fb90       ?_SeekTo@GT_FileBuffer@@ABEHJ@Z 00410b90 f   lib_gt:gt_filebuffer.obj
 0001:0000fbc0       ?SetActFilePos@GT_FileBuffer@@QAEXJ@Z 00410bc0 f   lib_gt:gt_filebuffer.obj
 0001:0000fc10       ??1GT_Exception@@QAE@XZ    00410c10 f i lib_gt:gt_filebuffer.obj
 0001:0000fc60       ??0GT_Exception@@QAE@ABV0@@Z 00410c60 f i lib_gt:gt_filebuffer.obj
 0001:0000fd30       ?IncActFilePos@GT_FileBuffer@@QAEXJ@Z 00410d30 f   lib_gt:gt_filebuffer.obj
 0001:0000fd80       ?GetFileNameExtension@GT_FileBuffer@@QBEPBDXZ 00410d80 f   lib_gt:gt_filebuffer.obj
 0001:0000fda0       ?CallListProc@GT_FileBuffer@@QBEXJ@Z 00410da0 f   lib_gt:gt_filebuffer.obj
 0001:0000fdd0       ?GetByte@GT_FileBuffer@@QAEHJAAE@Z 00410dd0 f   lib_gt:gt_filebuffer.obj
 0001:0000fe80       ?GetByte@GT_FileBuffer@@QAEEJ@Z 00410e80 f   lib_gt:gt_filebuffer.obj
 0001:0000ff10       ?GetWord@GT_FileBuffer@@QAEHJAAG@Z 00410f10 f   lib_gt:gt_filebuffer.obj
 0001:0000ffc0       ?GetWord@GT_FileBuffer@@QAEGJ@Z 00410fc0 f   lib_gt:gt_filebuffer.obj
 0001:00010060       ?GetLong@GT_FileBuffer@@QAEHJAAJ@Z 00411060 f   lib_gt:gt_filebuffer.obj
 0001:00010100       ?GetLong@GT_FileBuffer@@QAEJJ@Z 00411100 f   lib_gt:gt_filebuffer.obj
 0001:000101a0       ?GetBufferX@GT_FileBuffer@@QAEXJPAXJ@Z 004111a0 f   lib_gt:gt_filebuffer.obj
 0001:000102f0       ?GetBuffer@GT_FileBuffer@@QAEHJPAXJ@Z 004112f0 f   lib_gt:gt_filebuffer.obj
 0001:000103c0       ?GetString@GT_FileBuffer@@QAEHJAAVADLP_String@@J@Z 004113c0 f   lib_gt:gt_filebuffer.obj
 0001:00010470       ?GetCString@GT_FileBuffer@@QAEXAAVADLP_String@@JJ@Z 00411470 f   lib_gt:gt_filebuffer.obj
 0001:00010580       ?GetPascalString@GT_FileBuffer@@QAEXAAVADLP_String@@J@Z 00411580 f   lib_gt:gt_filebuffer.obj
 0001:000106f0       ?GetUntil@GT_FileBuffer@@QAEHJEPAXHAAH@Z 004116f0 f   lib_gt:gt_filebuffer.obj
 0001:00010780       ?SkipUntil@GT_FileBuffer@@QAEHJE@Z 00411780 f   lib_gt:gt_filebuffer.obj
 0001:00010830       ?Find@GT_FileBuffer@@QAEHEJJ@Z 00411830 f   lib_gt:gt_filebuffer.obj
 0001:00010870       ?Find@GT_FileBuffer@@QAEHPBDJJ@Z 00411870 f   lib_gt:gt_filebuffer.obj
 0001:00010940       ?iFind@GT_FileBuffer@@QAEHPBDJJ@Z 00411940 f   lib_gt:gt_filebuffer.obj
 0001:00010a80       ?Compare@GT_FileBuffer@@QAEHJJE@Z 00411a80 f   lib_gt:gt_filebuffer.obj
 0001:00010ac0       ?Compare@GT_FileBuffer@@QAEHJJPBD@Z 00411ac0 f   lib_gt:gt_filebuffer.obj
 0001:00010b00       ?iCompare@GT_FileBuffer@@QAEHJJPBD@Z 00411b00 f   lib_gt:gt_filebuffer.obj
 0001:00010b40       ??0GT_WindowsConsole@@QAE@XZ 00411b40 f   lib_gt:gt_winconsole.obj
 0001:00010c50       ??_EGT_WindowsConsole@@UAEPAXI@Z 00411c50 f i lib_gt:gt_winconsole.obj
 0001:00010c50       ??_GGT_WindowsConsole@@UAEPAXI@Z 00411c50 f i lib_gt:gt_winconsole.obj
 0001:00010c80       ??1GT_WindowsConsole@@UAE@XZ 00411c80 f   lib_gt:gt_winconsole.obj
 0001:00010d10       ?SetTextColor@GT_WindowsConsole@@QBEXW4GT_Color@@@Z 00411d10 f   lib_gt:gt_winconsole.obj
 0001:00010e00       ?RestoreOriginalColor@GT_WindowsConsole@@QBEXXZ 00411e00 f   lib_gt:gt_winconsole.obj
 0001:00010e30       ?SetTitle@GT_WindowsConsole@@QBEXPBD@Z 00411e30 f   lib_gt:gt_winconsole.obj
 0001:00010e50       ?GetBufferWidth@GT_WindowsConsole@@QBEJXZ 00411e50 f   lib_gt:gt_winconsole.obj
 0001:00010e80       ?GetBufferHeight@GT_WindowsConsole@@QBEJXZ 00411e80 f   lib_gt:gt_winconsole.obj
 0001:00010eb0       ?GetVisibleX@GT_WindowsConsole@@QBEJXZ 00411eb0 f   lib_gt:gt_winconsole.obj
 0001:00010ee0       ?GetVisibleY@GT_WindowsConsole@@QBEJXZ 00411ee0 f   lib_gt:gt_winconsole.obj
 0001:00010f10       ?GetVisibleWidth@GT_WindowsConsole@@QBEJXZ 00411f10 f   lib_gt:gt_winconsole.obj
 0001:00010f50       ?GetVisibleHeight@GT_WindowsConsole@@QBEJXZ 00411f50 f   lib_gt:gt_winconsole.obj
 0001:00010f90       ??0GT_Exception@@QAA@PBDJ0ZZ 00411f90 f   lib_gt:gt_exceptions.obj
 0001:00011070       ?Print@GT_Exception@@QBEXXZ 00412070 f   lib_gt:gt_exceptions.obj
 0001:000110a0       ?RecalculateHeader@GT_EXEAnalyzer@@AAEHH@Z 004120a0 f   lib_data:gt_exe_analyzer.obj
 0001:00011130       ?Check_C2E@GT_EXEAnalyzer@@AAEHXZ 00412130 f   lib_data:gt_exe_analyzer.obj
 0001:000111c0       ?Check_EXE_0J@GT_EXEAnalyzer@@AAEHJ@Z 004121c0 f   lib_data:gt_exe_analyzer.obj
 0001:000112d0       ?Check_EXE_1J@GT_EXEAnalyzer@@AAEHJ@Z 004122d0 f   lib_data:gt_exe_analyzer.obj
 0001:00011370       ?Check_EXE_2J@GT_EXEAnalyzer@@AAEHJ@Z 00412370 f   lib_data:gt_exe_analyzer.obj
 0001:00011410       ?Check_EXE_1LJ@GT_EXEAnalyzer@@AAEHJ@Z 00412410 f   lib_data:gt_exe_analyzer.obj
 0001:000114b0       ?Check_EXT_EXE@GT_EXEAnalyzer@@AAEHJH@Z 004124b0 f   lib_data:gt_exe_analyzer.obj
 0001:00011940       ?Check_EXE_Always@GT_EXEAnalyzer@@AAEXJH@Z 00412940 f   lib_data:gt_exe_analyzer.obj
 0001:00011990       ?Check_EXE_Generic@GT_EXEAnalyzer@@AAEHJ@Z 00412990 f   lib_data:gt_exe_analyzer.obj
 0001:00011d80       ?CheckStartupCode@GT_EXEAnalyzer@@AAEHH@Z 00412d80 f   lib_data:gt_exe_analyzer.obj
 0001:000120a0       ?ListCOM@GT_EXEAnalyzer@@QAEXXZ 004130a0 f   lib_data:gt_exe_analyzer.obj
 0001:000120d0       ?ListEXE@GT_EXEAnalyzer@@QAEXXZ 004130d0 f   lib_data:gt_exe_analyzer.obj
 0001:00012310       ?_ListNEEXEs@GT_EXEAnalyzer@@AAEXXZ 00413310 f   lib_data:gt_exe_analyzer.obj
 0001:00012470       ??1GT_EXE_LE_Lister@@QAE@XZ 00413470 f i lib_data:gt_exe_analyzer.obj
 0001:00012530       ??0GT_DBFAnalyzer@@QAE@PAVGT_FileBuffer@@@Z 00413530 f   lib_data:gt_generic.obj
 0001:00012690       ?Analyze@GT_DBFAnalyzer@@QBE?AVADLP_String@@XZ 00413690 f   lib_data:gt_generic.obj
 0001:00012970       ??0GT_HTMLAnalyzer@@QAE@PAVGT_FileBuffer@@@Z 00413970 f   lib_data:gt_generic.obj
 0001:000129d0       ?Analyze@GT_HTMLAnalyzer@@QBE?AVADLP_String@@XZ 004139d0 f   lib_data:gt_generic.obj
 0001:00012bb0       ?_SubAnalyze@GT_RIFFAnalyzer@@ABGXKKAAKAAVADLP_String@@1@Z 00413bb0 f   lib_data:gt_generic.obj
 0001:00012f00       ??0GT_RIFFAnalyzer@@QAE@PAVGT_FileBuffer@@@Z 00413f00 f   lib_data:gt_generic.obj
 0001:00012f40       ?Analyze@GT_RIFFAnalyzer@@QBG?AVADLP_String@@AAJ@Z 00413f40 f   lib_data:gt_generic.obj
 0001:00013710       ??0GT_SourceAnalyzer@@QAE@PAVGT_FileBuffer@@@Z 00414710 f   lib_data:gt_generic.obj
 0001:000137b0       ?_GetPascalStartPos@GT_SourceAnalyzer@@ABGHXZ 004147b0 f   lib_data:gt_generic.obj
 0001:000138a0       ?_GetCStartPos@GT_SourceAnalyzer@@ABGHXZ 004148a0 f   lib_data:gt_generic.obj
 0001:00013990       ?_Init@GT_SourceAnalyzer@@AAGXXZ 00414990 f   lib_data:gt_generic.obj
 0001:000145c0       ?_GetNextString@GT_SourceAnalyzer@@AAGXHD@Z 004155c0 f   lib_data:gt_generic.obj
 0001:00014680       ?_CheckString1@GT_SourceAnalyzer@@AAGHABVADLP_String@@HPBD@Z 00415680 f   lib_data:gt_generic.obj
 0001:000146e0       ?_CheckString2@GT_SourceAnalyzer@@AAGHABVADLP_String@@HPBD1@Z 004156e0 f   lib_data:gt_generic.obj
 0001:00014750       ?GetSourceType@GT_SourceAnalyzer@@QAGXAAVADLP_String@@@Z 00415750 f   lib_data:gt_generic.obj
 0001:00014930       ??0GT_TTFAnalyzer@@QAE@PAVGT_FileBuffer@@@Z 00415930 f   lib_data:gt_generic.obj
 0001:000149e0       ?IsTTF@GT_TTFAnalyzer@@QBEHXZ 004159e0 f   lib_data:gt_generic.obj
 0001:00014a10       ?ReadEntry@GT_TTFAnalyzer@@ABE?AVADLP_String@@PAU_GT_TTF_Name@@HH@Z 00415a10 f   lib_data:gt_generic.obj
 0001:00014c00       ?Analyze@GT_TTFAnalyzer@@QBE?AVADLP_String@@XZ 00415c00 f   lib_data:gt_generic.obj
 0001:00014ec0       ?GT_GenericAnalyze@@YG?AVADLP_String@@PAVGT_FileBuffer@@AAJ@Z 00415ec0 f   lib_data:gt_generic.obj
 0001:00017590       ??YADLP_String@@QAEXPBD@Z  00418590 f i lib_data:gt_generic.obj
 0001:00017620       ?LastChar@ADLP_String@@QBEDXZ 00418620 f i lib_data:gt_generic.obj
 0001:000186f0       ?SearchAt@ADLP_String@@QBEIID@Z 004196f0 f i lib_data:gt_generic.obj
 0001:00019480       ?Analyze@GT_SYSAnalyzer@@QBE?AVADLP_String@@XZ 0041a480 f i lib_data:gt_generic.obj
 0001:00019720       ??1GT_SourceAnalyzer@@QAE@XZ 0041a720 f i lib_data:gt_generic.obj
 0001:00019750       ??0GT_EXEHeader@@QAE@PAVGT_FileBuffer@@@Z 0041a750 f   lib_data:gt_exe_header.obj
 0001:000197e0       ?IsValidCOM@GT_EXEHeader@@QBEHXZ 0041a7e0 f   lib_data:gt_exe_header.obj
 0001:00019840       ?GetAbsoluteIP@GT_EXEHeader@@QBEJXZ 0041a840 f   lib_data:gt_exe_header.obj
 0001:00019870       ?GetOverlaySize@GT_EXEHeader@@QBEJXZ 0041a870 f   lib_data:gt_exe_header.obj
 0001:000198b0       ?GT_CheckForFixedName@@YIHPBDAAVADLP_String@@@Z 0041a8b0 f   lib_data:gt_fixedname.obj
 0001:00019aa0       ?GT_CheckForFixedExtension@@YIHPBDAAVADLP_String@@@Z 0041aaa0 f   lib_data:gt_fixedname.obj
 0001:00019c90       ?GT_CheckForRegistryExtension@@YIHPBDAAVADLP_String@@@Z 0041ac90 f   lib_data:gt_fixedname.obj
 0001:00019ea0       ??0GT_Compare@@QAE@PAEEHPAVGT_FileBuffer@@P6IXPAU_EXEEntry@@01@Z@Z 0041aea0 f   lib_data:gt_compare.obj
 0001:00019ed0       ?ExplicitMatches@GT_Compare@@QAE?AW4GT_CompareError@@PAEH@Z 0041aed0 f   lib_data:gt_compare.obj
 0001:00019f40       ?Matches@GT_Compare@@QAE?AW4GT_CompareError@@PAU_EXEEntry@@@Z 0041af40 f   lib_data:gt_compare.obj
 0001:0001a020       ?GetMacroPos@GT_MacroManager@@QAEHAAJPBDH@Z 0041b020 f   lib_data:gt_macromanager.obj
 0001:0001a270       ?GetLongCallPos@GT_MacroManager@@QAEHAAJJ@Z 0041b270 f   lib_data:gt_macromanager.obj
 0001:0001a2d0       ?GetJumpPos@GT_MacroManager@@QAEHAAJH@Z 0041b2d0 f   lib_data:gt_macromanager.obj
 0001:0001a430       ?Get32BitJumpPos@GT_MacroManager@@QAEHAAJH@Z 0041b430 f   lib_data:gt_macromanager.obj
 0001:0001a4a0       ?Get32BitRVAJumpPos@GT_MacroManager@@QAEHAAJH@Z 0041b4a0 f   lib_data:gt_macromanager.obj
 0001:0001a530       ?GetMOVJumpPos@GT_MacroManager@@QAEHAAJH@Z 0041b530 f   lib_data:gt_macromanager.obj
 0001:0001a590       ??0GT_EXE_LE_ObjectTableHandler@@QAE@PAVGT_FileBuffer@@PAU_GT_EXE_LE_Header@@@Z 0041b590 f   lib_data:gt_exe_le.obj
 0001:0001a5c0       ??_GGT_EXE_LE_ObjectTableHandler@@UAEPAXI@Z 0041b5c0 f i lib_data:gt_exe_le.obj
 0001:0001a5c0       ??_EGT_EXE_LE_ObjectTableHandler@@UAEPAXI@Z 0041b5c0 f i lib_data:gt_exe_le.obj
 0001:0001a600       ??1GT_EXE_LE_ObjectTableHandler@@UAE@XZ 0041b600 f   lib_data:gt_exe_le.obj
 0001:0001a620       ?Init@GT_EXE_LE_ObjectTableHandler@@QAEXJ@Z 0041b620 f   lib_data:gt_exe_le.obj
 0001:0001a670       ?GetObj@GT_EXE_LE_ObjectTableHandler@@QBEPAU_GT_EXE_LE_Object@@H@Z 0041b670 f   lib_data:gt_exe_le.obj
 0001:0001a690       ?GetRealAddrOfObject@GT_EXE_LE_ObjectTableHandler@@QBEJH@Z 0041b690 f   lib_data:gt_exe_le.obj
 0001:0001a6c0       ?GetSizeOfObject@GT_EXE_LE_ObjectTableHandler@@QBEJH@Z 0041b6c0 f   lib_data:gt_exe_le.obj
 0001:0001a720       ?GetRealEndAddrOfObject@GT_EXE_LE_ObjectTableHandler@@QBEJH@Z 0041b720 f   lib_data:gt_exe_le.obj
 0001:0001a790       ?GetEXESize@GT_EXE_LE_ObjectTableHandler@@QBEJXZ 0041b790 f   lib_data:gt_exe_le.obj
 0001:0001a820       ?GetEntryPoint@GT_EXE_LE_ObjectTableHandler@@QBEJXZ 0041b820 f   lib_data:gt_exe_le.obj
 0001:0001a860       ?GetEntryPointBaseAddr@GT_EXE_LE_ObjectTableHandler@@QBEJXZ 0041b860 f   lib_data:gt_exe_le.obj
 0001:0001a880       ??0GT_EXE_LE_HeaderHandler@@QAE@PAVGT_FileBuffer@@J@Z 0041b880 f   lib_data:gt_exe_le.obj
 0001:0001a910       ?Execute@GT_EXE_LE_Lister@@QAEXXZ 0041b910 f   lib_data:gt_exe_le.obj
 0001:0001ac80       ??_EGT_TableField@@QAEPAXI@Z 0041bc80 f i lib_data:gt_exe_pe.obj
 0001:0001ace0       ??1GT_TableField@@QAE@XZ   0041bce0 f i lib_data:gt_exe_pe.obj
 0001:0001ad10       ??_EGT_TableColumn@@UAEPAXI@Z 0041bd10 f i lib_data:gt_exe_pe.obj
 0001:0001ad70       ??1GT_TableColumn@@UAE@XZ  0041bd70 f i lib_data:gt_exe_pe.obj
 0001:0001ae00       ??0GT_EXE_PE_BasicAnalyzer@@QAE@PAVGT_FileBuffer@@PAVGT_EXE_PE_SectionTableAnalyzer@@J@Z 0041be00 f   lib_data:gt_exe_pe.obj
 0001:0001ae30       ?List@GT_EXE_PE_ExportAnalyzer@@UAEXXZ 0041be30 f   lib_data:gt_exe_pe.obj
 0001:0001b180       ??0GT_TableColumn@@QAE@XZ  0041c180 f i lib_data:gt_exe_pe.obj
 0001:0001b1c0       ?Init@GT_TableColumn@@QAEXIIHW4GT_TableColumnType@@PBD@Z 0041c1c0 f i lib_data:gt_exe_pe.obj
 0001:0001b290       ??0GT_TableField@@QAE@XZ   0041c290 f i lib_data:gt_exe_pe.obj
 0001:0001b2b0       ??1GT_Table@@UAE@XZ        0041c2b0 f i lib_data:gt_exe_pe.obj
 0001:0001b2d0       ??_EGT_Table@@UAEPAXI@Z    0041c2d0 f i lib_data:gt_exe_pe.obj
 0001:0001b2d0       ??_GGT_Table@@UAEPAXI@Z    0041c2d0 f i lib_data:gt_exe_pe.obj
 0001:0001b300       ?_ListLookupTable@GT_EXE_PE_ImportAnalyzer@@AAEXJ@Z 0041c300 f   lib_data:gt_exe_pe.obj
 0001:0001b3e0       ?List@GT_EXE_PE_ImportAnalyzer@@UAEXXZ 0041c3e0 f   lib_data:gt_exe_pe.obj
 0001:0001b500       ?_ListVersionInfo@GT_EXE_PE_ResourceAnalyzer@@AAEXPAE@Z 0041c500 f   lib_data:gt_exe_pe.obj
 0001:0001b770       ?_ListTable@GT_EXE_PE_ResourceAnalyzer@@AAEXJ@Z 0041c770 f   lib_data:gt_exe_pe.obj
 0001:0001b820       ?_ListEntry@GT_EXE_PE_ResourceAnalyzer@@AAEXJ@Z 0041c820 f   lib_data:gt_exe_pe.obj
 0001:0001ba90       ?List@GT_EXE_PE_ResourceAnalyzer@@UAEXXZ 0041ca90 f   lib_data:gt_exe_pe.obj
 0001:0001bb60       ??0GT_EXE_PE_DataDirectoryHandler@@QAE@PAVGT_FileBuffer@@PAVGT_EXE_PE_SectionTableAnalyzer@@HJ@Z 0041cb60 f   lib_data:gt_exe_pe.obj
 0001:0001bbd0       ??_EGT_EXE_PE_DataDirectoryHandler@@UAEPAXI@Z 0041cbd0 f i lib_data:gt_exe_pe.obj
 0001:0001bbd0       ??_GGT_EXE_PE_DataDirectoryHandler@@UAEPAXI@Z 0041cbd0 f i lib_data:gt_exe_pe.obj
 0001:0001bc10       ?ShowEntry@GT_EXE_PE_DataDirectoryHandler@@QAEXH@Z 0041cc10 f   lib_data:gt_exe_pe.obj
 0001:0001bc60       ?GetEntry@GT_EXE_PE_DataDirectoryHandler@@QAEPAU_GT_EXE_PE_ImageDataDirectory@@H@Z 0041cc60 f   lib_data:gt_exe_pe.obj
 0001:0001bc80       ?GetNumberOfUsedEntries@GT_EXE_PE_DataDirectoryHandler@@QBEHXZ 0041cc80 f   lib_data:gt_exe_pe.obj
 0001:0001bca0       ??0GT_EXE_PE_Lister@@QAE@JPAVGT_FileBuffer@@@Z 0041cca0 f   lib_data:gt_exe_pe.obj
 0001:0001bcc0       ?CheckDataDirectory@GT_EXE_PE_Lister@@AAEXPAVGT_EXE_PE_SectionTableAnalyzer@@@Z 0041ccc0 f   lib_data:gt_exe_pe.obj
 0001:0001bf10       ??1GT_EXE_PE_DataDirectoryHandler@@UAE@XZ 0041cf10 f i lib_data:gt_exe_pe.obj
 0001:0001bf30       ?Execute@GT_EXE_PE_Lister@@QAEXXZ 0041cf30 f   lib_data:gt_exe_pe.obj
 0001:0001c8b0       ?Check_PE_0J@GT_EXE_PE_Lister@@AAEHJ@Z 0041d8b0 f   lib_data:gt_exe_pe.obj
 0001:0001c940       ?Check_EXT_PE@GT_EXE_PE_Lister@@AAEHJPAVGT_EXE_PE_SectionTableAnalyzer@@@Z 0041d940 f   lib_data:gt_exe_pe.obj
 0001:0001ca10       ?CheckForCode@GT_EXE_PE_Lister@@AAEXJPAVGT_EXE_PE_SectionTableAnalyzer@@@Z 0041da10 f   lib_data:gt_exe_pe.obj
 0001:0001cd30       ?Check_NE_0J@GT_EXE_NE_Lister@@AAEHJ@Z 0041dd30 f   lib_data:gt_exe_ne.obj
 0001:0001cdb0       ?Execute@GT_EXE_NE_Lister@@QAEXXZ 0041ddb0 f   lib_data:gt_exe_ne.obj
 0001:0001d5a0       ??0GT_EXE_NE_HeaderHdl@@QAE@JPAVGT_FileBuffer@@H@Z 0041e5a0 f   lib_data:gt_exe_ne_header.obj
 0001:0001d5d0       ?_Init@GT_EXE_PE_SectionTableAnalyzer@@AAEXJ@Z 0041e5d0 f   lib_data:gt_exe_pe_sectiontablehdl.obj
 0001:0001d630       ??0GT_EXE_PE_SectionTableAnalyzer@@QAE@PAVGT_FileBuffer@@PAU_GT_EXE_PE_ImageFileHeader@@J@Z 0041e630 f   lib_data:gt_exe_pe_sectiontablehdl.obj
 0001:0001d6d0       ??_GGT_EXE_PE_SectionTableAnalyzer@@UAEPAXI@Z 0041e6d0 f i lib_data:gt_exe_pe_sectiontablehdl.obj
 0001:0001d6d0       ??_EGT_EXE_PE_SectionTableAnalyzer@@UAEPAXI@Z 0041e6d0 f i lib_data:gt_exe_pe_sectiontablehdl.obj
 0001:0001d710       ??0GT_EXE_PE_SectionTableAnalyzer@@QAE@PAVGT_FileBuffer@@JJ@Z 0041e710 f   lib_data:gt_exe_pe_sectiontablehdl.obj
 0001:0001d790       ??1GT_EXE_PE_SectionTableAnalyzer@@UAE@XZ 0041e790 f   lib_data:gt_exe_pe_sectiontablehdl.obj
 0001:0001d7b0       ?GetEXESize@GT_EXE_PE_SectionTableAnalyzer@@QBEJXZ 0041e7b0 f   lib_data:gt_exe_pe_sectiontablehdl.obj
 0001:0001d7e0       ?GetSectionName@GT_EXE_PE_SectionTableAnalyzer@@QBEPBDHH@Z 0041e7e0 f   lib_data:gt_exe_pe_sectiontablehdl.obj
 0001:0001d860       ?GetSectionName@GT_EXE_PE_SectionTableAnalyzer@@QBEPBDPBU_GT_EXE_PE_Section@@H@Z 0041e860 f   lib_data:gt_exe_pe_sectiontablehdl.obj
 0001:0001d8e0       ?GetSectionOfName@GT_EXE_PE_SectionTableAnalyzer@@QBEPAU_GT_EXE_PE_Section@@PBD@Z 0041e8e0 f   lib_data:gt_exe_pe_sectiontablehdl.obj
 0001:0001d960       ?GetSectionNameOfRVA@GT_EXE_PE_SectionTableAnalyzer@@QBEPBDJ@Z 0041e960 f   lib_data:gt_exe_pe_sectiontablehdl.obj
 0001:0001d9d0       ?GetSectionOfRVA@GT_EXE_PE_SectionTableAnalyzer@@QBEPAU_GT_EXE_PE_Section@@J@Z 0041e9d0 f   lib_data:gt_exe_pe_sectiontablehdl.obj
 0001:0001da10       ?GetSectionOfPhysicalOffset@GT_EXE_PE_SectionTableAnalyzer@@QBEPAU_GT_EXE_PE_Section@@J@Z 0041ea10 f   lib_data:gt_exe_pe_sectiontablehdl.obj
 0001:0001da50       ?r2o@GT_EXE_PE_SectionTableAnalyzer@@QBEJJ@Z 0041ea50 f   lib_data:gt_exe_pe_sectiontablehdl.obj
 0001:0001daa0       ?o2r@GT_EXE_PE_SectionTableAnalyzer@@QBEJJ@Z 0041eaa0 f   lib_data:gt_exe_pe_sectiontablehdl.obj
 0001:0001daf0       ??0GT_EXE_NE_SegmentHandler@@QAE@PAVGT_FileBuffer@@PAVGT_EXE_NE_HeaderHdl@@@Z 0041eaf0 f   lib_data:gt_exe_ne_segmenthdl.obj
 0001:0001dba0       ??_GGT_EXE_NE_SegmentHandler@@UAEPAXI@Z 0041eba0 f i lib_data:gt_exe_ne_segmenthdl.obj
 0001:0001dba0       ??_EGT_EXE_NE_SegmentHandler@@UAEPAXI@Z 0041eba0 f i lib_data:gt_exe_ne_segmenthdl.obj
 0001:0001dbe0       ??1GT_EXE_NE_SegmentHandler@@UAE@XZ 0041ebe0 f   lib_data:gt_exe_ne_segmenthdl.obj
 0001:0001dc00       ?GetEndPos@GT_EXE_NE_SegmentHandler@@QBEJH@Z 0041ec00 f   lib_data:gt_exe_ne_segmenthdl.obj
 0001:0001dc60       ?GetLength@GT_EXE_NE_SegmentHandler@@QBEJH@Z 0041ec60 f   lib_data:gt_exe_ne_segmenthdl.obj
 0001:0001dc90       ?GetStartPos@GT_EXE_NE_SegmentHandler@@QBEJH@Z 0041ec90 f   lib_data:gt_exe_ne_segmenthdl.obj
 0001:0001dcb0       ?GetAllocSize@GT_EXE_NE_SegmentHandler@@QBEJH@Z 0041ecb0 f   lib_data:gt_exe_ne_segmenthdl.obj
 0001:0001dcd0       ?GetEntryPoint@GT_EXE_NE_SegmentHandler@@QBEJXZ 0041ecd0 f   lib_data:gt_exe_ne_segmenthdl.obj
 0001:0001dd40       ?GetCalculatedFileSize@GT_EXE_NE_SegmentHandler@@QBEJXZ 0041ed40 f   lib_data:gt_exe_ne_segmenthdl.obj
 0001:0001dda0       ?GetType@GT_EXE_NE_SegmentHandler@@QBEPBDH@Z 0041eda0 f   lib_data:gt_exe_ne_segmenthdl.obj
 0001:0001ddc0       ??0GT_ArchiveAnalyzer@@QAE@PAVGT_FileBuffer@@@Z 0041edc0 f   lib_archive:gt_archiver.obj
 0001:0001de30       ?IsHAArchive@GT_ArchiveAnalyzer@@ABEHH@Z 0041ee30 f   lib_archive:gt_archiver.obj
 0001:0001dfb0       ?GetPacker@GT_ArchiveAnalyzer@@AAEXH@Z 0041efb0 f   lib_archive:gt_archiver.obj
 0001:0001e8f0       ?ListArchiveName@GT_ArchiveAnalyzer@@QBEXXZ 0041f8f0 f   lib_archive:gt_archiver.obj
 0001:0001e940       ?ListArchive@GT_ArchiveAnalyzer@@QAEHXZ 0041f940 f   lib_archive:gt_archiver.obj
 0001:0001f400       ?CheckForOverlay@GT_ArchiveAnalyzer@@QBEXXZ 00420400 f   lib_archive:gt_archiver.obj
 0001:0001f410       ??0GT_BasicArchiveLister@@QAE@PAVGT_FileBuffer@@H@Z 00420410 f   lib_archive:gt_archiver.obj
 0001:0001f450       ?ShowHeader@GT_BasicArchiveLister@@UAEXXZ 00420450 f   lib_archive:gt_archiver.obj
 0001:0001f4a0       ?ShowFile@GT_BasicArchiveLister@@UAEXJJNPBDHW4PDateTimeType@@H@Z 004204a0 f   lib_archive:gt_archiver.obj
 0001:0001f610       ?ShowOverall@GT_BasicArchiveLister@@UAEXXZ 00420610 f   lib_archive:gt_archiver.obj
 0001:0001f720       ?ListFiles@GT_BasicArchiveLister@@UAEXXZ 00420720 f   lib_archive:gt_archiver.obj
 0001:0001f730       ?ListFiles@GT_777ArchiveLister@@UAEXXZ 00420730 f   lib_archive:gt_archiver.obj
 0001:0001f940       ?ListFiles@GT_ACEArchiveLister@@UAEXXZ 00420940 f   lib_archive:gt_archiver.obj
 0001:0001fb30       ?ListFiles@GT_AINArchiveLister@@UAEXXZ 00420b30 f   lib_archive:gt_archiver.obj
 0001:0001fba0       ?ListFiles@GT_AKT7ArchiveLister@@UAEXXZ 00420ba0 f   lib_archive:gt_archiver.obj
 0001:0001fdc0       ?ListFiles@GT_AKT9ArchiveLister@@UAEXXZ 00420dc0 f   lib_archive:gt_archiver.obj
 0001:0001ff80       ?ListFiles@GT_AMGArchiveLister@@UAEXXZ 00420f80 f   lib_archive:gt_archiver.obj
 0001:00020140       ?ListFiles@GT_ARCArchiveLister@@UAEXXZ 00421140 f   lib_archive:gt_archiver.obj
 0001:00020220       ?ListFiles@GT_ARGArchiveLister@@UAEXXZ 00421220 f   lib_archive:gt_archiver.obj
 0001:000202a0       ?ListFiles@GT_ARJArchiveLister@@UAEXXZ 004212a0 f   lib_archive:gt_archiver.obj
 0001:00020660       ?ListFiles@GT_ARQArchiveLister@@UAEXXZ 00421660 f   lib_archive:gt_archiver.obj
 0001:000207a0       ?ListFiles@GT_ARXArchiveLister@@UAEXXZ 004217a0 f   lib_archive:gt_archiver.obj
 0001:000208a0       ?ListFiles@GT_ASDArchiveLister@@UAEXXZ 004218a0 f   lib_archive:gt_archiver.obj
 0001:00020990       ?ListFiles@GT_BLIArchiveLister@@UAEXXZ 00421990 f   lib_archive:gt_archiver.obj
 0001:00020b60       ?ListFiles@GT_CABArchiveLister@@UAEXXZ 00421b60 f   lib_archive:gt_archiver.obj
 0001:00020c80       ?ListFiles@GT_DPAArchiveLister@@UAEXXZ 00421c80 f   lib_archive:gt_archiver.obj
 0001:00020d50       ?ListFiles@GT_GZArchiveLister@@UAEXXZ 00421d50 f   lib_archive:gt_archiver.obj
 0001:00020e60       ?ListFiles@GT_HAArchiveLister@@UAEXXZ 00421e60 f   lib_archive:gt_archiver.obj
 0001:00020fe0       ?ListFiles@GT_IDSKAArchiveLister@@UAEXXZ 00421fe0 f   lib_archive:gt_archiver.obj
 0001:00021030       ??0GT_IMPArchiveLister@@QAE@PAVGT_FileBuffer@@H@Z 00422030 f   lib_archive:gt_archiver.obj
 0001:000210d0       ?CalcCRC32@GT_IMPArchiveLister@@IAEKPAXKK@Z 004220d0 f   lib_archive:gt_archiver.obj
 0001:00021110       ?InitBits@GT_IMPArchiveLister@@IAEXXZ 00422110 f   lib_archive:gt_archiver.obj
 0001:00021120       ?GetBits@GT_IMPArchiveLister@@IAEKH@Z 00422120 f   lib_archive:gt_archiver.obj
 0001:00021190       ?DelBits@GT_IMPArchiveLister@@IAEXH@Z 00422190 f   lib_archive:gt_archiver.obj
 0001:000211c0       ?load_fixed_codes@GT_IMPArchiveLister@@IAEXPAEJ@Z 004221c0 f   lib_archive:gt_archiver.obj
 0001:000212c0       ?make_codes@GT_IMPArchiveLister@@IAEXPAKPAEH@Z 004222c0 f   lib_archive:gt_archiver.obj
 0001:00021360       ?make_decode_tables@GT_IMPArchiveLister@@IAEHPAHQAY01HPAKPAEHH@Z 00422360 f   lib_archive:gt_archiver.obj
 0001:000214d0       ?load_hcodes@GT_IMPArchiveLister@@IAEHPAEHHJ@Z 004224d0 f   lib_archive:gt_archiver.obj
 0001:00021860       ?expand_lz@GT_IMPArchiveLister@@IAEHPAEHH@Z 00422860 f   lib_archive:gt_archiver.obj
 0001:00022200       ?ListFiles@GT_IMPArchiveLister@@UAEXXZ 00423200 f   lib_archive:gt_archiver.obj
 0001:00022670       ?ListFiles@GT_INSArchiveLister@@UAEXXZ 00423670 f   lib_archive:gt_archiver.obj
 0001:00022810       ?ListFiles@GT_ISCArchiveLister@@UAEXXZ 00423810 f   lib_archive:gt_archiver.obj
 0001:00022ab0       ?ListFiles@GT_LGArchiveLister@@UAEXXZ 00423ab0 f   lib_archive:gt_archiver.obj
 0001:00022c30       ?ListFiles@GT_LZHArchiveLister@@UAEXXZ 00423c30 f   lib_archive:gt_archiver.obj
 0001:00023220       ?ListFiles@GT_LZOArchiveLister@@UAEXXZ 00424220 f   lib_archive:gt_archiver.obj
 0001:00023350       ?ListFiles@GT_NEROArchiveLister@@UAEXXZ 00424350 f   lib_archive:gt_archiver.obj
 0001:00023400       ?ListFiles@GT_PAQArchiveLister@@UAEXXZ 00424400 f   lib_archive:gt_archiver.obj
 0001:00023500       ?ListFiles@GT_PPZArchiveLister@@UAEXXZ 00424500 f   lib_archive:gt_archiver.obj
 0001:000235b0       ?ListFiles@GT_RARArchiveLister@@UAEXXZ 004245b0 f   lib_archive:gt_archiver.obj
 0001:00023830       ?ListFiles@GT_SBCArchiveLister@@UAEXXZ 00424830 f   lib_archive:gt_archiver.obj
 0001:000238d0       ?ListFiles@GT_STIArchiveLister@@UAEXXZ 004248d0 f   lib_archive:gt_archiver.obj
 0001:00023be0       ?ListFiles@GT_SYNArchiveLister@@UAEXXZ 00424be0 f   lib_archive:gt_archiver.obj
 0001:00023c90       ?ListFiles@GT_TARArchiveLister@@UAEXXZ 00424c90 f   lib_archive:gt_archiver.obj
 0001:00023d90       ?ListFiles@GT_YCArchiveLister@@UAEXXZ 00424d90 f   lib_archive:gt_archiver.obj
 0001:00023ef0       ?ListFiles@GT_ZETArchiveLister@@UAEXXZ 00424ef0 f   lib_archive:gt_archiver.obj
 0001:00024160       ?ListFiles@GT_ZIPArchiveLister@@UAEXXZ 00425160 f   lib_archive:gt_archiver.obj
 0001:000243e0       ?ListFiles@GT_ZOOArchiveLister@@UAEXXZ 004253e0 f   lib_archive:gt_archiver.obj
 0001:00024540       ??1?$GT_Sequence@VADLP_String@@@@UAE@XZ 00425540 f i lib_archive:gt_archiver.obj
 0001:00024590       ??_E?$GT_Sequence@VADLP_String@@@@UAEPAXI@Z 00425590 f i lib_archive:gt_archiver.obj
 0001:00024590       ??_G?$GT_Sequence@VADLP_String@@@@UAEPAXI@Z 00425590 f i lib_archive:gt_archiver.obj
 0001:000245f0       ?addLast@?$GT_Sequence@VADLP_String@@@@QAEXABVADLP_String@@@Z 004255f0 f i lib_archive:gt_archiver.obj
 0001:00024690       ??0?$GT_Entry@VADLP_String@@@@QAE@PAV0@ABVADLP_String@@0@Z 00425690 f i lib_archive:gt_archiver.obj
 0001:00024720       ??1?$GT_Entry@VADLP_String@@@@QAE@XZ 00425720 f i lib_archive:gt_archiver.obj
 0001:00024750       _HeapFree@12               00425750 f   kernel32:KERNEL32.dll
 0001:00024756       _RtlUnwind@16              00425756 f   kernel32:KERNEL32.dll
 0001:0002475c       _HeapAlloc@12              0042575c f   kernel32:KERNEL32.dll
 0001:00024762       _HeapReAlloc@16            00425762 f   kernel32:KERNEL32.dll
 0001:00024768       _ReadConsoleInputA@16      00425768 f   kernel32:KERNEL32.dll
 0001:0002476e       _SetConsoleMode@8          0042576e f   kernel32:KERNEL32.dll
 0001:00024774       _GetConsoleMode@8          00425774 f   kernel32:KERNEL32.dll
 0001:0002477a       _PeekConsoleInputA@16      0042577a f   kernel32:KERNEL32.dll
 0001:00024780       _GetNumberOfConsoleInputEvents@8 00425780 f   kernel32:KERNEL32.dll
 0001:00024786       _GetCommandLineA@0         00425786 f   kernel32:KERNEL32.dll
 0001:0002478c       _GetVersion@0              0042578c f   kernel32:KERNEL32.dll
 0001:00024792       _ExitProcess@4             00425792 f   kernel32:KERNEL32.dll
 0001:00024798       _TerminateProcess@8        00425798 f   kernel32:KERNEL32.dll
 0001:0002479e       _HeapSize@12               0042579e f   kernel32:KERNEL32.dll
 0001:000247a4       _GetEnvironmentVariableA@12 004257a4 f   kernel32:KERNEL32.dll
 0001:000247aa       _GetVersionExA@4           004257aa f   kernel32:KERNEL32.dll
 0001:000247b0       _HeapDestroy@4             004257b0 f   kernel32:KERNEL32.dll
 0001:000247b6       _HeapCreate@12             004257b6 f   kernel32:KERNEL32.dll
 0001:000247bc       _VirtualFree@12            004257bc f   kernel32:KERNEL32.dll
 0001:000247c2       _VirtualAlloc@16           004257c2 f   kernel32:KERNEL32.dll
 0001:000247c8       _SetHandleCount@4          004257c8 f   kernel32:KERNEL32.dll
 0001:000247ce       _GetStdHandle@4            004257ce f   kernel32:KERNEL32.dll
 0001:000247d4       _GetFileType@4             004257d4 f   kernel32:KERNEL32.dll
 0001:000247da       _GetStartupInfoA@4         004257da f   kernel32:KERNEL32.dll
 0001:000247e0       _WriteConsoleA@20          004257e0 f   kernel32:KERNEL32.dll
 0001:000247e6       _UnhandledExceptionFilter@4 004257e6 f   kernel32:KERNEL32.dll
 0001:000247ec       _FreeEnvironmentStringsA@4 004257ec f   kernel32:KERNEL32.dll
 0001:000247f2       _FreeEnvironmentStringsW@4 004257f2 f   kernel32:KERNEL32.dll
 0001:000247f8       _WideCharToMultiByte@32    004257f8 f   kernel32:KERNEL32.dll
 0001:000247fe       _GetEnvironmentStrings@0   004257fe f   kernel32:KERNEL32.dll
 0001:00024804       _GetEnvironmentStringsW@0  00425804 f   kernel32:KERNEL32.dll
 0001:0002480a       _GetLastError@0            0042580a f   kernel32:KERNEL32.dll
 0001:00024810       _FlushFileBuffers@4        00425810 f   kernel32:KERNEL32.dll
 0001:00024816       _IsBadReadPtr@8            00425816 f   kernel32:KERNEL32.dll
 0001:0002481c       _IsBadCodePtr@4            0042581c f   kernel32:KERNEL32.dll
 0001:00024822       _GetCPInfo@8               00425822 f   kernel32:KERNEL32.dll
 0001:00024828       _GetACP@0                  00425828 f   kernel32:KERNEL32.dll
 0001:0002482e       _GetOEMCP@0                0042582e f   kernel32:KERNEL32.dll
 0001:00024834       _SetStdHandle@8            00425834 f   kernel32:KERNEL32.dll
 0001:0002483a       _MultiByteToWideChar@24    0042583a f   kernel32:KERNEL32.dll
 0001:00024840       _GetStringTypeA@20         00425840 f   kernel32:KERNEL32.dll
 0001:00024846       _GetStringTypeW@16         00425846 f   kernel32:KERNEL32.dll
 0001:0002484c       _LCMapStringA@24           0042584c f   kernel32:KERNEL32.dll
 0001:00024852       _LCMapStringW@24           00425852 f   kernel32:KERNEL32.dll
 0001:00024858       _SetConsoleTextAttribute@8 00425858 f   kernel32:KERNEL32.dll
 0001:0002485e       _GetConsoleScreenBufferInfo@8 0042585e f   kernel32:KERNEL32.dll
 0001:00024864       _LocalFree@4               00425864 f   kernel32:KERNEL32.dll
 0001:0002486a       _FindClose@4               0042586a f   kernel32:KERNEL32.dll
 0001:00024870       _FindFirstFileA@8          00425870 f   kernel32:KERNEL32.dll
 0001:00024876       _FindNextFileA@8           00425876 f   kernel32:KERNEL32.dll
 0001:0002487c       _GetFileAttributesA@4      0042587c f   kernel32:KERNEL32.dll
 0001:00024882       _GetFileSize@8             00425882 f   kernel32:KERNEL32.dll
 0001:00024888       _ReadFile@20               00425888 f   kernel32:KERNEL32.dll
 0001:0002488e       _GetConsoleTitleA@8        0042588e f   kernel32:KERNEL32.dll
 0001:00024894       _SetConsoleTitleA@4        00425894 f   kernel32:KERNEL32.dll
 0001:0002489a       __strdup                   0042589a f   libc:strdup.obj
 0001:0002489a       _strdup                    0042589a f   libc:strdup.obj
 0001:000248c5       _clock                     004258c5 f   libc:clock.obj
 0001:00024908       ___inittime                00425908 f   libc:clock.obj
 0001:0002493d       _vfprintf                  0042593d f   libc:vfprintf.obj
 0001:0002496e       __itoa                     0042596e f   libc:xtoa.obj
 0001:000249f7       __ltoa                     004259f7 f   libc:xtoa.obj
 0001:00024a21       __ultoa                    00425a21 f   libc:xtoa.obj
 0001:00024a3c       __i64toa                   00425a3c f   libc:xtoa.obj
 0001:00024af3       __ui64toa                  00425af3 f   libc:xtoa.obj
 0001:00024b0e       _fputs                     00425b0e f   libc:fputs.obj
 0001:00024b51       _vsprintf                  00425b51 f   libc:vsprintf.obj
 0001:00024ba2       __fsopen                   00425ba2 f   libc:fopen.obj
 0001:00024bc2       _fopen                     00425bc2 f   libc:fopen.obj
 0001:00024bd5       _fgets                     00425bd5 f   libc:fgets.obj
 0001:00024c2c       ??1type_info@@UAE@XZ       00425c2c f   libc:typinfo.obj
 0001:00024c41       ??_Gtype_info@@UAEPAXI@Z   00425c41 f i libc:typinfo.obj
 0001:00024c41       ??_Etype_info@@UAEPAXI@Z   00425c41 f i libc:typinfo.obj
 0001:00024c5d       ??8type_info@@QBEHABV0@@Z  00425c5d f   libc:typinfo.obj
 0001:00024c78       ??9type_info@@QBEHABV0@@Z  00425c78 f   libc:typinfo.obj
 0001:00024c94       ?before@type_info@@QBEHABV1@@Z 00425c94 f   libc:typinfo.obj
 0001:00024cb3       ?raw_name@type_info@@QBEPBDXZ 00425cb3 f   libc:typinfo.obj
 0001:00024cb7       ??0type_info@@AAE@ABV0@@Z  00425cb7 f   libc:typinfo.obj
 0001:00024cc2       ??4type_info@@AAEAAV0@ABV0@@Z 00425cc2 f   libc:typinfo.obj
 0001:00024cc7       __CxxThrowException@8      00425cc7 f   libc:throw.obj
 0001:00024d10       _strnicmp                  00425d10 f   libc:strnicmp.obj
 0001:00024d10       __strnicmp                 00425d10 f   libc:strnicmp.obj
 0001:00024dc0       __ftol                     00425dc0 f   libc:ftol.obj
 0001:00024df0       __stricmp                  00425df0 f   libc:stricmp.obj
 0001:00024df0       __strcmpi                  00425df0 f   libc:stricmp.obj
 0001:00024df0       _stricmp                   00425df0 f   libc:stricmp.obj
 0001:00024e7c       _atol                      00425e7c f   libc:atox.obj
 0001:00024f07       _atoi                      00425f07 f   libc:atox.obj
 0001:00024f12       __atoi64                   00425f12 f   libc:atox.obj
 0001:00024fcc       ??_M@YGXPAXIHP6EX0@Z@Z     00425fcc f   libc:ehvecdtr.obj
 0001:0002504c       ?__ArrayUnwind@@YGXPAXIHP6EX0@Z@Z 0042604c f   libc:ehvecdtr.obj
 0001:000250c0       __purecall                 004260c0 f   libc:purevirt.obj
 0001:000250c9       ??_L@YGXPAXIHP6EX0@Z1@Z    004260c9 f   libc:ehvecctr.obj
 0001:00025150       __allmul                   00426150 f   libc:llmul.obj
 0001:00025184       _fwrite                    00426184 f   libc:fwrite.obj
 0001:0002528e       __openfile                 0042628e f   libc:_open.obj
 0001:000253fe       __getstream                004263fe f   libc:stream.obj
 0001:00025476       __filbuf                   00426476 f   libc:_filbuf.obj
 0001:0002554f       __open                     0042654f f   libc:open.obj
 0001:00025566       __sopen                    00426566 f   libc:open.obj
 0001:0002581f       __read                     0042681f f   libc:read.obj
 0001:00025a15       __chsize                   00426a15 f   libc:chsize.obj
 0001:00025b5b       __setmode                  00426b5b f   libc:setmode.obj
 0001:00025be0       _GT_C2E_Index              00426be0 f   gtdata:gtdata.dll
 0001:00025be6       _GT_C2E_Count              00426be6 f   gtdata:gtdata.dll
 0001:00025bec       _GT_EXE_0J_Index           00426bec f   gtdata:gtdata.dll
 0001:00025bf2       _GT_EXE_0J_Count           00426bf2 f   gtdata:gtdata.dll
 0001:00025bf8       _GT_EXE_1J_Index           00426bf8 f   gtdata:gtdata.dll
 0001:00025bfe       _GT_EXE_1J_Count           00426bfe f   gtdata:gtdata.dll
 0001:00025c04       _GT_EXE_2J_Index           00426c04 f   gtdata:gtdata.dll
 0001:00025c0a       _GT_EXE_2J_Count           00426c0a f   gtdata:gtdata.dll
 0001:00025c10       _GT_EXE_1LJ_Index          00426c10 f   gtdata:gtdata.dll
 0001:00025c16       _GT_EXE_1LJ_Count          00426c16 f   gtdata:gtdata.dll
 0001:00025c1c       _GT_EXT_EXE_Index          00426c1c f   gtdata:gtdata.dll
 0001:00025c22       _GT_EXT_EXE_Count          00426c22 f   gtdata:gtdata.dll
 0001:00025c28       _GT_SYS_Index              00426c28 f   gtdata:gtdata.dll
 0001:00025c2e       _GT_SYS_Count              00426c2e f   gtdata:gtdata.dll
 0001:00025c34       _GT_FixedName_Index        00426c34 f   gtdata:gtdata.dll
 0001:00025c3a       _GT_FixedName_Count        00426c3a f   gtdata:gtdata.dll
 0001:00025c40       _GT_FixedExtension_Index   00426c40 f   gtdata:gtdata.dll
 0001:00025c46       _GT_FixedExtension_Count   00426c46 f   gtdata:gtdata.dll
 0001:00025c4c       _GT_PE_0J_Index            00426c4c f   gtdata:gtdata.dll
 0001:00025c52       _GT_PE_0J_Count            00426c52 f   gtdata:gtdata.dll
 0001:00025c58       _GT_EXT_PE_Index           00426c58 f   gtdata:gtdata.dll
 0001:00025c5e       _GT_EXT_PE_Count           00426c5e f   gtdata:gtdata.dll
 0001:00025c64       _GT_NE_0J_Index            00426c64 f   gtdata:gtdata.dll
 0001:00025c6a       _GT_NE_0J_Count            00426c6a f   gtdata:gtdata.dll
 0001:00025c70       ?p_StrOct2Dec@@YGJPADH@Z   00426c70 f   plib:pheader.obj
 0001:00025d20       ?p_Align@@YGXAAJH@Z        00426d20 f   plib:pheader.obj
 0001:00025d40       ?p_ToLower@@YGDD@Z         00426d40 f   plib:pheader.obj
 0001:00025d60       ?p_ToUpper@@YGDD@Z         00426d60 f   plib:pheader.obj
 0001:00025d80       ?p_HexToLong@@YGJPBD@Z     00426d80 f   plib:pheader.obj
 0001:00025f70       ?p_atol@@YGJPBD@Z          00426f70 f   plib:pheader.obj
 0001:00025fa0       ?p_long2str@@YGPBDJ@Z      00426fa0 f   plib:pheader.obj
 0001:00025fc0       ?p_unicode2ansi@@YGXPBDPADH@Z 00426fc0 f   plib:pheader.obj
 0001:00026000       ?p_LongSwapByte@@YGKK@Z    00427000 f   plib:pheader.obj
 0001:00026030       ?GetCurrentUserString@PRegistry@@SIHPBD0JPAD@Z 00427030 f   plib:pregistry.obj
 0001:000260a0       ?GetClassesRootString@PRegistry@@SIHPBD0JPAD@Z 004270a0 f   plib:pregistry.obj
 0001:00026110       ?GT_Error_ShowInternalError@@YGXPBD0H@Z 00427110 f   lib_gt:gt_error.obj
 0001:00026190       ?Print@GT_Table@@QBEXXZ    00427190 f   lib_gt:gt_outputtable.obj
 0001:00026440       ??0GT_DateTimeEntry@@QAE@XZ 00427440 f   lib_gt:gt_time.obj
 0001:00026460       ?SetDOSTime@GT_DateTime@@QAEXJ@Z 00427460 f   lib_gt:gt_time.obj
 0001:000264b0       ?SetWindowsTime@GT_DateTime@@QAEXN@Z 004274b0 f   lib_gt:gt_time.obj
 0001:00026540       ?SetUnixTime@GT_DateTime@@QAEXJ@Z 00427540 f   lib_gt:gt_time.obj
 0001:000267f0       ?DateToBuffer@GT_DateTime@@QAEXPADH@Z 004277f0 f   lib_gt:gt_time.obj
 0001:00026850       ?TimeToBuffer@GT_DateTime@@QAEXPAD@Z 00427850 f   lib_gt:gt_time.obj
 0001:00026880       ?GetYear@GT_DateTime@@QBEHXZ 00427880 f   lib_gt:gt_time.obj
 0001:00026890       ?GetMonth@GT_DateTime@@QBEHXZ 00427890 f   lib_gt:gt_time.obj
 0001:000268a0       ?GetDay@GT_DateTime@@QBEHXZ 004278a0 f   lib_gt:gt_time.obj
 0001:000268b0       ?GetHour@GT_DateTime@@QBEHXZ 004278b0 f   lib_gt:gt_time.obj
 0001:000268c0       ?GetMin@GT_DateTime@@QBEHXZ 004278c0 f   lib_gt:gt_time.obj
 0001:000268d0       ?GetSec@GT_DateTime@@QBEHXZ 004278d0 f   lib_gt:gt_time.obj
 0001:000268e0       _RegCloseKey@4             004278e0 f   advapi32:ADVAPI32.dll
 0001:000268e6       _RegQueryValueExA@24       004278e6 f   advapi32:ADVAPI32.dll
 0001:000268ec       _RegOpenKeyExA@20          004278ec f   advapi32:ADVAPI32.dll
 0001:000268f2       _GetSystemTimeAsFileTime@4 004278f2 f   kernel32:KERNEL32.dll
 0001:000268f8       _RaiseException@16         004278f8 f   kernel32:KERNEL32.dll
 0001:000268fe       _SetEndOfFile@4            004278fe f   kernel32:KERNEL32.dll
 0001:00026904       _FileTimeToDosDateTime@12  00427904 f   kernel32:KERNEL32.dll
 0002:0000001c       ??_C@_03GGAN@RPT?$AA@      0042901c     gt_crashtracker.obj
 0002:00000020       ??_C@_01BJG@?6?$AA@        00429020     gt_crashtracker.obj
 0002:00000024       ??_C@_0CN@IPFN@IMAGEHLP?4DLL?5or?5its?5exported?5pro@ 00429024     gt_crashtracker.obj
 0002:00000054       ??_C@_0M@KDCK@Flags?3?$CF08X?6?$AA@ 00429054     gt_crashtracker.obj
 0002:00000060       ??_C@_0CE@MNKM@DS?3?$CF04X?5?5ES?3?$CF04X?5?5FS?3?$CF04X?5?5GS?3?$CF0@ 00429060     gt_crashtracker.obj
 0002:00000084       ??_C@_0BM@EGAB@SS?3ESP?3?$CF04X?3?$CF08X?5?5EBP?3?$CF08X?6?$AA@ 00429084     gt_crashtracker.obj
 0002:000000a0       ??_C@_0BC@BCCC@CS?3EIP?3?$CF04X?3?$CF08X?6?$AA@ 004290a0     gt_crashtracker.obj
 0002:000000b4       ??_C@_0DH@BFHG@EAX?3?$CF08X?6EBX?3?$CF08X?6ECX?3?$CF08X?6EDX?3?$CF@ 004290b4     gt_crashtracker.obj
 0002:000000ec       ??_C@_0N@IGKA@?6Registers?3?6?$AA@ 004290ec     gt_crashtracker.obj
 0002:000000fc       ??_C@_0CD@CJPG@Fault?5address?3?5?5?$CF08X?5?$CF02X?3?$CF08X?5?$CF@ 004290fc     gt_crashtracker.obj
 0002:00000120       ??_C@_0BJ@KJFE@Exception?5code?3?5?$CF08X?5?$CFs?6?$AA@ 00429120     gt_crashtracker.obj
 0002:0000013c       ??_C@_0DJ@NPAB@?1?1?$DN?$DN?$DN?$DN?$DN?$DN?$DN?$DN?$DN?$DN?$DN?$DN?$DN?$DN?$DN?$DN?$DN?$DN?$DN?$DN?$DN?$DN?$DN?$DN?$DN?$DN?$DN?$DN?$DN?$DN@ 0042913c     gt_crashtracker.obj
 0002:00000178       ??_C@_09CMOA@NTDLL?4DLL?$AA@ 00429178     gt_crashtracker.obj
 0002:00000184       ??_C@_0P@IPJK@STACK_OVERFLOW?$AA@ 00429184     gt_crashtracker.obj
 0002:00000194       ??_C@_0BB@PNLJ@PRIV_INSTRUCTION?$AA@ 00429194     gt_crashtracker.obj
 0002:000001a8       ??_C@_0N@CANE@INT_OVERFLOW?$AA@ 004291a8     gt_crashtracker.obj
 0002:000001b8       ??_C@_0BD@CPIN@INT_DIVIDE_BY_ZERO?$AA@ 004291b8     gt_crashtracker.obj
 0002:000001cc       ??_C@_0O@OLMF@FLT_UNDERFLOW?$AA@ 004291cc     gt_crashtracker.obj
 0002:000001dc       ??_C@_0BA@LEGN@FLT_STACK_CHECK?$AA@ 004291dc     gt_crashtracker.obj
 0002:000001ec       ??_C@_0N@JLAK@FLT_OVERFLOW?$AA@ 004291ec     gt_crashtracker.obj
 0002:000001fc       ??_C@_0BG@OFKA@FLT_INVALID_OPERATION?$AA@ 004291fc     gt_crashtracker.obj
 0002:00000214       ??_C@_0BD@MHJO@FLT_INEXACT_RESULT?$AA@ 00429214     gt_crashtracker.obj
 0002:00000228       ??_C@_0BD@BKD@FLT_DIVIDE_BY_ZERO?$AA@ 00429228     gt_crashtracker.obj
 0002:0000023c       ??_C@_0BF@HIGK@FLT_DENORMAL_OPERAND?$AA@ 0042923c     gt_crashtracker.obj
 0002:00000254       ??_C@_0P@MJDA@INVALID_HANDLE?$AA@ 00429254     gt_crashtracker.obj
 0002:00000264       ??_C@_0BE@DNMD@INVALID_DISPOSITION?$AA@ 00429264     gt_crashtracker.obj
 0002:00000278       ??_C@_0BJ@BKEI@NONCONTINUABLE_EXCEPTION?$AA@ 00429278     gt_crashtracker.obj
 0002:00000294       ??_C@_0BE@OPNJ@ILLEGAL_INSTRUCTION?$AA@ 00429294     gt_crashtracker.obj
 0002:000002a8       ??_C@_0BG@MPHG@ARRAY_BOUNDS_EXCEEDED?$AA@ 004292a8     gt_crashtracker.obj
 0002:000002c0       ??_C@_0O@JOEG@IN_PAGE_ERROR?$AA@ 004292c0     gt_crashtracker.obj
 0002:000002d0       ??_C@_0M@JPO@SINGLE_STEP?$AA@ 004292d0     gt_crashtracker.obj
 0002:000002dc       ??_C@_0BB@EGIM@ACCESS_VIOLATION?$AA@ 004292dc     gt_crashtracker.obj
 0002:000002f0       ??_C@_0L@EIGK@BREAKPOINT?$AA@ 004292f0     gt_crashtracker.obj
 0002:000002fc       ??_C@_0L@JMBF@GUARD_PAGE?$AA@ 004292fc     gt_crashtracker.obj
 0002:00000308       ??_C@_0BG@FLNF@DATATYPE_MISALIGNMENT?$AA@ 00429308     gt_crashtracker.obj
 0002:00000320       ??_C@_0BK@EOFI@?$CF08X?5?5?$CF08X?5?5?$CF04X?3?$CF08X?5?$CFs?6?$AA@ 00429320     gt_crashtracker.obj
 0002:0000033c       ??_C@_0CK@PBPH@Address?5?5?5Frame?5?5?5?5?5Logical?5addr@ 0042933c     gt_crashtracker.obj
 0002:00000368       ??_C@_0O@PHBC@?6Call?5stack?3?6?$AA@ 00429368     gt_crashtracker.obj
 0002:00000378       ??_C@_0O@ECDP@?$CF04X?3?$CF08X?5?$CFs?6?$AA@ 00429378     gt_crashtracker.obj
 0002:00000388       ??_C@_07BLMM@?$CFhs?$CL?$CFX?6?$AA@ 00429388     gt_crashtracker.obj
 0002:00000390       ??_C@_0N@IACL@?$CF08X?5?5?$CF08X?5?5?$AA@ 00429390     gt_crashtracker.obj
 0002:000003a0       ??_C@_0BB@IGFC@Address?5?5?5Frame?6?$AA@ 004293a0     gt_crashtracker.obj
 0002:000003b4       ??_C@_0BC@JLJA@SymGetSymFromAddr?$AA@ 004293b4     gt_crashtracker.obj
 0002:000003c8       ??_C@_0BB@PGCD@SymGetModuleBase?$AA@ 004293c8     gt_crashtracker.obj
 0002:000003dc       ??_C@_0BH@BGAC@SymFunctionTableAccess?$AA@ 004293dc     gt_crashtracker.obj
 0002:000003f4       ??_C@_09CJDB@StackWalk?$AA@ 004293f4     gt_crashtracker.obj
 0002:00000400       ??_C@_0L@CPNA@SymCleanup?$AA@ 00429400     gt_crashtracker.obj
 0002:0000040c       ??_C@_0O@FCHA@SymInitialize?$AA@ 0042940c     gt_crashtracker.obj
 0002:0000041c       ??_C@_0N@MLEM@IMAGEHLP?4DLL?$AA@ 0042941c     gt_crashtracker.obj
 0002:0000042c       ??_C@_04PMPC@0?428?$AA@    0042942c     gt_main.obj
 0002:00000434       ??_C@_0DI@JFLF@Parameter?5?8?$CFs?8?5contains?5at?5least@ 00429434     gt_main.obj
 0002:0000046c       ??_C@_0BL@JEF@Found?5no?5matches?5for?5?8?$CFs?8?6?$AA@ 0042946c     gt_main.obj
 0002:00000488       ??_C@_00A@?$AA@            00429488     gt_main.obj
 0002:0000048c       ??_C@_0N@NHIE@GT?52000?5?9?5?$CFs?$AA@ 0042948c     gt_main.obj
 0002:0000049c       ??_C@_0CC@LKFO@GT?52000?5?$FL?$CFd?1?$CFd?$FN?5?$FL?$CF?41f?$CF?$CF?$FN?5?9?5?$FLPHaX@ 0042949c     gt_main.obj
 0002:000004c0       __real@4059000000000000    004294c0     gt_main.obj
 0002:000004c8       ??_C@_0BM@EFAL@GT?52000?5?$FL0?10?$FN?5?$FL0?40?$CF?$FN?5?$FLPHaX?$FN?$AA@ 004294c8     gt_main.obj
 0002:000004e4       ??_7ADLP_String@@6B@       004294e4     gt_main.obj
 0002:000004e8       ??_C@_0CL@HICP@Failed?5to?5read?5the?5config?5file?5?9@ 004294e8     gt_main.obj
 0002:00000514       ??_C@_0DB@GENF@?6GT?52000?5?$CFs?5?$CI?$CFs?5?$CFs?$CJ?5?$CIc?$CJ?51999?9200@ 00429514     gt_main.obj
 0002:00000548       ??_C@_0M@KJBM@Apr?518?52001?$AA@ 00429548     gt_main.obj
 0002:00000554       ??_C@_08OJBJ@03?338?337?$AA@ 00429554     gt_main.obj
 0002:00000560       ??_C@_0BB@LJJ@phax?$EAwriteme?4com?$AA@ 00429560     gt_main.obj
 0002:00000574       ??_C@_0BN@EECO@Could?5not?5set?5error?5handler?6?$AA@ 00429574     gt_main.obj
 0002:00000594       ??_C@_0BB@FELB@Initializing?5?4?4?4?$AA@ 00429594     gt_main.obj
 0002:000005a8       ??_C@_0BI@DBIG@?$DMCtrl?$DO?$CL?$DMC?$DO?5was?5pressed?6?$AA@ 004295a8     gt_main.obj
 0002:000005c0       ??_C@_0BM@JAII@?$DMCtrl?$DO?$CL?$DMBreak?$DO?5was?5pressed?6?$AA@ 004295c0     gt_main.obj
 0002:000005dc       ??_C@_0BO@CLE@?$DMCtrl?$DO?$CL?$DMXYZ?$DO?5was?5pressed?5?$CFld?6?$AA@ 004295dc     gt_main.obj
 0002:000005fc       ??_C@_0BN@HMJK@Found?5no?5matches?5for?5?8?$CFs?$CFs?8?6?$AA@ 004295fc     gt_main.obj
 0002:0000061c       ??_7PFileSearch@@6B@       0042961c     gt_main.obj
 0002:00000620       ??_C@_0BE@FLPL@?5?5?1?$CF?910s?5?9?5?$CFs?5?9?5?$CFs?6?$AA@ 00429620     gt_main.obj
 0002:00000634       ??_C@_0BI@MNCA@do?5extended?5WPG?5listing?$AA@ 00429634     gt_main.obj
 0002:0000064c       ??_C@_04CEDN@zwpg?$AA@     0042964c     gt_main.obj
 0002:00000654       ??_C@_0CL@DBCM@list?5a?5maximum?5of?5X?5entries?5of?5a@ 00429654     gt_main.obj
 0002:00000680       ??_C@_06MFKC@zriffX?$AA@   00429680     gt_main.obj
 0002:00000688       ??_C@_0DG@DGBF@send?5a?5WM_COPYDATA?5msg?5to?5the?5sp@ 00429688     gt_main.obj
 0002:000006c0       ??_C@_06JLCK@zhwndX?$AA@   004296c0     gt_main.obj
 0002:000006c8       ??_C@_0CD@CEMG@wait?5for?5a?5key?5after?5the?5last?5fi@ 004296c8     gt_main.obj
 0002:000006ec       ??_C@_02HMFJ@wf?$AA@       004296ec     gt_main.obj
 0002:000006f0       ??_C@_0CF@BEFI@search?5in?5subdirectories?5?$CIrecurs@ 004296f0     gt_main.obj
 0002:00000718       ??_C@_04CPII@0?401?$AA@    00429718     gt_main.obj
 0002:00000720       ??_C@_01KBOJ@s?$AA@        00429720     gt_main.obj
 0002:00000724       ??_C@_0CG@BKDH@list?5VersionInfo?5resources?5of?5PE@ 00429724     gt_main.obj
 0002:0000074c       ??_C@_05HDJN@pever?$AA@    0042974c     gt_main.obj
 0002:00000754       ??_C@_0BO@MAMJ@list?5segment?5table?5of?5PE?5EXEs?$AA@ 00429754     gt_main.obj
 0002:00000774       ??_C@_06CGG@pesect?$AA@    00429774     gt_main.obj
 0002:0000077c       ??_C@_0CK@JEEO@list?5resources?5of?5PE?5EXEs?5and?5al@ 0042977c     gt_main.obj
 0002:000007a8       ??_C@_06BHCP@peres2?$AA@   004297a8     gt_main.obj
 0002:000007b0       ??_C@_0BK@LHEN@list?5resources?5of?5PE?5EXEs?$AA@ 004297b0     gt_main.obj
 0002:000007cc       ??_C@_05JBFA@peres?$AA@    004297cc     gt_main.obj
 0002:000007d4       ??_C@_0CM@GBON@list?5imported?5DLLs?5and?5functions@ 004297d4     gt_main.obj
 0002:00000800       ??_C@_06KMCC@peimp2?$AA@   00429800     gt_main.obj
 0002:00000808       ??_C@_0BO@GEIC@list?5imported?5DLLs?5of?5PE?5EXEs?$AA@ 00429808     gt_main.obj
 0002:00000828       ??_C@_05JMFJ@peimp?$AA@    00429828     gt_main.obj
 0002:00000830       ??_C@_0BI@FKIM@list?5exports?5of?5PE?5EXEs?$AA@ 00429830     gt_main.obj
 0002:00000848       ??_C@_05GCBP@peexp?$AA@    00429848     gt_main.obj
 0002:00000850       ??_C@_0BP@HPCJ@list?5data?5directory?5of?5PE?5EXEs?$AA@ 00429850     gt_main.obj
 0002:00000870       ??_C@_0FB@PPFD@Syntax?3?5?$CFs?5filemask?5?$FLfilemask?5?$FL?4@ 00429870     gt_main.obj
 0002:000008c4       ??_C@_04OPE@pedd?$AA@      004298c4     gt_main.obj
 0002:000008cc       ??_C@_0CL@JLCB@substitution?5for?5?1pedd?0?5?1pesect?5@ 004298cc     gt_main.obj
 0002:000008f8       ??_C@_05ENNC@peall?$AA@    004298f8     gt_main.obj
 0002:00000900       ??_C@_0BK@HCMM@do?5not?5list?5unknown?5files?$AA@ 00429900     gt_main.obj
 0002:0000091c       ??_C@_02ODMH@nu?$AA@       0042991c     gt_main.obj
 0002:00000920       ??_C@_0CC@DIJG@do?5not?5scan?5for?5special?5filename@ 00429920     gt_main.obj
 0002:00000944       ??_C@_0L@OKEA@noscanname?$AA@ 00429944     gt_main.obj
 0002:00000950       ??_C@_0CI@DMMK@do?5not?5scan?5for?5special?5file?5ext@ 00429950     gt_main.obj
 0002:00000978       ??_C@_09FDLF@noscanext?$AA@ 00429978     gt_main.obj
 0002:00000984       ??_C@_0CC@PBCE@do?5not?5list?5overlays?5in?5any?5file@ 00429984     gt_main.obj
 0002:000009a8       ??_C@_05GCJG@noovr?$AA@    004299a8     gt_main.obj
 0002:000009b0       ??_C@_0BG@NCGH@do?5not?5show?5copyright?$AA@ 004299b0     gt_main.obj
 0002:000009c8       ??_C@_06CAIJ@nologo?$AA@   004299c8     gt_main.obj
 0002:000009d0       ??_C@_0BF@KPJA@do?5not?5output?5footer?$AA@ 004299d0     gt_main.obj
 0002:000009e8       ??_C@_08EALB@nofooter?$AA@ 004299e8     gt_main.obj
 0002:000009f4       ??_C@_0BC@LEHI@do?5not?5use?5colors?$AA@ 004299f4     gt_main.obj
 0002:00000a08       ??_C@_07BAA@nocolor?$AA@   00429a08     gt_main.obj
 0002:00000a10       ??_C@_0BO@DGPK@do?5not?5list?5files?5in?5archives?$AA@ 00429a10     gt_main.obj
 0002:00000a30       ??_C@_06BMKO@noarcs?$AA@   00429a30     gt_main.obj
 0002:00000a38       ??_C@_0BN@ILMM@do?5not?5list?5identified?5files?$AA@ 00429a38     gt_main.obj
 0002:00000a58       ??_C@_02LEFD@ni?$AA@       00429a58     gt_main.obj
 0002:00000a5c       ??_C@_0DF@GKJN@do?5not?5read?5the?5config?5file?5in?5t@ 00429a5c     gt_main.obj
 0002:00000a94       ??_C@_03PGHB@ncl?$AA@      00429a94     gt_main.obj
 0002:00000a98       ??_C@_0DB@PFCA@do?5not?5read?5the?5config?5file?5in?5t@ 00429a98     gt_main.obj
 0002:00000acc       ??_C@_03FNHA@ncg?$AA@      00429acc     gt_main.obj
 0002:00000ad0       ??_C@_0DC@MNAG@show?5all?5used?5command?5line?1confi@ 00429ad0     gt_main.obj
 0002:00000b04       ??_C@_08NDGN@listopts?$AA@ 00429b04     gt_main.obj
 0002:00000b10       ??_C@_0BI@ONAB@use?5listmode?5for?5output?$AA@ 00429b10     gt_main.obj
 0002:00000b28       ??_C@_04CPED@0?404?$AA@    00429b28     gt_main.obj
 0002:00000b30       ??_C@_01JME@l?$AA@         00429b30     gt_main.obj
 0002:00000b34       ??_C@_0CK@KDKJ@start?5gtui2?5and?5redirect?5the?5out@ 00429b34     gt_main.obj
 0002:00000b60       ??_C@_04MGFA@0?417?$AA@    00429b60     gt_main.obj
 0002:00000b68       ??_C@_05NNEE@gtui2?$AA@    00429b68     gt_main.obj
 0002:00000b70       ??_C@_0DB@EJEH@set?5the?5fault?5tolerance?5in?5SYS?5c@ 00429b70     gt_main.obj
 0002:00000ba4       ??_C@_04PJMN@ftsX?$AA@     00429ba4     gt_main.obj
 0002:00000bac       ??_C@_0DA@FMKG@set?5the?5fault?5tolerance?5in?5PE?5co@ 00429bac     gt_main.obj
 0002:00000bdc       ??_C@_04MCDC@ftpX?$AA@     00429bdc     gt_main.obj
 0002:00000be4       ??_C@_0DA@PELD@set?5the?5fault?5tolerance?5in?5NE?5co@ 00429be4     gt_main.obj
 0002:00000c14       ??_C@_04GKDA@ftnX?$AA@     00429c14     gt_main.obj
 0002:00000c1c       ??_C@_0DB@IKCN@set?5the?5fault?5tolerance?5in?5EXE?5c@ 00429c1c     gt_main.obj
 0002:00000c50       ??_C@_04OEJL@fteX?$AA@     00429c50     gt_main.obj
 0002:00000c58       ??_C@_0BI@DJNC@show?5caching?5statistics?$AA@ 00429c58     gt_main.obj
 0002:00000c70       ??_C@_0L@OBJN@cachestats?$AA@ 00429c70     gt_main.obj
 0002:00000c7c       ??_C@_0CE@DLLG@set?5the?5maximum?5buffersize?5in?5by@ 00429c7c     gt_main.obj
 0002:00000ca0       ??_C@_08JCBB@bufsizeX?$AA@ 00429ca0     gt_main.obj
 0002:00000cac       ??_C@_0BO@DDCE@scan?5all?5drives?5?$CIincludes?5?1s?$CJ?$AA@ 00429cac     gt_main.obj
 0002:00000ccc       ??_C@_09GDMN@alldrives?$AA@ 00429ccc     gt_main.obj
 0002:00000cd8       ??_C@_0BG@KBFA@show?5this?5help?5screen?$AA@ 00429cd8     gt_main.obj
 0002:00000cf0       ??_C@_04NADB@0?402?$AA@    00429cf0     gt_main.obj
 0002:00000cf8       ??_C@_01PKMN@?$DP?$AA@     00429cf8     gt_main.obj
 0002:00000cfc       ??_C@_04CBG@0?424?$AA@     00429cfc     gt_main.obj
 0002:00000d04       ??_C@_04CNN@0?421?$AA@     00429d04     gt_main.obj
 0002:00000d0c       ??_C@_04HKKG@0?403?$AA@    00429d0c     gt_main.obj
 0002:00000d14       ??_C@_04GMMH@0?416?$AA@    00429d14     gt_main.obj
 0002:00000d1c       ??_C@_04KIEK@0?420?$AA@    00429d1c     gt_main.obj
 0002:00000d24       ??_C@_04PNKP@0?427?$AA@    00429d24     gt_main.obj
 0002:00000d2c       ??_C@_04GMAM@0?413?$AA@    00429d2c     gt_main.obj
 0002:00000d34       ??_C@_04FHDI@0?426?$AA@    00429d34     gt_main.obj
 0002:00000d3c       ??_C@_0BN@CKHL@?5of?5which?5?$CFd?5may?5be?5damaged?6?$AA@ 00429d3c     gt_cleanup.obj
 0002:00000d5c       ??_C@_0BD@EMCJ@Found?5?$CFd?5archive?$CFs?$AA@ 00429d5c     gt_cleanup.obj
 0002:00000d70       ??_C@_0CD@DMCA@?5?$CI?$CF?43f?5secs?1file?0?5?$CF?42f?5secs?5lost@ 00429d70     gt_cleanup.obj
 0002:00000d94       ??_C@_0BK@MPIO@Time?5needed?3?5?$CF?42f?5seconds?$AA@ 00429d94     gt_cleanup.obj
 0002:00000db0       __real@0000000000000000    00429db0     gt_cleanup.obj
 0002:00000db8       __real@3f50624dd2f1a9fc    00429db8     gt_cleanup.obj
 0002:00000dc0       ??_C@_0BO@MHBO@?5and?5identified?5?$CFd?5?$CI?$DN?5?$CF?43f?$CF?$CF?$CJ?$AA@ 00429dc0     gt_cleanup.obj
 0002:00000de0       ??_C@_0BA@JNEF@Found?5?$CFd?5file?$CFs?$AA@ 00429de0     gt_cleanup.obj
 0002:00000df0       ??_C@_0FC@BLHH@?6?$CD?9?9?9?9?9?9?9?9?9?9?9?9?9?9?9?9?9?9?9?9?9?9?9?9?9?9?9?9?9?9@ 00429df0     gt_cleanup.obj
 0002:00000e48       ??_C@_0HB@CJOF@?6Caching?5statistics?3?6?5?5?$CFld?5total@ 00429e48     gt_cleanup.obj
 0002:00000ebc       ??_C@_0CA@BGGE@Press?5any?5key?5to?5end?5GT?52000?5?5?5?$AA@ 00429ebc     gt_cleanup.obj
 0002:00000edc       ??_7?$GT_Sequence@PAVGT_SingleDriveInfo@@@@6B@ 00429edc     gt_driveinfo.obj
 0002:00000ee0       ??_7GT_DriveInfo@@6B@      00429ee0     gt_driveinfo.obj
 0002:00000ee4       ??_7GT_SingleDriveInfo@@6B@ 00429ee4     gt_driveinfo.obj
 0002:00000ee8       ??_C@_0DN@POBF@Relative?5pathes?5?$CI?$CFs?$CJ?5are?5not?5all@ 00429ee8     gt_driveinfo.obj
 0002:00000f28       ??_C@_0DE@DFLP@Drives?5?$CI?$CFs?$CJ?5are?5not?5allowed?5when@ 00429f28     gt_driveinfo.obj
 0002:00000f5c       ??_C@_0DH@NCPP@Cannot?5start?5GTUI2?3?5The?5specifie@ 00429f5c     gt_gtui_starter.obj
 0002:00000f94       ??_C@_0DH@OAPO@Cannot?5start?5GTUI2?3?5The?5specifie@ 00429f94     gt_gtui_starter.obj
 0002:00000fd0       ??_C@_0FH@DIJM@Cannot?5start?5GTUI2?3?5The?5?4exe?5fil@ 00429fd0     gt_gtui_starter.obj
 0002:00001028       ??_C@_0DP@MHMH@Cannot?5start?5GTUI2?3?5The?5system?5i@ 0042a028     gt_gtui_starter.obj
 0002:00001068       ??_C@_09EFGC@gtui2?4exe?$AA@ 0042a068     gt_gtui_starter.obj
 0002:00001074       ??_C@_0CA@KBGL@Failed?5to?5clear?5window?5of?5GTUI?6?$AA@ 0042a074     gt_gtui_starter.obj
 0002:00001094       ??_C@_02JJJH@?6?6?$AA@     0042a094     gt_mainlister.obj
 0002:00001098       ??_C@_0BP@JFFE@?5?$CI0x?$CF02X?50x?$CF02X?50x?$CF02X?50x?$CF02X?$CJ?$AA@ 0042a098     gt_mainlister.obj
 0002:000010b8       ??_C@_0BH@IGOB@Unknown?5?$CFs?5file?5format?$AA@ 0042a0b8     gt_mainlister.obj
 0002:000010d0       ??_C@_06FNBK@binary?$AA@   0042a0d0     gt_mainlister.obj
 0002:000010d8       ??_C@_04LHJL@text?$AA@     0042a0d8     gt_mainlister.obj
 0002:000010e0       ??_C@_0DC@GNGP@Files?5with?5a?5size?5of?50?5bytes?5can@ 0042a0e0     gt_mainlister.obj
 0002:00001124       ___lookuptable             0042a124     libc:output.obj
 0002:00001180       ??_C@_1O@POHA@?$AA?$CI?$AAn?$AAu?$AAl?$AAl?$AA?$CJ?$AA?$AA@ 0042a180     libc:output.obj
 0002:00001190       ??_C@_06ONKE@?$CInull?$CJ?$AA@ 0042a190     libc:output.obj
 0002:00001198       ??_C@_0BH@PHHF@__GLOBAL_HEAP_SELECTED?$AA@ 0042a198     libc:heapinit.obj
 0002:000011b0       ??_C@_0BF@BBGL@__MSVCRT_HEAP_SELECT?$AA@ 0042a1b0     libc:heapinit.obj
 0002:00001240       __real@8@3fff8000000000000000 0042a240     libc:testfdiv.obj
 0002:00001248       __real@8@4015800bf60000000000 0042a248     libc:testfdiv.obj
 0002:00001250       __real@8@4014bffffc0000000000 0042a250     libc:testfdiv.obj
 0002:00001258       ??_C@_0BK@JEGK@IsProcessorFeaturePresent?$AA@ 0042a258     libc:testfdiv.obj
 0002:00001274       ??_C@_08OBID@KERNEL32?$AA@ 0042a274     libc:testfdiv.obj
 0002:00001280       __real@8@00000000000000000000 0042a280     libc:cvt.obj
 0002:00001288       ??_C@_05OFLO@e?$CL000?$AA@ 0042a288     libc:cvt.obj
 0002:00001290       ??_C@_06MICP@CONIN$?$AA@   0042a290     libc:initcon.obj
 0002:00001298       ??_C@_07GLCC@CONOUT$?$AA@  0042a298     libc:initcon.obj
 0002:000012a0       ??_C@_0P@GGKG@runtime?5error?5?$AA@ 0042a2a0     libc:crt0msg.obj
 0002:000012b0       ??_C@_02PIMC@?$AN?6?$AA@   0042a2b0     libc:crt0msg.obj
 0002:000012b4       ??_C@_0O@DELO@TLOSS?5error?$AN?6?$AA@ 0042a2b4     libc:crt0msg.obj
 0002:000012c4       ??_C@_0N@OMLL@SING?5error?$AN?6?$AA@ 0042a2c4     libc:crt0msg.obj
 0002:000012d4       ??_C@_0P@OJAK@DOMAIN?5error?$AN?6?$AA@ 0042a2d4     libc:crt0msg.obj
 0002:000012e4       ??_C@_0CF@EANP@R6028?$AN?6?9?5unable?5to?5initialize?5he@ 0042a2e4     libc:crt0msg.obj
 0002:0000130c       ??_C@_0DF@ECGN@R6027?$AN?6?9?5not?5enough?5space?5for?5lo@ 0042a30c     libc:crt0msg.obj
 0002:00001344       ??_C@_0DF@FKAC@R6026?$AN?6?9?5not?5enough?5space?5for?5st@ 0042a344     libc:crt0msg.obj
 0002:0000137c       ??_C@_0CG@DPMN@R6025?$AN?6?9?5pure?5virtual?5function?5c@ 0042a37c     libc:crt0msg.obj
 0002:000013a4       ??_C@_0DF@CKIP@R6024?$AN?6?9?5not?5enough?5space?5for?5_o@ 0042a3a4     libc:crt0msg.obj
 0002:000013dc       ??_C@_0CJ@GGOE@R6019?$AN?6?9?5unable?5to?5open?5console?5@ 0042a3dc     libc:crt0msg.obj
 0002:00001408       ??_C@_0CB@LBOB@R6018?$AN?6?9?5unexpected?5heap?5error?$AN?6@ 0042a408     libc:crt0msg.obj
 0002:0000142c       ??_C@_0CN@FPEG@R6017?$AN?6?9?5unexpected?5multithread?5@ 0042a42c     libc:crt0msg.obj
 0002:0000145c       ??_C@_0CM@OBIC@R6016?$AN?6?9?5not?5enough?5space?5for?5th@ 0042a45c     libc:crt0msg.obj
 0002:00001488       ??_C@_0CB@HPAL@?$AN?6abnormal?5program?5termination?$AN?6@ 0042a488     libc:crt0msg.obj
 0002:000014ac       ??_C@_0CM@JOOB@R6009?$AN?6?9?5not?5enough?5space?5for?5en@ 0042a4ac     libc:crt0msg.obj
 0002:000014d8       ??_C@_0CK@OIBL@R6008?$AN?6?9?5not?5enough?5space?5for?5ar@ 0042a4d8     libc:crt0msg.obj
 0002:00001504       ??_C@_0CF@LKPB@R6002?$AN?6?9?5floating?5point?5not?5load@ 0042a504     libc:crt0msg.obj
 0002:0000152c       ??_C@_0CF@JPDF@Microsoft?5Visual?5C?$CL?$CL?5Runtime?5Lib@ 0042a52c     libc:crt0msg.obj
 0002:00001554       ??_C@_0BK@DEOK@Runtime?5Error?$CB?6?6Program?3?5?$AA@ 0042a554     libc:crt0msg.obj
 0002:00001570       ??_C@_03NAME@?4?4?4?$AA@   0042a570     libc:crt0msg.obj
 0002:00001574       ??_C@_0BH@NNCD@?$DMprogram?5name?5unknown?$DO?$AA@ 0042a574     libc:crt0msg.obj
 0002:0000158c       ??_C@_0BD@NJFP@GetLastActivePopup?$AA@ 0042a58c     libc:crtmbox.obj
 0002:000015a0       ??_C@_0BA@GILI@GetActiveWindow?$AA@ 0042a5a0     libc:crtmbox.obj
 0002:000015b0       ??_C@_0M@PKCK@MessageBoxA?$AA@ 0042a5b0     libc:crtmbox.obj
 0002:000015bc       ??_C@_0L@HKL@user32?4dll?$AA@ 0042a5bc     libc:crtmbox.obj
 0002:000015c8       ??_C@_01A@?$AA?$AA@        0042a5c8     libc:a_str.obj
 0002:000015cc       ??_C@_13A@?$AA?$AA?$AA?$AA@ 0042a5cc     libc:a_str.obj
 0002:000015f8       ??_C@_06PAPI@1?$CDQNAN?$AA@ 0042a5f8     libc:x10fout.obj
 0002:00001600       ??_C@_05BGNL@1?$CDINF?$AA@ 0042a600     libc:x10fout.obj
 0002:00001608       ??_C@_05EDPF@1?$CDIND?$AA@ 0042a608     libc:x10fout.obj
 0002:00001610       ??_C@_06LKFM@1?$CDSNAN?$AA@ 0042a610     libc:x10fout.obj
 0002:00001618       ??_C@_0O@LNFP@?$CFs?5?$CI?$CFld?$CJ?3?6?$CFs?6?$AA@ 0042a618     plib:perror.obj
 0002:00001628       ??_C@_0BI@GIAN@A?5Windows?5error?5occured?$AA@ 0042a628     plib:perror.obj
 0002:00001640       ??_C@_02MECO@?$CFd?$AA@    0042a640     plib:adlp_string.obj
 0002:00001644       ??_C@_03FMLL@?$CFud?$AA@   0042a644     plib:adlp_string.obj
 0002:00001648       ??_C@_03JFOM@?$CFld?$AA@   0042a648     plib:adlp_string.obj
 0002:0000164c       ??_C@_03IAD@?$CFul?$AA@    0042a64c     plib:adlp_string.obj
 0002:00001650       ??_C@_02JBAA@?$CFf?$AA@    0042a650     plib:adlp_string.obj
 0002:00001654       ??_C@_05MKCL@?$CF02Xh?$AA@ 0042a654     plib:adlp_string.obj
 0002:0000165c       ??_C@_05CGFM@?$CF04Xh?$AA@ 0042a65c     plib:adlp_string.obj
 0002:00001664       ??_C@_05POLD@?$CF08Xh?$AA@ 0042a664     plib:adlp_string.obj
 0002:0000166c       ??_7?$GT_Sequence@VGT_OutputMember@@@@6B@ 0042a66c     lib_gt:gt_output.obj
 0002:00001670       ??_7Cursor@?$GT_Sequence@VGT_OutputMember@@@@6B@ 0042a670     lib_gt:gt_output.obj
 0002:00001680       ??_C@_0DB@FJFB@Failed?5to?5send?5data?5to?5specified@ 0042a680     lib_gt:gt_output.obj
 0002:000016b4       ??_C@_0CE@MOAB@Internal?5buffer?5overflow?5at?5?$CFs?3?5@ 0042a6b4     lib_gt:gt_output.obj
 0002:000016d8       ??_C@_0O@HFKC@gt_output?4cxx?$AA@ 0042a6d8     lib_gt:gt_output.obj
 0002:000016e8       ??_C@_0BD@GOEG@?5?$FLoffline?5content?$FN?$AA@ 0042a6e8     lib_gt:gt_output.obj
 0002:000016fc       ??_C@_0O@JNID@?5?$FLcompressed?$FN?$AA@ 0042a6fc     lib_gt:gt_output.obj
 0002:0000170c       ??_C@_0DJ@HOOH@?6Error?3?5Failed?5to?5retrieve?5attri@ 0042a70c     lib_gt:gt_output.obj
 0002:00001748       ??_C@_0DB@ODPA@?9?5next?5level?5at?5?$CFld?1?$CF08Xh?5for?5?$CFl@ 0042a748     lib_gt:gt_output.obj
 0002:0000177c       ??_C@_0BB@IIEM@?9?5?$CFs?5?$CI?$CFld?5bytes?$CJ?$AA@ 0042a77c     lib_gt:gt_output.obj
 0002:00001790       ??_C@_04EKKG@?9?5?$CFs?$AA@ 0042a790     lib_gt:gt_output.obj
 0002:00001798       ??_C@_05KKAP@zriff?$AA@    0042a798     lib_gt:gt_commandlineflags.obj
 0002:000017a0       ??_C@_05CCMI@zhwnd?$AA@    0042a7a0     lib_gt:gt_commandlineflags.obj
 0002:000017a8       ??_C@_03MFBF@fts?$AA@      0042a7a8     lib_gt:gt_commandlineflags.obj
 0002:000017ac       ??_C@_03DKKM@ftp?$AA@      0042a7ac     lib_gt:gt_commandlineflags.obj
 0002:000017b0       ??_C@_03DIBG@ftn?$AA@      0042a7b0     lib_gt:gt_commandlineflags.obj
 0002:000017b4       ??_C@_03JDBH@fte?$AA@      0042a7b4     lib_gt:gt_commandlineflags.obj
 0002:000017b8       ??_C@_07BJIB@bufsize?$AA@  0042a7b8     lib_gt:gt_commandlineflags.obj
 0002:000017c0       ??_C@_0L@FBPO@gt2000?4cfg?$AA@ 0042a7c0     lib_gt:gt_configfile.obj
 0002:000017cc       ??_C@_02MMAH@rt?$AA@       0042a7cc     lib_gt:gt_configfile.obj
 0002:000017d0       ??_C@_0EB@KFFC@Software?2Microsoft?2Windows?2Curre@ 0042a7d0     lib_gt:gt_configfile.obj
 0002:00001814       ??_C@_07EELO@AppData?$AA@  0042a814     lib_gt:gt_configfile.obj
 0002:0000181c       ??_7GT_ConfigFile@@6B@     0042a81c     lib_gt:gt_configfile.obj
 0002:00001820       ??_C@_0CH@IEPI@Error?5in?5the?5configuration?5file?5@ 0042a820     lib_gt:gt_configfile.obj
 0002:00001848       ??_C@_0BO@FGHO@?5?5line?5?$CFd?3?5Invalid?5character?6?$AA@ 0042a848     lib_gt:gt_configfile.obj
 0002:00001868       ??_C@_0CH@CNLE@?5?5Config?5file?5?$CIline?5?$CFd?$CJ?3?5Syntax?5@ 0042a868     lib_gt:gt_configfile.obj
 0002:00001890       ??_C@_0CA@GCJF@?5?5line?5?$CFd?3?5Unknown?5switch?5?8?$CFs?8?6?$AA@ 0042a890     lib_gt:gt_configfile.obj
 0002:000018b0       ??_7GT_FileBuffer@@6B@     0042a8b0     lib_gt:gt_filebuffer.obj
 0002:000018b4       ??_C@_0BE@GMLN@Failed?5to?5open?5?8?$CFs?8?$AA@ 0042a8b4     lib_gt:gt_filebuffer.obj
 0002:000018c8       ??_C@_0BC@ODN@gt_filebuffer?4cxx?$AA@ 0042a8c8     lib_gt:gt_filebuffer.obj
 0002:000018dc       ??_C@_0CF@NLFE@Trying?5to?5set?5the?5filepointer?5to@ 0042a8dc     lib_gt:gt_filebuffer.obj
 0002:00001904       ??_C@_0CK@MCDP@Trying?5to?5increase?5the?5filepoint@ 0042a904     lib_gt:gt_filebuffer.obj
 0002:00001930       ??_C@_0BJ@MNAG@Failed?5to?5read?5?$CFld?5bytes?$AA@ 0042a930     lib_gt:gt_filebuffer.obj
 0002:0000194c       ??_C@_0CE@NLFP@Trying?5to?5read?5?$CFld?5bytes?5before?5@ 0042a94c     lib_gt:gt_filebuffer.obj
 0002:00001970       ??_C@_0CC@GDI@Trying?5to?5read?5?$CFld?5bytes?5over?5EO@ 0042a970     lib_gt:gt_filebuffer.obj
 0002:00001994       ??_C@_0CE@GKHA@Failed?5to?5read?5C?5like?5string?5at?5@ 0042a994     lib_gt:gt_filebuffer.obj
 0002:000019b8       ??_C@_0CJ@IJPD@Failed?5to?5read?5Pascal?5like?5strin@ 0042a9b8     lib_gt:gt_filebuffer.obj
 0002:000019e4       ??_C@_0BL@OOLK@GetConsoleScreenBufferInfo?$AA@ 0042a9e4     lib_gt:gt_winconsole.obj
 0002:00001a00       ??_C@_0BG@MBLK@stderr?5is?5redirected?6?$AA@ 0042aa00     lib_gt:gt_winconsole.obj
 0002:00001a18       ??_C@_0BF@DINF@stdin?5is?5redirected?6?$AA@ 0042aa18     lib_gt:gt_winconsole.obj
 0002:00001a30       ??_C@_0BG@ENJJ@stdout?5is?5redirected?6?$AA@ 0042aa30     lib_gt:gt_winconsole.obj
 0002:00001a48       ??_7GT_WindowsConsole@@6B@ 0042aa48     lib_gt:gt_winconsole.obj
 0002:00001a4c       ??_C@_0BK@FOFF@SetConsoleTextAttribute?52?$AA@ 0042aa4c     lib_gt:gt_winconsole.obj
 0002:00001a68       ??_C@_0BK@KBOM@SetConsoleTextAttribute?51?$AA@ 0042aa68     lib_gt:gt_winconsole.obj
 0002:00001a84       ??_C@_0BP@KOHB@Exception?5in?5?$CFs?5line?5?$CFd?3?6?5?5?$CFs?6?$AA@ 0042aa84     lib_gt:gt_exceptions.obj
 0002:00001ae8       ??_C@_0CL@BEBG@?5?5Header?5is?5now?5too?5large?4?5Skipp@ 0042aae8     lib_data:gt_exe_analyzer.obj
 0002:00001b14       ??_C@_0DD@PGCG@?5?5?5?5Calculated?5new?5size?5of?5heade@ 0042ab14     lib_data:gt_exe_analyzer.obj
 0002:00001b48       ??_C@_0BN@LJIJ@?5?5Size?5of?5header?5is?5too?5?$CFs?4?6?$AA@ 0042ab48     lib_data:gt_exe_analyzer.obj
 0002:00001b68       ??_C@_05PMKF@large?$AA@    0042ab68     lib_data:gt_exe_analyzer.obj
 0002:00001b70       ??_C@_05IHCN@small?$AA@    0042ab70     lib_data:gt_exe_analyzer.obj
 0002:00001b78       ??_C@_0CF@JHHA@?5?5Found?5COM2EXE?5converter?5from?5?$CC@ 0042ab78     lib_data:gt_exe_analyzer.obj
 0002:00001ba0       ??_C@_0DD@OPMH@?5?5Found?5packer?5?8?$CFs?8?$DL?5version?5in?5@ 0042aba0     lib_data:gt_exe_analyzer.obj
 0002:00001bd4       ??_C@_0BF@LKMC@?5?$FLextra?5compression?$FN?$AA@ 0042abd4     lib_data:gt_exe_analyzer.obj
 0002:00001bec       ??_C@_0BH@BOAD@?5?5Found?5packer?5?8?$CFs?$CFs?8?6?$AA@ 0042abec     lib_data:gt_exe_analyzer.obj
 0002:00001c04       ??_C@_0L@NJBM@?$DP?$DP?$DP?5?$CI3?400?$CJ?$AA@ 0042ac04     lib_data:gt_exe_analyzer.obj
 0002:00001c10       ??_C@_0N@FBPJ@3?400?13?401?5PR?$AA@ 0042ac10     lib_data:gt_exe_analyzer.obj
 0002:00001c20       ??_C@_0BF@KHII@?5?5Found?5packer?5?8?$CFs?8?6?$AA@ 0042ac20     lib_data:gt_exe_analyzer.obj
 0002:00001c38       ??_C@_0O@CBFC@?$DP?$DP?$DP?5?$CI3?40x?5PR?$CJ?$AA@ 0042ac38     lib_data:gt_exe_analyzer.obj
 0002:00001c48       ??_C@_08HPLM@3?405?a?5PR?$AA@ 0042ac48     lib_data:gt_exe_analyzer.obj
 0002:00001c54       ??_C@_07JLAG@3?404?5PR?$AA@ 0042ac54     lib_data:gt_exe_analyzer.obj
 0002:00001c5c       ??_C@_07GBLI@3?403?5PR?$AA@ 0042ac5c     lib_data:gt_exe_analyzer.obj
 0002:00001c64       ??_C@_07EEOK@3?402?5PR?$AA@ 0042ac64     lib_data:gt_exe_analyzer.obj
 0002:00001c6c       ??_C@_0N@GIHE@?$DP?$DP?$DP?5?$CI3?40x?5P?$CJ?$AA@ 0042ac6c     lib_data:gt_exe_analyzer.obj
 0002:00001c7c       ??_C@_08CKJC@3?405?a?5PP?$AA@ 0042ac7c     lib_data:gt_exe_analyzer.obj
 0002:00001c88       ??_C@_08CKFJ@3?405?a?5PU?$AA@ 0042ac88     lib_data:gt_exe_analyzer.obj
 0002:00001c94       ??_C@_07CCMN@3?405?a?5P?$AA@ 0042ac94     lib_data:gt_exe_analyzer.obj
 0002:00001c9c       ??_C@_07MOCI@3?404?5PP?$AA@ 0042ac9c     lib_data:gt_exe_analyzer.obj
 0002:00001ca4       ??_C@_07MOOD@3?404?5PU?$AA@ 0042aca4     lib_data:gt_exe_analyzer.obj
 0002:00001cac       ??_C@_06JINN@3?404?5P?$AA@ 0042acac     lib_data:gt_exe_analyzer.obj
 0002:00001cb4       ??_C@_07DEJG@3?403?5PP?$AA@ 0042acb4     lib_data:gt_exe_analyzer.obj
 0002:00001cbc       ??_C@_07DEFN@3?403?5PU?$AA@ 0042acbc     lib_data:gt_exe_analyzer.obj
 0002:00001cc4       ??_C@_06CGLM@3?403?5P?$AA@ 0042acc4     lib_data:gt_exe_analyzer.obj
 0002:00001ccc       ??_C@_07BBAP@3?402?5PU?$AA@ 0042accc     lib_data:gt_exe_analyzer.obj
 0002:00001cd4       ??_C@_06HEKK@3?402?5P?$AA@ 0042acd4     lib_data:gt_exe_analyzer.obj
 0002:00001cdc       ??_C@_07HOPJ@3?401?5PU?$AA@ 0042acdc     lib_data:gt_exe_analyzer.obj
 0002:00001ce4       ??_C@_06ICJB@3?401?5P?$AA@ 0042ace4     lib_data:gt_exe_analyzer.obj
 0002:00001cec       ??_C@_07FLKL@3?400?5PU?$AA@ 0042acec     lib_data:gt_exe_analyzer.obj
 0002:00001cf4       ??_C@_06NAIH@3?400?5P?$AA@ 0042acf4     lib_data:gt_exe_analyzer.obj
 0002:00001cfc       ??_C@_0BO@HJGD@?5?5Found?5linker?5?8TLink?5?$CFd?4?$CFd?8?6?$AA@ 0042acfc     lib_data:gt_exe_analyzer.obj
 0002:00001d1c       ??_C@_0DI@CCJP@Found?5encryptor?5?8Trap?51?42x?8?5?$CIdec@ 0042ad1c     lib_data:gt_exe_analyzer.obj
 0002:00001d54       ??_C@_04IMNP@?$LEJ?M?$CB?$AA@ 0042ad54     lib_data:gt_exe_analyzer.obj
 0002:00001d5c       ??_C@_0DJ@CKCN@?5?5Found?5packer?5?8SEA?9AXE?5?$CFs?8?6?5?5?5?5@ 0042ad5c     lib_data:gt_exe_analyzer.obj
 0002:00001d98       ??_C@_08EJOK@SEA?9AXE?5?$AA@ 0042ad98     lib_data:gt_exe_analyzer.obj
 0002:00001da4       ??_C@_0BN@JBPG@?5?5Found?5packer?5?8EXEPack?5?$CFs?8?6?$AA@ 0042ada4     lib_data:gt_exe_analyzer.obj
 0002:00001dc4       ??_C@_03NMFM@?$DP?$DP?$DP?$AA@ 0042adc4     lib_data:gt_exe_analyzer.obj
 0002:00001dc8       ??_C@_04CMAE@ID_2?$AA@     0042adc8     lib_data:gt_exe_analyzer.obj
 0002:00001dd0       ??_C@_04OPOO@4?403?$AA@    0042add0     lib_data:gt_exe_analyzer.obj
 0002:00001dd8       ??_C@_04BAFH@4?400?$AA@    0042add8     lib_data:gt_exe_analyzer.obj
 0002:00001de0       ??_C@_0CD@PFNF@?5?5Found?5packer?5?8PKLite?5?$CFd?4?$CF02d?8?$CF@ 0042ade0     lib_data:gt_exe_analyzer.obj
 0002:00001e04       ??_C@_0CC@GGMG@?5?5Found?5code?5but?5no?5ID?5of?5PKLite@ 0042ae04     lib_data:gt_exe_analyzer.obj
 0002:00001e28       ??_C@_04JNNN@3?465?$AA@    0042ae28     lib_data:gt_exe_analyzer.obj
 0002:00001e30       ??_C@_0CC@ODKL@?5?5Found?5ID?5but?5no?5code?5of?5PKLite@ 0042ae30     lib_data:gt_exe_analyzer.obj
 0002:00001e54       ??_C@_0BJ@CPEB@DOS?5COM?5executable?5file?6?$AA@ 0042ae54     lib_data:gt_exe_analyzer.obj
 0002:00001e70       ??_C@_0BJ@MOBF@?5?5No?5relocation?5entries?6?$AA@ 0042ae70     lib_data:gt_exe_analyzer.obj
 0002:00001e8c       ??_C@_0CD@MPGM@?5?5Relocation?5offset?4?4?3?5?$CF08Xh?5?1?5?$CF@ 0042ae8c     lib_data:gt_exe_analyzer.obj
 0002:00001eb0       ??_C@_0CD@GJNH@?5?5Relocation?5entries?4?3?5?$CF08Xh?5?1?5?$CF@ 0042aeb0     lib_data:gt_exe_analyzer.obj
 0002:00001ed4       ??_C@_0CD@NFJA@?5?5Overlay?5size?4?4?4?4?4?4?4?3?5?$CF08Xh?5?1?5?$CF@ 0042aed4     lib_data:gt_exe_analyzer.obj
 0002:00001ef8       ??_C@_0CD@NAAD@?5?5Entrypoint?4?4?4?4?4?4?4?4?4?3?5?$CF08Xh?5?1?5?$CF@ 0042aef8     lib_data:gt_exe_analyzer.obj
 0002:00001f1c       ??_C@_0CH@BPCI@?5?5?5?5File?5size?5in?5header?5is?5inval@ 0042af1c     lib_data:gt_exe_analyzer.obj
 0002:00001f44       ??_C@_0CJ@IEFK@?5?5File?5size?5in?5header?3?5?$CF08Xh?5?1?5?$CF@ 0042af44     lib_data:gt_exe_analyzer.obj
 0002:00001f70       ??_C@_0CJ@CKIJ@?5?5Size?5of?5header?4?4?4?4?4?3?5?$CF08Xh?5?1?5?$CF@ 0042af70     lib_data:gt_exe_analyzer.obj
 0002:00001f9c       ??_C@_0BN@NIMI@?5?5Found?5reverse?5?8ZM?8?5header?6?$AA@ 0042af9c     lib_data:gt_exe_analyzer.obj
 0002:00001fbc       ??_C@_0BF@DPJE@Is?5a?5DOS?5executable?6?$AA@ 0042afbc     lib_data:gt_exe_analyzer.obj
 0002:00001fd4       ??_C@_0CK@MMKN@Is?5a?5DOS?5executable?5at?5offset?5?$CF0@ 0042afd4     lib_data:gt_exe_analyzer.obj
 0002:00002000       ??_C@_0CB@HNCK@Postscript?5data?5follows?5?$CIType?52?$CJ@ 0042b000     lib_data:gt_generic.obj
 0002:00002024       ??_C@_0BH@GPLK@Graphics?5text?5?$CIType?53?$CJ?$AA@ 0042b024     lib_data:gt_generic.obj
 0002:0000203c       ??_C@_0BL@KGLN@Start?5of?5WPG?5data?5?$CIType?52?$CJ?$AA@ 0042b03c     lib_data:gt_generic.obj
 0002:00002058       ??_C@_0BH@HJBA@Graphics?5text?5?$CIType?52?$CJ?$AA@ 0042b058     lib_data:gt_generic.obj
 0002:00002070       ??_C@_0BB@NKIL@PlanPerfect?5data?$AA@ 0042b070     lib_data:gt_generic.obj
 0002:00002084       ??_C@_0M@KJD@Start?5chart?$AA@ 0042b084     lib_data:gt_generic.obj
 0002:00002090       ??_C@_0N@FKJG@Start?5figure?$AA@ 0042b090     lib_data:gt_generic.obj
 0002:000020a0       ??_C@_0BA@FCGD@Bitmap?5?$CIType?52?$CJ?$AA@ 0042b0a0     lib_data:gt_generic.obj
 0002:000020b0       ??_C@_0BA@GPFD@Curved?5polyline?$AA@ 0042b0b0     lib_data:gt_generic.obj
 0002:000020c0       ??_C@_0BC@ELDN@Output?5attributes?$AA@ 0042b0c0     lib_data:gt_generic.obj
 0002:000020d4       ??_C@_0CB@EGNF@Postscript?5data?5follows?5?$CIType?51?$CJ@ 0042b0d4     lib_data:gt_generic.obj
 0002:000020f8       ??_C@_0BA@DEFF@End?5of?5WPG?5data?$AA@ 0042b0f8     lib_data:gt_generic.obj
 0002:00002108       ??_C@_0BL@JNEC@Start?5of?5WPG?5data?5?$CIType?51?$CJ?$AA@ 0042b108     lib_data:gt_generic.obj
 0002:00002124       ??_C@_09NMHK@Color?5map?$AA@ 0042b124     lib_data:gt_generic.obj
 0002:00002130       ??_C@_0BJ@KFLD@Graphics?5text?5attributes?$AA@ 0042b130     lib_data:gt_generic.obj
 0002:0000214c       ??_C@_0BH@ECOP@Graphics?5text?5?$CIType?51?$CJ?$AA@ 0042b14c     lib_data:gt_generic.obj
 0002:00002164       ??_C@_0BA@GJJM@Bitmap?5?$CIType?51?$CJ?$AA@ 0042b164     lib_data:gt_generic.obj
 0002:00002174       ??_C@_08GKAE@Reserved?$AA@ 0042b174     lib_data:gt_generic.obj
 0002:00002180       ??_C@_07FEDM@Ellipse?$AA@  0042b180     lib_data:gt_generic.obj
 0002:00002188       ??_C@_07HDDJ@Polygon?$AA@  0042b188     lib_data:gt_generic.obj
 0002:00002190       ??_C@_09DIIL@Rectangle?$AA@ 0042b190     lib_data:gt_generic.obj
 0002:0000219c       ??_C@_08MEIJ@Polyline?$AA@ 0042b19c     lib_data:gt_generic.obj
 0002:000021a8       ??_C@_04KEDG@Line?$AA@     0042b1a8     lib_data:gt_generic.obj
 0002:000021b0       ??_C@_0L@EGML@Polymarker?$AA@ 0042b1b0     lib_data:gt_generic.obj
 0002:000021bc       ??_C@_0BC@CKFA@Marker?5attributes?$AA@ 0042b1bc     lib_data:gt_generic.obj
 0002:000021d0       ??_C@_0BA@MNDM@Line?5attributes?$AA@ 0042b1d0     lib_data:gt_generic.obj
 0002:000021e0       ??_C@_0BA@PNBL@Fill?5attributes?$AA@ 0042b1e0     lib_data:gt_generic.obj
 0002:000021f0       ??_C@_09OOJM@?$DMunknown?$DO?$AA@ 0042b1f0     lib_data:gt_generic.obj
 0002:000021fc       ??_C@_0BA@NJEG@PostScript?5font?$AA@ 0042b1fc     lib_data:gt_generic.obj
 0002:0000220c       ??_C@_0BH@PNH@hyphenation?5lex?5module?$AA@ 0042b20c     lib_data:gt_generic.obj
 0002:00002224       ??_C@_0BG@LAOA@graphics?5driver?5?$CIWPD?$CJ?$AA@ 0042b224     lib_data:gt_generic.obj
 0002:0000223c       ??_C@_0BF@MBEE@macro?5resource?5?$CIMRS?$CJ?$AA@ 0042b23c     lib_data:gt_generic.obj
 0002:00002254       ??_C@_0BI@NJDO@hyphenation?5data?5module?$AA@ 0042b254     lib_data:gt_generic.obj
 0002:0000226c       ??_C@_0BI@BGDG@hyphenation?5code?5module?$AA@ 0042b26c     lib_data:gt_generic.obj
 0002:00002284       ??_C@_0O@KNFA@graphic?5?$CIWPG?$CJ?$AA@ 0042b284     lib_data:gt_generic.obj
 0002:00002294       ??_C@_0BB@FPKD@overlay?5?$CIWP?4FIL?$CJ?$AA@ 0042b294     lib_data:gt_generic.obj
 0002:000022a8       ??_C@_0BH@KPOK@display?5resource?5?$CIDRS?$CJ?$AA@ 0042b2a8     lib_data:gt_generic.obj
 0002:000022c0       ??_C@_0BH@PHAG@printer?5resource?5?$CIALL?$CJ?$AA@ 0042b2c0     lib_data:gt_generic.obj
 0002:000022d8       ??_C@_0BD@CGEE@prefix?5information?$AA@ 0042b2d8     lib_data:gt_generic.obj
 0002:000022ec       ??_C@_05IFI@setup?$AA@     0042b2ec     lib_data:gt_generic.obj
 0002:000022f4       ??_C@_0BH@GEHF@printer?5resource?5?$CIPRS?$CJ?$AA@ 0042b2f4     lib_data:gt_generic.obj
 0002:0000230c       ??_C@_0N@LFIG@column?5block?$AA@ 0042b30c     lib_data:gt_generic.obj
 0002:0000231c       ??_C@_0BC@CFKO@rectangular?5block?$AA@ 0042b31c     lib_data:gt_generic.obj
 0002:00002330       ??_C@_05PNCJ@block?$AA@    0042b330     lib_data:gt_generic.obj
 0002:00002338       ??_C@_09GOPH@thesaurus?$AA@ 0042b338     lib_data:gt_generic.obj
 0002:00002344       ??_C@_0L@EACF@dictionary?$AA@ 0042b344     lib_data:gt_generic.obj
 0002:00002350       ??_C@_08FJIM@document?$AA@ 0042b350     lib_data:gt_generic.obj
 0002:0000235c       ??_C@_0BE@IFFD@keyboard?5definition?$AA@ 0042b35c     lib_data:gt_generic.obj
 0002:00002370       ??_C@_04MHDN@help?$AA@     0042b370     lib_data:gt_generic.obj
 0002:00002378       ??_C@_05IMD@macro?$AA@     0042b378     lib_data:gt_generic.obj
 0002:000023d4       ??_C@_0BK@PCLN@?5?$FLfailed?5to?5init?5buffer?$CB?$FN?$AA@ 0042b3d4     lib_data:gt_generic.obj
 0002:000023f0       ??_C@_09OCMC@unknown?5?$CI?$AA@ 0042b3f0     lib_data:gt_generic.obj
 0002:000023fc       ??_C@_07JKKM@picture?$AA@  0042b3fc     lib_data:gt_generic.obj
 0002:00002404       ??_C@_09MHFD@numerical?$AA@ 0042b404     lib_data:gt_generic.obj
 0002:00002410       ??_C@_04MJKA@memo?$AA@     0042b410     lib_data:gt_generic.obj
 0002:00002418       ??_C@_07ONJH@logical?$AA@  0042b418     lib_data:gt_generic.obj
 0002:00002420       ??_C@_05PIME@float?$AA@    0042b420     lib_data:gt_generic.obj
 0002:00002428       ??_C@_04EGPJ@date?$AA@     0042b428     lib_data:gt_generic.obj
 0002:00002430       ??_C@_09IMPP@character?$AA@ 0042b430     lib_data:gt_generic.obj
 0002:0000243c       ??_C@_03IBOB@?$CF3d?$AA@   0042b43c     lib_data:gt_generic.obj
 0002:00002440       ??_C@_03DMDD@?5?9?5?$AA@   0042b440     lib_data:gt_generic.obj
 0002:00002444       ??_C@_04GPCF@?5?5?5?5?$AA@ 0042b444     lib_data:gt_generic.obj
 0002:0000244c       ??_C@_0P@PBDO@?5bytes?1record?6?$AA@ 0042b44c     lib_data:gt_generic.obj
 0002:0000245c       ??_C@_09EHKG@?5fields?3?5?$AA@ 0042b45c     lib_data:gt_generic.obj
 0002:00002468       ??_C@_0P@GFPG@?5records?5with?5?$AA@ 0042b468     lib_data:gt_generic.obj
 0002:00002478       ??_C@_03LDCK@?6?5?5?$AA@   0042b478     lib_data:gt_generic.obj
 0002:0000247c       ??_C@_0BB@LNPJ@dBase?5datafile?5v?$AA@ 0042b47c     lib_data:gt_generic.obj
 0002:00002490       ??_C@_06CGGK@?$DMBODY?$DO?$AA@ 0042b490     lib_data:gt_generic.obj
 0002:00002498       ??_C@_06IOIP@?$DMHEAD?$DO?$AA@ 0042b498     lib_data:gt_generic.obj
 0002:000024a0       ??_C@_06JDEH@?$DMHTML?$DO?$AA@ 0042b4a0     lib_data:gt_generic.obj
 0002:000024a8       ??_C@_0M@CDFM@?6?5?5Title?3?5?8?$AA@ 0042b4a8     lib_data:gt_generic.obj
 0002:000024b4       ??_C@_08DKIC@?$DM?1TITLE?$DO?$AA@ 0042b4b4     lib_data:gt_generic.obj
 0002:000024c0       ??_C@_07EGJD@?$DMTITLE?$DO?$AA@ 0042b4c0     lib_data:gt_generic.obj
 0002:000024c8       ??_C@_0CH@JFFH@Hyper?5Text?5Markup?5Language?5?$CIHTML@ 0042b4c8     lib_data:gt_generic.obj
 0002:000024f0       ??_C@_0O@PGIC@?5entries?5?4?4?4?6?$AA@ 0042b4f0     lib_data:gt_generic.obj
 0002:00002500       ??_C@_0BK@KDLP@Truncating?5listing?5after?5?$AA@ 0042b500     lib_data:gt_generic.obj
 0002:0000251c       ??_C@_07OKKO@?5bytes?$CJ?$AA@ 0042b51c     lib_data:gt_generic.obj
 0002:00002524       ??_C@_06OLJP@Data?5?$CI?$AA@ 0042b524     lib_data:gt_generic.obj
 0002:0000252c       ??_C@_02KIEA@?$HM?5?$AA@   0042b52c     lib_data:gt_generic.obj
 0002:00002530       ??_C@_02IHLC@?5?5?$AA@     0042b530     lib_data:gt_generic.obj
 0002:00002534       ??_C@_02HFBK@?3?5?$AA@     0042b534     lib_data:gt_generic.obj
 0002:00002538       ??_C@_05NJPB@?5min?6?$AA@  0042b538     lib_data:gt_generic.obj
 0002:00002540       ??_C@_0BH@BPJK@?6?5?5Playtime?3?5?5?5?5?5?5?5?5?5?5?$AA@ 0042b540     lib_data:gt_generic.obj
 0002:00002558       __real@3f91111111111111    0042b558     lib_data:gt_generic.obj
 0002:00002560       __real@404e000000000000    0042b560     lib_data:gt_generic.obj
 0002:00002568       ??_C@_0BB@LNNC@?5?$CIerror?5in?5data?$CJ?$AA@ 0042b568     lib_data:gt_generic.obj
 0002:0000257c       ??_C@_06CEJE@?5bits?$CJ?$AA@ 0042b57c     lib_data:gt_generic.obj
 0002:00002588       __real@4010000000000000    0042b588     lib_data:gt_generic.obj
 0002:00002590       ??_C@_0BB@GDPN@?5?$CIdecompressed?3?5?$AA@ 0042b590     lib_data:gt_generic.obj
 0002:000025a4       ??_C@_0BH@KCAH@?6?5?5Bits?3?5?5?5?5?5?5?5?5?5?5?5?5?5?5?$AA@ 0042b5a4     lib_data:gt_generic.obj
 0002:000025bc       ??_C@_0BH@OHGD@?6?5?5Average?5bytes?1sec?3?5?$AA@ 0042b5bc     lib_data:gt_generic.obj
 0002:000025d4       ??_C@_0BA@FHHA@?5sample?5frames?$CJ?$AA@ 0042b5d4     lib_data:gt_generic.obj
 0002:000025e4       ??_C@_02NDAK@?5?$CI?$AA@   0042b5e4     lib_data:gt_generic.obj
 0002:000025e8       ??_C@_06GBMF@?5bytes?$AA@  0042b5e8     lib_data:gt_generic.obj
 0002:000025f0       ??_C@_0BH@OHAP@?5bytes?5?$CIdecompressed?3?5?$AA@ 0042b5f0     lib_data:gt_generic.obj
 0002:00002608       ??_C@_0BO@MAEM@found?5error?5in?5data?5structure?$AA@ 0042b608     lib_data:gt_generic.obj
 0002:00002628       ??_C@_0BH@PCIM@?6?5?5Data?5size?3?5?5?5?5?5?5?5?5?5?$AA@ 0042b628     lib_data:gt_generic.obj
 0002:00002640       ??_C@_0BA@BDOF@?5?$CInon?5standard?$CJ?$AA@ 0042b640     lib_data:gt_generic.obj
 0002:00002650       ??_C@_0BH@JHOJ@?6?5?5Sampling?5rate?3?5?5?5?5?5?$AA@ 0042b650     lib_data:gt_generic.obj
 0002:00002668       ??_C@_07HFLI@?5?$CImono?$CJ?$AA@ 0042b668     lib_data:gt_generic.obj
 0002:00002670       ??_C@_09CGBC@?5?$CIstereo?$CJ?$AA@ 0042b670     lib_data:gt_generic.obj
 0002:0000267c       ??_C@_0BA@CIEF@?5?$CIquadrophonic?$CJ?$AA@ 0042b67c     lib_data:gt_generic.obj
 0002:0000268c       ??_C@_0BH@IIHP@?6?5?5Channels?3?5?5?5?5?5?5?5?5?5?5?$AA@ 0042b68c     lib_data:gt_generic.obj
 0002:000026a4       ??_C@_0BF@NBCO@?5?$CIcompressed?5?9?5type?5?$AA@ 0042b6a4     lib_data:gt_generic.obj
 0002:000026c0       __real@4030000000000000    0042b6c0     lib_data:gt_generic.obj
 0002:000026c8       ??_C@_0BG@CBFD@Wave?5music?5file?5?$CIWAV?$CJ?$AA@ 0042b6c8     lib_data:gt_generic.obj
 0002:000026e0       ??_C@_0BD@ODBC@EMU?5SoundFont?5bank?$AA@ 0042b6e0     lib_data:gt_generic.obj
 0002:000026f4       ??_C@_0BK@GJLG@RIFF?5File?3?5unknown?5type?5?8?$AA@ 0042b6f4     lib_data:gt_generic.obj
 0002:00002710       ??_C@_0CB@CMII@Corel?5Draw?59?5template?5file?5?$CICDT?$CJ@ 0042b710     lib_data:gt_generic.obj
 0002:00002734       ??_C@_0CB@LMML@Corel?5Draw?58?5template?5file?5?$CICDT?$CJ@ 0042b734     lib_data:gt_generic.obj
 0002:00002758       ??_C@_0CA@BAJA@Corel?5Draw?59?5graphic?5file?5?$CICDR?$CJ?$AA@ 0042b758     lib_data:gt_generic.obj
 0002:00002778       ??_C@_0CA@FDGO@Corel?5Draw?58?5graphic?5file?5?$CICDR?$CJ?$AA@ 0042b778     lib_data:gt_generic.obj
 0002:00002798       ??_C@_0CA@IHGE@Corel?5Draw?57?5graphic?5file?5?$CICDR?$CJ?$AA@ 0042b798     lib_data:gt_generic.obj
 0002:000027b8       ??_C@_0CB@MPBP@Corel?5Draw?57?5template?5file?5?$CICDT?$CJ@ 0042b7b8     lib_data:gt_generic.obj
 0002:000027dc       ??_C@_0CB@FPFM@Corel?5Draw?56?5template?5file?5?$CICDT?$CJ@ 0042b7dc     lib_data:gt_generic.obj
 0002:00002800       ??_C@_0BG@HEKL@Animation?5Video?5?$CIAVI?$CJ?$AA@ 0042b800     lib_data:gt_generic.obj
 0002:00002818       ??_C@_0CA@MEJK@Corel?5Draw?56?5graphic?5file?5?$CICDR?$CJ?$AA@ 0042b818     lib_data:gt_generic.obj
 0002:00002838       ??_C@_06EKIF@GLOBAL?$AA@   0042b838     lib_data:gt_generic.obj
 0002:00002840       ??_C@_07JBJC@PROCESS?$AA@  0042b840     lib_data:gt_generic.obj
 0002:00002848       ??_C@_08FBFM@BUSINESS?$AA@ 0042b848     lib_data:gt_generic.obj
 0002:00002854       ??_C@_0M@BPFA@ENVIRONMENT?$AA@ 0042b854     lib_data:gt_generic.obj
 0002:00002860       ??_C@_07CNDI@WORKING?$AA@  0042b860     lib_data:gt_generic.obj
 0002:00002868       ??_C@_06JPM@PUBLIC?$AA@    0042b868     lib_data:gt_generic.obj
 0002:00002870       ??_C@_09MEAK@PROTECTED?$AA@ 0042b870     lib_data:gt_generic.obj
 0002:0000287c       ??_C@_07MLHL@PRIVATE?$AA@  0042b87c     lib_data:gt_generic.obj
 0002:00002884       ??_C@_07PAAE@PACKAGE?$AA@  0042b884     lib_data:gt_generic.obj
 0002:0000288c       ??_C@_06JJAJ@IMPORT?$AA@   0042b88c     lib_data:gt_generic.obj
 0002:00002894       ??_C@_07GCLH@TYPEDEF?$AA@  0042b894     lib_data:gt_generic.obj
 0002:0000289c       ??_C@_06MFEF@STRUCT?$AA@   0042b89c     lib_data:gt_generic.obj
 0002:000028a4       ??_C@_06MJBA@STATIC?$AA@   0042b8a4     lib_data:gt_generic.obj
 0002:000028ac       ??_C@_06PJFI@INLINE?$AA@   0042b8ac     lib_data:gt_generic.obj
 0002:000028b4       ??_C@_06EJFL@EXTERN?$AA@   0042b8b4     lib_data:gt_generic.obj
 0002:000028bc       ??_C@_04GAEI@ENUM?$AA@     0042b8bc     lib_data:gt_generic.obj
 0002:000028c4       ??_C@_05NNCA@CLASS?$AA@    0042b8c4     lib_data:gt_generic.obj
 0002:000028cc       ??_C@_07MOPA@?$CDPRAGMA?$AA@ 0042b8cc     lib_data:gt_generic.obj
 0002:000028d4       ??_C@_05IFJE@?$CDLINE?$AA@ 0042b8d4     lib_data:gt_generic.obj
 0002:000028dc       ??_C@_09KEHJ@?$CD?5INCLUDE?$AA@ 0042b8dc     lib_data:gt_generic.obj
 0002:000028e8       ??_C@_08HDNH@?$CDINCLUDE?$AA@ 0042b8e8     lib_data:gt_generic.obj
 0002:000028f4       ??_C@_08EGCI@?$CD?5IFNDEF?$AA@ 0042b8f4     lib_data:gt_generic.obj
 0002:00002900       ??_C@_07OIDH@?$CDIFNDEF?$AA@ 0042b900     lib_data:gt_generic.obj
 0002:00002908       ??_C@_07EHNL@?$CD?5IFDEF?$AA@ 0042b908     lib_data:gt_generic.obj
 0002:00002910       ??_C@_06FIDB@?$CDIFDEF?$AA@ 0042b910     lib_data:gt_generic.obj
 0002:00002918       ??_C@_04NEII@?$CD?5IF?$AA@ 0042b918     lib_data:gt_generic.obj
 0002:00002920       ??_C@_03OHAH@?$CDIF?$AA@   0042b920     lib_data:gt_generic.obj
 0002:00002924       ??_C@_08BJBN@?$CD?5DEFINE?$AA@ 0042b924     lib_data:gt_generic.obj
 0002:00002930       ??_C@_07LHAC@?$CDDEFINE?$AA@ 0042b930     lib_data:gt_generic.obj
 0002:00002938       ??_C@_07LHEB@DOMAINS?$AA@  0042b938     lib_data:gt_generic.obj
 0002:00002940       ??_C@_0L@HDNC@PREDICATES?$AA@ 0042b940     lib_data:gt_generic.obj
 0002:0000294c       ??_C@_0CK@KKAK@Error?3?5Failed?5to?5init?5source?5ana@ 0042b94c     lib_data:gt_generic.obj
 0002:00002978       ??_C@_0P@LLLH@IMPLEMENTATION?$AA@ 0042b978     lib_data:gt_generic.obj
 0002:00002988       ??_C@_0L@GBDC@DEFINITION?$AA@ 0042b988     lib_data:gt_generic.obj
 0002:00002994       ??_C@_06PBLN@MODULE?$AA@   0042b994     lib_data:gt_generic.obj
 0002:0000299c       ??_C@_03KNCG@VAR?$AA@      0042b99c     lib_data:gt_generic.obj
 0002:000029a0       ??_C@_04PGOJ@USES?$AA@     0042b9a0     lib_data:gt_generic.obj
 0002:000029a8       ??_C@_04JHII@TYPE?$AA@     0042b9a8     lib_data:gt_generic.obj
 0002:000029b0       ??_C@_08JBAL@FUNCTION?$AA@ 0042b9b0     lib_data:gt_generic.obj
 0002:000029bc       ??_C@_09HPKL@PROCEDURE?$AA@ 0042b9bc     lib_data:gt_generic.obj
 0002:000029c8       ??_C@_04OHGB@UNIT?$AA@     0042b9c8     lib_data:gt_generic.obj
 0002:000029d0       ??_C@_07PBFP@LIBRARY?$AA@  0042b9d0     lib_data:gt_generic.obj
 0002:000029d8       ??_C@_07NOJH@PROGRAM?$AA@  0042b9d8     lib_data:gt_generic.obj
 0002:000029e0       ??_C@_0CJ@MGOO@Error?3?5Failed?5to?5init?5source?5ana@ 0042b9e0     lib_data:gt_generic.obj
 0002:00002a0c       ??_C@_0CF@NDAO@Error?3?5failed?5to?5read?5from?5the?5f@ 0042ba0c     lib_data:gt_generic.obj
 0002:00002a34       ??_C@_0P@HAGC@internal?5error?$AA@ 0042ba34     lib_data:gt_generic.obj
 0002:00002a44       ??_C@_0P@GDAH@gt_generic?4cxx?$AA@ 0042ba44     lib_data:gt_generic.obj
 0002:00002a54       ??_C@_02BIMI@?8?$CJ?$AA@   0042ba54     lib_data:gt_generic.obj
 0002:00002a58       ??_C@_0CL@JMMO@ADONIS?5export?5file?1library?5?$CIfirs@ 0042ba58     lib_data:gt_generic.obj
 0002:00002a84       ??_C@_0BH@NBAF@JavaScript?5source?5code?$AA@ 0042ba84     lib_data:gt_generic.obj
 0002:00002a9c       ??_C@_0BB@GCPG@Java?5source?5code?$AA@ 0042ba9c     lib_data:gt_generic.obj
 0002:00002ab0       ??_C@_0BC@JIG@C?1C?$CL?$CL?5source?5code?$AA@ 0042bab0     lib_data:gt_generic.obj
 0002:00002ac4       ??_C@_0BD@GFLE@Prolog?5source?5code?$AA@ 0042bac4     lib_data:gt_generic.obj
 0002:00002ad8       ??_C@_0BN@FJIB@Modula?5implementation?5file?5?8?$AA@ 0042bad8     lib_data:gt_generic.obj
 0002:00002af8       ??_C@_0BJ@ELHE@Modula?5definition?5file?5?8?$AA@ 0042baf8     lib_data:gt_generic.obj
 0002:00002b14       ??_C@_0BB@HOCE@Modula?5program?5?8?$AA@ 0042bb14     lib_data:gt_generic.obj
 0002:00002b28       ??_C@_0BD@ENCJ@Pascal?5source?5code?$AA@ 0042bb28     lib_data:gt_generic.obj
 0002:00002b3c       ??_C@_0BC@PJDL@Pascal?5function?5?8?$AA@ 0042bb3c     lib_data:gt_generic.obj
 0002:00002b50       ??_C@_0BD@CFLG@Pascal?5procedure?5?8?$AA@ 0042bb50     lib_data:gt_generic.obj
 0002:00002b64       ??_C@_0O@LKDH@Pascal?5unit?5?8?$AA@ 0042bb64     lib_data:gt_generic.obj
 0002:00002b74       ??_C@_0BB@IIEE@Pascal?5library?5?8?$AA@ 0042bb74     lib_data:gt_generic.obj
 0002:00002b88       ??_C@_0BB@GENI@Pascal?5program?5?8?$AA@ 0042bb88     lib_data:gt_generic.obj
 0002:00002b9c       ??_C@_02LFJB@?8?6?$AA@     0042bb9c     lib_data:gt_generic.obj
 0002:00002ba0       ??_C@_0DG@IJFC@Error?3?5failed?5to?5read?5the?5name?5o@ 0042bba0     lib_data:gt_generic.obj
 0002:00002bd8       ??_C@_0CN@CKBA@Error?3?5failed?5to?5init?5true?5type?5@ 0042bbd8     lib_data:gt_generic.obj
 0002:00002c08       ??_C@_0BA@LOFM@Truetype?5font?5?8?$AA@ 0042bc08     lib_data:gt_generic.obj
 0002:00002c18       ??_C@_0BC@NNFD@BGI?5device?5driver?$AA@ 0042bc18     lib_data:gt_generic.obj
 0002:00002c2c       ??_C@_0BJ@EPON@Kodak?5PhotoCD?5image?5file?$AA@ 0042bc2c     lib_data:gt_generic.obj
 0002:00002c48       ??_C@_07BOHK@PCD_IPI?$AA@  0042bc48     lib_data:gt_generic.obj
 0002:00002c50       ??_C@_0CF@LNJI@DER?5encoded?5binary?5X?4509?5certifi@ 0042bc50     lib_data:gt_generic.obj
 0002:00002c78       ??_C@_08KAJH@PMWLite?5?$AA@ 0042bc78     lib_data:gt_generic.obj
 0002:00002c84       ??_C@_0BM@IPGF@Microsoft?5debug?5information?$AA@ 0042bc84     lib_data:gt_generic.obj
 0002:00002ca0       ??_C@_0DF@GDEB@Common?5Object?5File?5Format?5?$CICOFF?$CJ@ 0042bca0     lib_data:gt_generic.obj
 0002:00002cd8       ??_C@_0BJ@JEEM@FPK?5Pascal?5?$CFc?4?$CFc?$CFc?5unit?6?$AA@ 0042bcd8     lib_data:gt_generic.obj
 0002:00002cf4       ??_C@_0BG@CMH@Macromedia?5Flash?5file?$AA@ 0042bcf4     lib_data:gt_generic.obj
 0002:00002d0c       ??_C@_0BH@FEAC@Compiled?5resource?5file?$AA@ 0042bd0c     lib_data:gt_generic.obj
 0002:00002d24       ??_C@_0BE@CCII@PKCS?5?$CD7?5certificate?$AA@ 0042bd24     lib_data:gt_generic.obj
 0002:00002d38       ??_C@_0BF@HGKH@QuickTime?5movie?5file?$AA@ 0042bd38     lib_data:gt_generic.obj
 0002:00002d50       ??_C@_0CG@OBML@Symantec?5Internet?5Tools?5Data?5Fil@ 0042bd50     lib_data:gt_generic.obj
 0002:00002d78       ??_C@_0BN@MALK@DemoShield?5presentation?5file?$AA@ 0042bd78     lib_data:gt_generic.obj
 0002:00002d98       ??_C@_0DA@HBME@OLE2?5document?5?$CIWinword?0?5Excel?0?5S@ 0042bd98     lib_data:gt_generic.obj
 0002:00002dc8       ??_C@_0BH@HNCA@Compiled?5Java?5bytecode?$AA@ 0042bdc8     lib_data:gt_generic.obj
 0002:00002de0       ??_C@_0M@NPA@MPEG?5movie?5?$AA@ 0042bde0     lib_data:gt_generic.obj
 0002:00002dec       ??_C@_0BH@EJHA@?5?$FLhigh?5security?5level?$FN?$AA@ 0042bdec     lib_data:gt_generic.obj
 0002:00002e04       ??_C@_04LGDF@?$CF02d?$AA@  0042be04     lib_data:gt_generic.obj
 0002:00002e0c       ??_C@_08PLGD@Crypt?$CB?5v?$AA@ 0042be0c     lib_data:gt_generic.obj
 0002:00002e18       ??_C@_0BD@KMEF@?6?5?5Size?5in?5pixel?3?5?$AA@ 0042be18     lib_data:gt_generic.obj
 0002:00002e2c       ??_C@_0CP@OEFC@Windows?5Metafile?5image?6?6?5?5Coordi@ 0042be2c     lib_data:gt_generic.obj
 0002:00002e5c       ??_C@_0BB@CKG@MS?5C?1C?$CL?$CL?5library?$AA@ 0042be5c     lib_data:gt_generic.obj
 0002:00002e70       ??_C@_0BL@HCNO@Borland?5overlay?5file?5?$CIOVR?$CJ?$AA@ 0042be70     lib_data:gt_generic.obj
 0002:00002e8c       ??_C@_0BN@MIEN@Fractal?5Extreme?5palette?5file?$AA@ 0042be8c     lib_data:gt_generic.obj
 0002:00002eac       ??_C@_0BP@PHCD@Borland?5Delphi?53?14?5form?5module?$AA@ 0042beac     lib_data:gt_generic.obj
 0002:00002ecc       ??_C@_09CFG@?6?5?5Size?3?5?$AA@ 0042becc     lib_data:gt_generic.obj
 0002:00002ed8       ??_C@_0BD@IEMI@Photoshop?52?45?5file?$AA@ 0042bed8     lib_data:gt_generic.obj
 0002:00002eec       ??_C@_0BM@NDJF@Microsoft?5Quick?5Pascal?5unit?$AA@ 0042beec     lib_data:gt_generic.obj
 0002:00002f08       ??_C@_0BL@IJAF@Fractal?5Extreme?5movie?5file?$AA@ 0042bf08     lib_data:gt_generic.obj
 0002:00002f24       ??_C@_0BD@GDNM@Links?5LS?5shot?5file?$AA@ 0042bf24     lib_data:gt_generic.obj
 0002:00002f38       ??_C@_0BG@OKCE@MS?5Compress?56?422?5file?$AA@ 0042bf38     lib_data:gt_generic.obj
 0002:00002f50       ??_C@_0CB@NOHC@NuMega?5BoundsChecker?5result?5file@ 0042bf50     lib_data:gt_generic.obj
 0002:00002f74       ??_C@_0BG@NALF@Borland?5Delphi?54?5unit?$AA@ 0042bf74     lib_data:gt_generic.obj
 0002:00002f8c       ??_C@_08BMBJ@16777216?$AA@ 0042bf8c     lib_data:gt_generic.obj
 0002:00002f98       ??_C@_0BC@MKHP@?5?$FLnon?5interlaced?$FN?$AA@ 0042bf98     lib_data:gt_generic.obj
 0002:00002fac       ??_C@_0O@KCEJ@?5?$FLinterlaced?$FN?$AA@ 0042bfac     lib_data:gt_generic.obj
 0002:00002fbc       ??_C@_0L@JBJP@PiNG?5image?$AA@ 0042bfbc     lib_data:gt_generic.obj
 0002:00002fc8       ??_C@_0BP@JOOM@Windows?5registry?5file?5?$CIbinary?$CJ?$AA@ 0042bfc8     lib_data:gt_generic.obj
 0002:00002fe8       ??_C@_0BC@PDHM@MS?5HTML?9Help?5file?$AA@ 0042bfe8     lib_data:gt_generic.obj
 0002:00002ffc       ??_C@_0BK@GENC@?5?5File?5has?5no?5entrypoint?6?$AA@ 0042bffc     lib_data:gt_generic.obj
 0002:00003018       ??_C@_0M@MGBK@MIPS?5RS3000?$AA@ 0042c018     lib_data:gt_generic.obj
 0002:00003024       ??_C@_0M@OOAB@Intel?580860?$AA@ 0042c024     lib_data:gt_generic.obj
 0002:00003030       ??_C@_0P@PLIO@Motorola?588000?$AA@ 0042c030     lib_data:gt_generic.obj
 0002:00003040       ??_C@_0P@DKHL@Motorola?568000?$AA@ 0042c040     lib_data:gt_generic.obj
 0002:00003050       ??_C@_0M@LFFG@Intel?580386?$AA@ 0042c050     lib_data:gt_generic.obj
 0002:0000305c       ??_C@_05IKFG@SPARC?$AA@    0042c05c     lib_data:gt_generic.obj
 0002:00003064       ??_C@_0O@JPGL@AT?$CGT?5WE?532100?$AA@ 0042c064     lib_data:gt_generic.obj
 0002:00003074       ??_C@_0L@HNJD@no?5machine?$AA@ 0042c074     lib_data:gt_generic.obj
 0002:00003080       ??_C@_0BC@JGIB@?6?5?5Machine?5type?3?5?$AA@ 0042c080     lib_data:gt_generic.obj
 0002:00003094       ??_C@_0O@CDCN@Little?5Endian?$AA@ 0042c094     lib_data:gt_generic.obj
 0002:000030a4       ??_C@_0L@PMNN@Big?5Endian?$AA@ 0042c0a4     lib_data:gt_generic.obj
 0002:000030b0       ??_C@_0BI@LCFB@?5file?6?5?5Data?5encoding?3?5?$AA@ 0042c0b0     lib_data:gt_generic.obj
 0002:000030c8       ??_C@_07CAMD@unknown?$AA@  0042c0c8     lib_data:gt_generic.obj
 0002:000030d0       ??_C@_0BD@GMG@processor?5specific?$AA@ 0042c0d0     lib_data:gt_generic.obj
 0002:000030e4       ??_C@_04LHHK@core?$AA@     0042c0e4     lib_data:gt_generic.obj
 0002:000030ec       ??_C@_0O@DPG@shared?5object?$AA@ 0042c0ec     lib_data:gt_generic.obj
 0002:000030fc       ??_C@_0L@CCGI@executable?$AA@ 0042c0fc     lib_data:gt_generic.obj
 0002:00003108       ??_C@_0BF@ECDK@relocatable?5?$CIobject?$CJ?$AA@ 0042c108     lib_data:gt_generic.obj
 0002:00003120       ??_C@_07KLCM@invalid?$AA@  0042c120     lib_data:gt_generic.obj
 0002:00003128       ??_C@_07EIN@32?9bit?5?$AA@ 0042c128     lib_data:gt_generic.obj
 0002:00003130       ??_C@_07ONIO@64?9bit?5?$AA@ 0042c130     lib_data:gt_generic.obj
 0002:00003138       ??_C@_0M@IOJF@Unix?1Linux?5?$AA@ 0042c138     lib_data:gt_generic.obj
 0002:00003144       ??_C@_0BH@CDDN@Turbo?5Vision?5help?5file?$AA@ 0042c144     lib_data:gt_generic.obj
 0002:0000315c       ??_C@_0BG@DINF@Borland?5Delphi?53?5unit?$AA@ 0042c15c     lib_data:gt_generic.obj
 0002:00003174       ??_C@_08JBDK@?$CI0x?$CF02X?$CJ?$AA@ 0042c174     lib_data:gt_generic.obj
 0002:00003180       ??_C@_0BA@CPGP@?5?5unknown?5type?5?$AA@ 0042c180     lib_data:gt_generic.obj
 0002:00003190       ??_C@_08PKCC@?5colors?$CJ?$AA@ 0042c190     lib_data:gt_generic.obj
 0002:0000319c       ??_C@_0L@MMCA@?5?$CIVersion?5?$AA@ 0042c19c     lib_data:gt_generic.obj
 0002:000031a8       ??_C@_0N@IKJL@?5?$CIencrypted?$CJ?$AA@ 0042c1a8     lib_data:gt_generic.obj
 0002:000031b8       ??_C@_09NIDP@?5?$CI0x?$CF02X?$CJ?$AA@ 0042c1b8     lib_data:gt_generic.obj
 0002:000031c4       ??_C@_05EHLP@?5file?$AA@   0042c1c4     lib_data:gt_generic.obj
 0002:000031cc       ??_C@_0M@JAKC@Wordperfect?$AA@ 0042c1cc     lib_data:gt_generic.obj
 0002:000031d8       ??_C@_0BH@PJND@Virtual?5Pascal?5Unit?5v3?$AA@ 0042c1d8     lib_data:gt_generic.obj
 0002:000031f0       ??_C@_0CG@NOIG@Borland?5precompiled?5header?5file?5@ 0042c1f0     lib_data:gt_generic.obj
 0002:00003218       ??_C@_0BP@MMF@Microsoft?5workspace?5file?5?$CIMDP?$CJ?$AA@ 0042c218     lib_data:gt_generic.obj
 0002:00003238       ??_C@_0CI@OEJJ@Microsoft?5browse?5information?5fil@ 0042c238     lib_data:gt_generic.obj
 0002:00003260       ??_C@_0BJ@MCMN@Lotus?5Notes?54?45?5database?$AA@ 0042c260     lib_data:gt_generic.obj
 0002:0000327c       ??_C@_0O@PBEH@IBM?5Help?5file?$AA@ 0042c27c     lib_data:gt_generic.obj
 0002:0000328c       ??_C@_0BI@PODO@MS?5Visual?5C?$CL?$CL?5help?5file?$AA@ 0042c28c     lib_data:gt_generic.obj
 0002:000032a4       ??_C@_0BB@EJO@BGI?5stroked?5font?$AA@ 0042c2a4     lib_data:gt_generic.obj
 0002:000032b8       ??_C@_0BD@BOLE@Winword?52?5document?$AA@ 0042c2b8     lib_data:gt_generic.obj
 0002:000032cc       ??_C@_0BE@DJCE@Lotus?5123?5worksheet?$AA@ 0042c2cc     lib_data:gt_generic.obj
 0002:000032e0       ??_C@_0BA@LJHI@C?$CL?$CL?5symbol?5file?$AA@ 0042c2e0     lib_data:gt_generic.obj
 0002:000032f0       ??_C@_0BD@FKKN@Phar?5Lap?5?4EXP?5file?$AA@ 0042c2f0     lib_data:gt_generic.obj
 0002:00003304       ??_C@_09ODOA@?5image?$CIs?$CJ?$AA@ 0042c304     lib_data:gt_generic.obj
 0002:00003310       ??_C@_0BA@OMBA@Icon?5file?5with?5?$AA@ 0042c310     lib_data:gt_generic.obj
 0002:00003320       ??_C@_0CL@EJFP@Compiled?5installShield?5installat@ 0042c320     lib_data:gt_generic.obj
 0002:0000334c       ??_C@_0BF@CPK@MS?5Excel?54?5worksheet?$AA@ 0042c34c     lib_data:gt_generic.obj
 0002:00003364       ??_C@_0M@GDLJ@?5help?5file?6?$AA@ 0042c364     lib_data:gt_generic.obj
 0002:00003370       ??_C@_03IIJF@3?4x?$AA@     0042c370     lib_data:gt_generic.obj
 0002:00003374       ??_C@_05DHKF@95?198?$AA@   0042c374     lib_data:gt_generic.obj
 0002:0000337c       ??_C@_08NHBK@Windows?5?$AA@ 0042c37c     lib_data:gt_generic.obj
 0002:00003388       ??_C@_0CN@JMIJ@Windows?5mouse?5cursor?5file?1Works?5@ 0042c388     lib_data:gt_generic.obj
 0002:000033b8       ??_C@_0BP@OAHE@MS?5Word?5for?5DOS?1Write?5document?$AA@ 0042c3b8     lib_data:gt_generic.obj
 0002:000033d8       ??_C@_0BN@LLNL@installShield?5uninstall?5file?$AA@ 0042c3d8     lib_data:gt_generic.obj
 0002:000033f8       ??_C@_0BB@JCLM@C?$CL?$CL?5library?5file?$AA@ 0042c3f8     lib_data:gt_generic.obj
 0002:0000340c       ??_C@_0BH@HJLF@FPK?5Pascal?5object?5file?$AA@ 0042c40c     lib_data:gt_generic.obj
 0002:00003424       ??_C@_0BG@ILJG@Windows?5shortcut?5file?$AA@ 0042c424     lib_data:gt_generic.obj
 0002:0000343c       ??_C@_0CA@DEOJ@Windows?5Enhanced?5Metafile?5image?$AA@ 0042c43c     lib_data:gt_generic.obj
 0002:0000345c       ??_C@_0BH@HAJA@Windows?5PIF?5file?5for?5?8?$AA@ 0042c45c     lib_data:gt_generic.obj
 0002:00003474       ??_C@_0BA@FLND@MICROSOFT?5PIFEX?$AA@ 0042c474     lib_data:gt_generic.obj
 0002:00003484       ??_C@_0CF@OIHC@Microsoft?5Access?5database?5file?5?$CI@ 0042c484     lib_data:gt_generic.obj
 0002:000034ac       ??_C@_0BA@FLHA@Standard?5Jet?5DB?$AA@ 0042c4ac     lib_data:gt_generic.obj
 0002:000034bc       ??_C@_0BM@BMCK@Sony?5PlayStation?5executable?$AA@ 0042c4bc     lib_data:gt_generic.obj
 0002:000034d8       ??_C@_08IDDJ@PS?9X?5EXE?$AA@ 0042c4d8     lib_data:gt_generic.obj
 0002:000034e4       ??_C@_0CH@FAJ@Norton?5Utilities?5Disk?5Doctor?5und@ 0042c4e4     lib_data:gt_generic.obj
 0002:0000350c       ??_C@_08NNAC@PNCIUNDO?$AA@ 0042c50c     lib_data:gt_generic.obj
 0002:00003518       ??_C@_0BH@OADF@Armadillo?5project?5file?$AA@ 0042c518     lib_data:gt_generic.obj
 0002:00003530       ??_C@_08LIKB@ARMV0006?$AA@ 0042c530     lib_data:gt_generic.obj
 0002:0000353c       ??_C@_0BG@PEJG@Lotus?5AmiPro?5document?$AA@ 0042c53c     lib_data:gt_generic.obj
 0002:00003554       ??_C@_08EOIF@?$FLver?$FN?$AN?6?7?$AA@ 0042c554     lib_data:gt_generic.obj
 0002:00003560       ??_C@_0BH@OAAC@Lotus?5WordPro?5document?$AA@ 0042c560     lib_data:gt_generic.obj
 0002:00003578       ??_C@_07FCGO@WordPro?$AA@  0042c578     lib_data:gt_generic.obj
 0002:00003580       ??_C@_0BO@OHIF@Microsoft?5profiler?5file?5?$CIPBI?$CJ?$AA@ 0042c580     lib_data:gt_generic.obj
 0002:000035a0       ??_C@_07MJIC@MS?9PROF?$AA@ 0042c5a0     lib_data:gt_generic.obj
 0002:000035a8       ??_C@_0BM@KOD@ARJ?5self?5extracting?5archive?$AA@ 0042c5a8     lib_data:gt_generic.obj
 0002:000035c4       ??_C@_07NMKB@ARJ_SFX?$AA@  0042c5c4     lib_data:gt_generic.obj
 0002:000035cc       ??_C@_0CI@OCNI@Microsoft?5precompiled?5header?5fil@ 0042c5cc     lib_data:gt_generic.obj
 0002:000035f4       ??_C@_06DAKE@VCPCH0?$AA@   0042c5f4     lib_data:gt_generic.obj
 0002:000035fc       ??_C@_0BI@FPDO@Pax?5Imperia?52?5save?5game?$AA@ 0042c5fc     lib_data:gt_generic.obj
 0002:00003614       ??_C@_06LMP@IImGxP?$AA@    0042c614     lib_data:gt_generic.obj
 0002:0000361c       ??_C@_0BP@LGPB@IDA?5DLL?5description?5file?5?$CIIDS?$CJ?$AA@ 0042c61c     lib_data:gt_generic.obj
 0002:0000363c       ??_C@_06OMLB@IDAIDS?$AA@   0042c63c     lib_data:gt_generic.obj
 0002:00003644       ??_C@_06BBOD@GIF89a?$AA@   0042c644     lib_data:gt_generic.obj
 0002:0000364c       ??_C@_06NDEI@GIF87a?$AA@   0042c64c     lib_data:gt_generic.obj
 0002:00003654       ??_C@_0BL@CNIK@Jerusalem?5virus?5protection?$AA@ 0042c654     lib_data:gt_generic.obj
 0002:00003670       ??_C@_05CLDB@MsDos?$AA@    0042c670     lib_data:gt_generic.obj
 0002:00003678       ??_C@_0CB@PDH@Microsoft?5C?1C?$CL?$CL?5program?5database@ 0042c678     lib_data:gt_generic.obj
 0002:0000369c       ??_C@_0CA@FBHJ@Turbo?5Pascal?5Configuration?5File?$AA@ 0042c69c     lib_data:gt_generic.obj
 0002:000036bc       ??_C@_0BK@FNFL@Paint?5Shop?5Pro?5Image?5File?$AA@ 0042c6bc     lib_data:gt_generic.obj
 0002:000036d8       ??_C@_0BK@PKAH@Microsoft?5Linker?5Database?$AA@ 0042c6d8     lib_data:gt_generic.obj
 0002:000036f4       ??_C@_0BH@OOHH@Turbo?5Pascal?5Help?5File?$AA@ 0042c6f4     lib_data:gt_generic.obj
 0002:0000370c       ??_C@_0BH@NMMG@TURBO?5PASCAL?5HELP?5FILE?$AA@ 0042c70c     lib_data:gt_generic.obj
 0002:00003724       ??_C@_0DC@DLBP@Thunderbyte?5checksum?5?1?5cleaning?5@ 0042c724     lib_data:gt_generic.obj
 0002:00003758       ??_C@_0BF@KLPO@Thunderbyte?5checksum?$AA@ 0042c758     lib_data:gt_generic.obj
 0002:00003770       ??_C@_0BM@NION@Paint?5Shop?5Pro?5Browser?5File?$AA@ 0042c770     lib_data:gt_generic.obj
 0002:0000378c       ??_C@_0BA@OBJG@JASC?5BROWS?5FILE?$AA@ 0042c78c     lib_data:gt_generic.obj
 0002:0000379c       ??_C@_0BN@IHMN@Internet?5Explorer?5Cache?5File?$AA@ 0042c79c     lib_data:gt_generic.obj
 0002:000037bc       ??_C@_0BA@KDMF@Client?5UrlCache?$AA@ 0042c7bc     lib_data:gt_generic.obj
 0002:000037cc       ??_C@_0BA@BPMO@McAfee?5checksum?$AA@ 0042c7cc     lib_data:gt_generic.obj
 0002:000037dc       ??_C@_0N@LANK@?$DO?$DO?$DOMcA1ph?$DM?$DM?$DM?$AA@ 0042c7dc     lib_data:gt_generic.obj
 0002:000037ec       ??_C@_0BE@JJOG@ZSoft?5PCX?5image?5?9?9?5?$AA@ 0042c7ec     lib_data:gt_generic.obj
 0002:00003800       ??_C@_0P@PLGE@MAC?5image?5file?$AA@ 0042c800     lib_data:gt_generic.obj
 0002:00003810       ??_C@_08LLG@?5seconds?$AA@ 0042c810     lib_data:gt_generic.obj
 0002:00003820       __real@3f8d41d41d41d41d    0042c820     lib_data:gt_generic.obj
 0002:00003828       ??_C@_04LOLD@?$CF?42f?$AA@ 0042c828     lib_data:gt_generic.obj
 0002:00003830       ??_C@_0BB@FPHN@?6?5?5frame?5delay?3?5?$AA@ 0042c830     lib_data:gt_generic.obj
 0002:00003844       ??_C@_07DIJF@?5frames?$AA@ 0042c844     lib_data:gt_generic.obj
 0002:0000384c       ??_C@_0L@MKMF@?5colors?6?5?5?$AA@ 0042c84c     lib_data:gt_generic.obj
 0002:00003858       ??_C@_04BMII@?5?9?9?5?$AA@ 0042c858     lib_data:gt_generic.obj
 0002:00003860       ??_C@_0BA@CEBB@?5animation?5file?$AA@ 0042c860     lib_data:gt_generic.obj
 0002:00003870       ??_C@_03HGPP@FLC?$AA@      0042c870     lib_data:gt_generic.obj
 0002:00003874       ??_C@_03HHGJ@FLI?$AA@      0042c874     lib_data:gt_generic.obj
 0002:00003878       ??_C@_05IMOO@?5unit?$AA@   0042c878     lib_data:gt_generic.obj
 0002:00003880       ??_C@_08LFPJ@Delphi?51?$AA@ 0042c880     lib_data:gt_generic.obj
 0002:0000388c       ??_C@_03DBLH@7?40?$AA@     0042c88c     lib_data:gt_generic.obj
 0002:00003890       ??_C@_03GDKB@6?40?$AA@     0042c890     lib_data:gt_generic.obj
 0002:00003894       ??_C@_03JFFB@5?45?$AA@     0042c894     lib_data:gt_generic.obj
 0002:00003898       ??_C@_03JFJK@5?40?$AA@     0042c898     lib_data:gt_generic.obj
 0002:0000389c       ??_C@_03MHIM@4?40?$AA@     0042c89c     lib_data:gt_generic.obj
 0002:000038a0       ??_C@_0O@PMDC@Turbo?5Pascal?5?$AA@ 0042c8a0     lib_data:gt_generic.obj
 0002:000038b0       ??_C@_0BB@MOAE@Perl?5source?5file?$AA@ 0042c8b0     lib_data:gt_generic.obj
 0002:000038c4       ??_C@_0BD@HBCK@BAT?1CMD?5batch?5file?$AA@ 0042c8c4     lib_data:gt_generic.obj
 0002:000038d8       ??_C@_08JOLP@ECHO?5OFF?$AA@ 0042c8d8     lib_data:gt_generic.obj
 0002:000038e4       ??_C@_0BG@DNNO@ibo?5Ablauf?9Profi?5file?$AA@ 0042c8e4     lib_data:gt_generic.obj
 0002:000038fc       ??_C@_0BB@ICDK@ibo?5Ablauf?9Profi?$AA@ 0042c8fc     lib_data:gt_generic.obj
 0002:00003910       ??_C@_0BA@HFDJ@?$CD?$CB?1USR?1BIN?1PERL?$AA@ 0042c910     lib_data:gt_generic.obj
 0002:00003920       ??_C@_0BG@BJID@?$CD?$CB?1USR?1LOCAL?1BIN?1PERL?$AA@ 0042c920     lib_data:gt_generic.obj
 0002:00003938       ??_C@_0BI@MMEK@Virtual?5Card?5File?5?$CIVCF?$CJ?$AA@ 0042c938     lib_data:gt_generic.obj
 0002:00003950       ??_C@_0M@COMM@begin?3vcard?$AA@ 0042c950     lib_data:gt_generic.obj
 0002:0000395c       ??_C@_0BM@JFDA@Borland?5linker?5mapping?5file?$AA@ 0042c95c     lib_data:gt_generic.obj
 0002:00003978       ??_C@_05IMKO@Start?$AA@    0042c978     lib_data:gt_generic.obj
 0002:00003980       ??_C@_0BH@JBKA@PGP?5message?5?$CIVersion?3?5?$AA@ 0042c980     lib_data:gt_generic.obj
 0002:00003998       ??_C@_0P@KILI@?9?9?9?9?9BEGIN?5PGP?$AA@ 0042c998     lib_data:gt_generic.obj
 0002:000039a8       ??_C@_0BG@HAKD@Adobe?5Postscript?5file?$AA@ 0042c9a8     lib_data:gt_generic.obj
 0002:000039c0       ??_C@_0L@CBDG@?$CF?$CBPS?9Adobe?$AA@ 0042c9c0     lib_data:gt_generic.obj
 0002:000039cc       ??_C@_0BA@INPK@UU?5encoded?5file?$AA@ 0042c9cc     lib_data:gt_generic.obj
 0002:000039dc       ??_C@_06DEBK@begin?5?$AA@  0042c9dc     lib_data:gt_generic.obj
 0002:000039e4       ??_C@_0BJ@PLPN@Bourne?5Shell?5Script?5file?$AA@ 0042c9e4     lib_data:gt_generic.obj
 0002:00003a00       ??_C@_09JMOP@?$CD?$CB?1bin?1sh?$AA@ 0042ca00     lib_data:gt_generic.obj
 0002:00003a0c       ??_C@_0BM@CDID@Framemaker?5interchange?5file?$AA@ 0042ca0c     lib_data:gt_generic.obj
 0002:00003a28       ??_C@_08NDIH@?$DMMIFFile?$AA@ 0042ca28     lib_data:gt_generic.obj
 0002:00003a34       ??_C@_0CA@HNEH@Windows?5registry?5file?5?$CItextual?$CJ?$AA@ 0042ca34     lib_data:gt_generic.obj
 0002:00003a54       ??_C@_08MMJJ@REGEDIT4?$AA@ 0042ca54     lib_data:gt_generic.obj
 0002:00003a60       ??_C@_0BB@OBOB@aPatch?5data?5file?$AA@ 0042ca60     lib_data:gt_generic.obj
 0002:00003a74       ??_C@_07JLEE@?$FOTITLE?$FO?$AA@ 0042ca74     lib_data:gt_generic.obj
 0002:00003a7c       ??_C@_0CA@GJKL@RTF?5document?5?$CIrich?5text?5format?$CJ?$AA@ 0042ca7c     lib_data:gt_generic.obj
 0002:00003a9c       ??_C@_06JFC@?$HL?2rtf1?$AA@ 0042ca9c     lib_data:gt_generic.obj
 0002:00003aa4       ??_C@_0BD@MHGI@Microsoft?5map?5file?$AA@ 0042caa4     lib_data:gt_generic.obj
 0002:00003ab8       ??_C@_0L@FEKC@?5Timestamp?$AA@ 0042cab8     lib_data:gt_generic.obj
 0002:00003ac4       ??_C@_04FGNA@?$AN?6?$AN?6?$AA@ 0042cac4     lib_data:gt_generic.obj
 0002:00003acc       ??_C@_01FIMD@?$FN?$AA@     0042cacc     lib_data:gt_generic.obj
 0002:00003ad0       ??_C@_07MIGK@?$CKerror?$CK?$AA@ 0042cad0     lib_data:gt_generic.obj
 0002:00003ad8       ??_C@_07DBEH@?5file?5?$FL?$AA@ 0042cad8     lib_data:gt_generic.obj
 0002:00003ae0       ??_C@_03HEOI@INI?$AA@      0042cae0     lib_data:gt_generic.obj
 0002:00003ae4       ??_C@_03HFLF@INF?$AA@      0042cae4     lib_data:gt_generic.obj
 0002:00003ae8       ??_C@_04OPOM@?4inf?$AA@    0042cae8     lib_data:gt_generic.obj
 0002:00003af0       ??_C@_07EBOJ@?5style?$CJ?$AA@ 0042caf0     lib_data:gt_generic.obj
 0002:00003af8       ??_C@_03EAFN@DOS?$AA@      0042caf8     lib_data:gt_generic.obj
 0002:00003afc       ??_C@_04BJIF@UNIX?$AA@     0042cafc     lib_data:gt_generic.obj
 0002:00003b04       ??_C@_0L@IIPJ@Textfile?5?$CI?$AA@ 0042cb04     lib_data:gt_generic.obj
 0002:00003b10       ??_C@_04OCKL@?4DOK?$AA@    0042cb10     lib_data:gt_generic.obj
 0002:00003b18       ??_C@_04LGBD@?4DOC?$AA@    0042cb18     lib_data:gt_generic.obj
 0002:00003b20       ??_C@_04GABA@?4TXT?$AA@    0042cb20     lib_data:gt_generic.obj
 0002:00003b28       ??_C@_0BE@GKCO@Borland?5object?5file?$AA@ 0042cb28     lib_data:gt_generic.obj
 0002:00003b3c       ??_C@_07OGKA@?5blocks?$AA@ 0042cb3c     lib_data:gt_generic.obj
 0002:00003b44       ??_C@_06BMFM@?5with?5?$AA@ 0042cb44     lib_data:gt_generic.obj
 0002:00003b4c       ??_C@_0BF@ENBM@unknown?5track?5format?$AA@ 0042cb4c     lib_data:gt_generic.obj
 0002:00003b64       ??_C@_0DL@OFIL@One?5or?5more?5sequentially?5indepen@ 0042cb64     lib_data:gt_generic.obj
 0002:00003ba0       ??_C@_0CA@HMIG@One?5or?5more?5simultaneous?5tracks?$AA@ 0042cba0     lib_data:gt_generic.obj
 0002:00003bc0       ??_C@_0BI@OEEA@One?5multi?9channel?5track?$AA@ 0042cbc0     lib_data:gt_generic.obj
 0002:00003bd8       ??_C@_0BA@FKCD@MIDI?5music?5file?$AA@ 0042cbd8     lib_data:gt_generic.obj
 0002:00003be8       ??_C@_0P@KPIK@SUN?5sound?5file?$AA@ 0042cbe8     lib_data:gt_generic.obj
 0002:00003bf8       ??_C@_0BN@JGCF@Portable?5Document?5file?5?$CIPDF?$CJ?$AA@ 0042cbf8     lib_data:gt_generic.obj
 0002:00003c18       ??_C@_07ONCB@?5colors?$AA@ 0042cc18     lib_data:gt_generic.obj
 0002:00003c20       ??_C@_09JDBD@?5pixel?5?9?5?$AA@ 0042cc20     lib_data:gt_generic.obj
 0002:00003c2c       ??_C@_04JJLD@?$CJ?5?9?5?$AA@ 0042cc2c     lib_data:gt_generic.obj
 0002:00003c34       ??_C@_0BA@EBKJ@3?5?9?5OS?12?52?4x?5?$DP?$DP?$AA@ 0042cc34     lib_data:gt_generic.obj
 0002:00003c44       ??_C@_0P@PHEI@4?5?9?5Windows?595?$AA@ 0042cc44     lib_data:gt_generic.obj
 0002:00003c54       ??_C@_0P@LPEC@3?5?9?5Windows?5NT?$AA@ 0042cc54     lib_data:gt_generic.obj
 0002:00003c64       ??_C@_0BA@FIOE@3?5?9?5Windows?53?4x?$AA@ 0042cc64     lib_data:gt_generic.obj
 0002:00003c74       ??_C@_0BL@IFCK@2?5?9?5Windows?52?4x?5?1?5OS?12?51?4x?$AA@ 0042cc74     lib_data:gt_generic.obj
 0002:00003c90       ??_C@_07GHKJ@?5?$CItype?5?$AA@ 0042cc90     lib_data:gt_generic.obj
 0002:00003c98       ??_C@_0CB@ECOG@?5?$CIerror?5initializing?5BMP?5buffer?$CJ@ 0042cc98     lib_data:gt_generic.obj
 0002:00003cbc       ??_C@_0N@PMBJ@Bitmap?5image?$AA@ 0042ccbc     lib_data:gt_generic.obj
 0002:00003ccc       ??_C@_0BE@BKP@Creative?5Voice?5File?$AA@ 0042cccc     lib_data:gt_generic.obj
 0002:00003ce0       ??_C@_09IPNN@?5image?5?9?5?$AA@ 0042cce0     lib_data:gt_generic.obj
 0002:00003cec       ??_C@_04JOMI@BMF?5?$AA@    0042ccec     lib_data:gt_generic.obj
 0002:00003cf4       ??_C@_0CP@GJDP@?5?$FLimage?5extension?5block?5incorrec@ 0042ccf4     lib_data:gt_generic.obj
 0002:00003d24       ??_C@_0BK@HGMK@?5?$FLprocessed?5with?5GIFLITE?$FN?$AA@ 0042cd24     lib_data:gt_generic.obj
 0002:00003d40       ??_C@_07GGFK@GIFLITE?$AA@  0042cd40     lib_data:gt_generic.obj
 0002:00003d48       ??_C@_0BK@DBOC@?5image?5?9?5extension?5block?5?$AA@ 0042cd48     lib_data:gt_generic.obj
 0002:00003d64       ??_C@_0CK@EDPM@?5?$FLimage?5descriptor?5incorrect?5ter@ 0042cd64     lib_data:gt_generic.obj
 0002:00003d90       ??_C@_0BC@OPPK@?$FLmultiple?5images?$FN?$AA@ 0042cd90     lib_data:gt_generic.obj
 0002:00003da4       ??_C@_0BA@NPPB@?5?9?5?$FLinterlaced?$FN?$AA@ 0042cda4     lib_data:gt_generic.obj
 0002:00003db4       ??_C@_05FECE@GIF89?$AA@    0042cdb4     lib_data:gt_generic.obj
 0002:00003dbc       ??_C@_05PPOO@GIF87?$AA@    0042cdbc     lib_data:gt_generic.obj
 0002:00003dc4       ??_C@_0CC@ONN@?5?9?5failed?5to?5read?5the?5color?5tabl@ 0042cdc4     lib_data:gt_generic.obj
 0002:00003de8       ??_C@_02DIMO@?$FN?6?$AA@   0042cde8     lib_data:gt_generic.obj
 0002:00003dec       ??_C@_0BM@FGEN@?5?$FLinvalid?5image?5descriptor?5?$AA@ 0042cdec     lib_data:gt_generic.obj
 0002:00003e08       ??_C@_0BI@LMFK@Seems?5to?5be?5a?5GIF?5image?$AA@ 0042ce08     lib_data:gt_generic.obj
 0002:00003e20       ??_C@_0BJ@JFJL@Windows?53?4x?5group?5file?5?8?$AA@ 0042ce20     lib_data:gt_generic.obj
 0002:00003e3c       ??_C@_09BOIE@IFF?5file?6?$AA@ 0042ce3c     lib_data:gt_generic.obj
 0002:00003e48       ??_C@_0CF@JBKE@Uhuru?5Sound?5Software?5Macintosh?5v@ 0042ce48     lib_data:gt_generic.obj
 0002:00003e70       ??_C@_0BE@PGPG@8?9bit?5sampled?5voice?$AA@ 0042ce70     lib_data:gt_generic.obj
 0002:00003e84       ??_C@_0L@PEGD@image?5data?$AA@ 0042ce84     lib_data:gt_generic.obj
 0002:00003e90       ??_C@_0BC@LOKD@unknown?5type?5?8?$CFs?8?$AA@ 0042ce90     lib_data:gt_generic.obj
 0002:00003ea4       ??_C@_0M@BPGC@Vector?5font?$AA@ 0042cea4     lib_data:gt_generic.obj
 0002:00003eb0       ??_C@_0P@LNGO@Formatted?5text?$AA@ 0042ceb0     lib_data:gt_generic.obj
 0002:00003ec0       ??_C@_0BF@JGAA@Text?5for?5a?5paragraph?$AA@ 0042cec0     lib_data:gt_generic.obj
 0002:00003ed8       ??_C@_0BF@GKKG@Simple?5musical?5score?$AA@ 0042ced8     lib_data:gt_generic.obj
 0002:00003ef0       ??_C@_0BM@LNLP@Document?5footer?5information?$AA@ 0042cef0     lib_data:gt_generic.obj
 0002:00003f0c       ??_C@_0N@BJLG@File?5version?$AA@ 0042cf0c     lib_data:gt_generic.obj
 0002:00003f1c       ??_C@_0BC@FGNB@Macintosh?5picture?$AA@ 0042cf1c     lib_data:gt_generic.obj
 0002:00003f30       ??_C@_0O@LHKC@Tab?5positions?$AA@ 0042cf30     lib_data:gt_generic.obj
 0002:00003f40       ??_C@_0CD@IDK@Uhuru?5Sound?5Software?5musical?5sco@ 0042cf40     lib_data:gt_generic.obj
 0002:00003f64       ??_C@_0M@IHFA@Raster?5font?$AA@ 0042cf64     lib_data:gt_generic.obj
 0002:00003f70       ??_C@_0BK@EJML@General?5use?5musical?5score?$AA@ 0042cf70     lib_data:gt_generic.obj
 0002:00003f8c       ??_C@_0O@EGF@Sampled?5sound?$AA@ 0042cf8c     lib_data:gt_generic.obj
 0002:00003f9c       ??_C@_0BO@PKIF@IFF?5Deep?5?$CI24?9bit?5color?5image?$CJ?$AA@ 0042cf9c     lib_data:gt_generic.obj
 0002:00003fbc       ??_C@_0CE@GGAH@Deluxe?5Video?5Construction?5Set?5vi@ 0042cfbc     lib_data:gt_generic.obj
 0002:00003fe0       ??_C@_0BG@OKB@Annotation?5or?5comment?$AA@ 0042cfe0     lib_data:gt_generic.obj
 0002:00003ff8       ??_C@_0BH@FPF@YUV?5image?5data?5?$CIV?9Lab?$CJ?$AA@ 0042cff8     lib_data:gt_generic.obj
 0002:00004010       ??_C@_0BN@LPBJ@12?9bit?5color?5image?5?$CIImpulse?$CJ?$AA@ 0042d010     lib_data:gt_generic.obj
 0002:00004030       ??_C@_0P@EJLA@Cel?5animations?$AA@ 0042d030     lib_data:gt_generic.obj
 0002:00004040       ??_C@_0DE@BOIG@InterLeaved?5Bitmap?5?$CIinterleaved?5@ 0042d040     lib_data:gt_generic.obj
 0002:00004074       ??_C@_0BA@EJHK@Animated?5bitmap?$AA@ 0042d074     lib_data:gt_generic.obj
 0002:00004084       ??_C@_0BA@PFJD@MIDI?5music?5data?$AA@ 0042d084     lib_data:gt_generic.obj
 0002:00004094       ??_C@_0BO@DFJP@Audio?5interchange?5file?5format?$AA@ 0042d094     lib_data:gt_generic.obj
 0002:000040b4       ??_C@_0BN@PJEI@Deluxe?5Print?5page?5definition?$AA@ 0042d0b4     lib_data:gt_generic.obj
 0002:000040d4       ??_C@_0BK@HMMK@Pro?9write?5word?5processing?$AA@ 0042d0d4     lib_data:gt_generic.obj
 0002:000040f0       ??_C@_0BF@CNHI@Page?5break?5indicator?$AA@ 0042d0f0     lib_data:gt_generic.obj
 0002:00004108       ??_C@_0CE@OEBG@Turbo3d?5renderung?5data?5?$CI3D?5objec@ 0042d108     lib_data:gt_generic.obj
 0002:0000412c       ??_C@_0BM@MHPE@Document?5header?5information?$AA@ 0042d12c     lib_data:gt_generic.obj
 0002:00004148       ??_C@_0CI@MNHC@2D?5object?5standard?5format?5?$CIvecto@ 0042d148     lib_data:gt_generic.obj
 0002:00004170       ??_C@_0CN@JADA@Amiga?5Contiguous?5Bitmap?5?$CIMS?5Basi@ 0042d170     lib_data:gt_generic.obj
 0002:000041a0       ??_C@_0CB@KBNI@Paragraph?5formatting?5information@ 0042d1a0     lib_data:gt_generic.obj
 0002:000041c4       ??_C@_0BN@KMJB@24?9bit?5color?5image?5?$CIImpulse?$CJ?$AA@ 0042d1c4     lib_data:gt_generic.obj
 0002:000041e4       ??_C@_0BA@PHBB@Portable?5bitmap?$AA@ 0042d1e4     lib_data:gt_generic.obj
 0002:000041f4       ??_C@_0BP@IEKP@Document?5formating?5information?$AA@ 0042d1f4     lib_data:gt_generic.obj
 0002:00004214       ??_C@_0BN@EJNF@Copyright?5notice?5and?5license?$AA@ 0042d214     lib_data:gt_generic.obj
 0002:00004234       ??_C@_0CA@JIHK@Super?5smooth?5animation?5?$CIProDAD?$CJ?$AA@ 0042d234     lib_data:gt_generic.obj
 0002:00004254       ??_C@_0BJ@GPOA@Impulse?5Tracker?5Module?5?8?$AA@ 0042d254     lib_data:gt_generic.obj
 0002:00004270       ??_C@_0CH@BCGN@?6JPG?5image?5?9?5SOFn?5segment?5is?5not@ 0042d270     lib_data:gt_generic.obj
 0002:00004298       ??_C@_0BN@CMIB@JPG?5image?5?9?5found?5invalid?5ID?$AA@ 0042d298     lib_data:gt_generic.obj
 0002:000042b8       ??_C@_0BD@DBLF@Truecolor?5?$CI32?5bit?$CJ?$AA@ 0042d2b8     lib_data:gt_generic.obj
 0002:000042cc       ??_C@_0BD@GCOA@Truecolor?5?$CI24?5bit?$CJ?$AA@ 0042d2cc     lib_data:gt_generic.obj
 0002:000042e0       ??_C@_0L@PJGM@Greyscaled?$AA@ 0042d2e0     lib_data:gt_generic.obj
 0002:000042ec       ??_C@_0L@NAB@JPG?5image?5?$AA@ 0042d2ec     lib_data:gt_generic.obj
 0002:000042f8       ??_C@_04GMIF@Mono?$AA@     0042d2f8     lib_data:gt_generic.obj
 0002:00004300       ??_C@_0N@PLMC@Two?5channels?$AA@ 0042d300     lib_data:gt_generic.obj
 0002:00004310       ??_C@_0N@EACB@Joint?5stereo?$AA@ 0042d310     lib_data:gt_generic.obj
 0002:00004320       ??_C@_06MKLK@Stereo?$AA@   0042d320     lib_data:gt_generic.obj
 0002:00004328       ??_C@_02ELCB@no?$AA@       0042d328     lib_data:gt_generic.obj
 0002:0000432c       ??_C@_03LGKI@yes?$AA@      0042d32c     lib_data:gt_generic.obj
 0002:00004330       ??_C@_0BN@CONN@?5KB?1sec?6?5?5Error?5protection?3?5?$AA@ 0042d330     lib_data:gt_generic.obj
 0002:00004350       ??_C@_0BC@GCBH@?5file?6?5?5Bitrate?3?5?$AA@ 0042d350     lib_data:gt_generic.obj
 0002:00004364       ??_C@_07ELBP@?5layer?5?$AA@ 0042d364     lib_data:gt_generic.obj
 0002:0000436c       ??_C@_05CPJM@MPEG?5?$AA@   0042d36c     lib_data:gt_generic.obj
 0002:00004374       ??_C@_0N@NCBH@?5?5Comment?3?5?8?$AA@ 0042d374     lib_data:gt_generic.obj
 0002:00004384       ??_C@_09IMBJ@?5?5Year?3?5?8?$AA@ 0042d384     lib_data:gt_generic.obj
 0002:00004390       ??_C@_0L@HCIL@?5?5Album?3?5?8?$AA@ 0042d390     lib_data:gt_generic.obj
 0002:0000439c       ??_C@_0N@ONLA@?5?5Artitst?3?5?8?$AA@ 0042d39c     lib_data:gt_generic.obj
 0002:000043ac       ??_C@_0L@KCDN@?5?5Title?3?5?8?$AA@ 0042d3ac     lib_data:gt_generic.obj
 0002:000043b8       ??_C@_08LDAN@MP3?5TAG?6?$AA@ 0042d3b8     lib_data:gt_generic.obj
 0002:000043c4       ??_C@_0BF@BABD@?5bytes?5are?5missing?$FN?6?$AA@ 0042d3c4     lib_data:gt_generic.obj
 0002:000043dc       ??_C@_0BI@EALH@Seems?5to?5be?5a?5MP3?5tag?5?$FL?$AA@ 0042d3dc     lib_data:gt_generic.obj
 0002:000043f4       ??_C@_0BG@JJAD@?5?5Unknown?5block?5type?5?$AA@ 0042d3f4     lib_data:gt_generic.obj
 0002:0000440c       ??_C@_0M@FILJ@?5?5Extended?6?$AA@ 0042d40c     lib_data:gt_generic.obj
 0002:00004418       ??_C@_0O@LEOJ@?5?5End?5repeat?6?$AA@ 0042d418     lib_data:gt_generic.obj
 0002:00004428       ??_C@_07DIID@?5times?6?$AA@ 0042d428     lib_data:gt_generic.obj
 0002:00004430       ??_C@_09ILOI@?5?5Repeat?5?$AA@ 0042d430     lib_data:gt_generic.obj
 0002:0000443c       ??_C@_0BC@JGGH@?5?5Repeat?5endless?6?$AA@ 0042d43c     lib_data:gt_generic.obj
 0002:00004450       ??_C@_08LFBG@?5?5ASCII?6?$AA@ 0042d450     lib_data:gt_generic.obj
 0002:0000445c       ??_C@_09DOE@?5?5Marker?5?$AA@ 0042d45c     lib_data:gt_generic.obj
 0002:00004468       ??_C@_06LGO@?5secs?6?$AA@  0042d468     lib_data:gt_generic.obj
 0002:00004470       ??_C@_04IFEM@?$CF?41f?$AA@ 0042d470     lib_data:gt_generic.obj
 0002:00004478       ??_C@_0P@GCJB@?5?5Silence?5for?5?$AA@ 0042d478     lib_data:gt_generic.obj
 0002:00004488       ??_C@_0BC@GDFP@?5?5Sound?5continue?6?$AA@ 0042d488     lib_data:gt_generic.obj
 0002:0000449c       ??_C@_06JOEO@2?5bits?$AA@  0042d49c     lib_data:gt_generic.obj
 0002:000044a4       ??_C@_08JOMM@2?46?5bits?$AA@ 0042d4a4     lib_data:gt_generic.obj
 0002:000044b0       ??_C@_06ODIO@4?5bits?$AA@  0042d4b0     lib_data:gt_generic.obj
 0002:000044b8       ??_C@_06BIAP@8?5bits?$AA@  0042d4b8     lib_data:gt_generic.obj
 0002:000044c0       ??_C@_05MAHO@?5Hz?0?5?$AA@ 0042d4c0     lib_data:gt_generic.obj
 0002:000044c8       ??_C@_0P@DEE@?5?5Sound?5data?3?5?$AA@ 0042d4c8     lib_data:gt_generic.obj
 0002:000044d8       ??_C@_0BL@MGAP@multi?5DAC?5with?5?$CFd?5channels?$AA@ 0042d4d8     lib_data:gt_generic.obj
 0002:000044f4       ??_C@_0BM@KLNL@?5?5May?5be?5error?5in?5VOC?5file?6?$AA@ 0042d4f4     lib_data:gt_generic.obj
 0002:00004510       ??_C@_0CA@CNDJ@?5VOC?5file?6Listing?5block?5types?3?6?$AA@ 0042d510     lib_data:gt_generic.obj
 0002:00004530       ??_C@_0BA@DBCL@Creative?5Voice?5?$AA@ 0042d530     lib_data:gt_generic.obj
 0002:00004540       ??_C@_04LPBH@?5?$CI?$DP?$CJ?$AA@ 0042d540     lib_data:gt_generic.obj
 0002:00004548       ??_C@_0BH@IFKB@?5?5Found?5SYS?5modifier?5?8?$AA@ 0042d548     lib_data:gt_generic.obj
 0002:00004560       ??_C@_0BM@OOBA@?5?5Character?5device?5driver?5?8?$AA@ 0042d560     lib_data:gt_generic.obj
 0002:0000457c       ??_C@_0M@MPLE@?5device?$CIs?$CJ?6?$AA@ 0042d57c     lib_data:gt_generic.obj
 0002:00004588       ??_C@_0BM@OCNO@?5?5Block?5device?5driver?5with?5?$AA@ 0042d588     lib_data:gt_generic.obj
 0002:000045a4       ??_C@_0BD@KOK@DOS?5Device?5driver?6?$AA@ 0042d5a4     lib_data:gt_generic.obj
 0002:000045b8       ??_C@_04BAIL@?4EXE?$AA@    0042d5b8     lib_data:gt_exe_header.obj
 0002:000045c0       ??_C@_04KDLI@?4COM?$AA@    0042d5c0     lib_data:gt_exe_header.obj
 0002:000045c8       ??_C@_0BD@JALO@Special?5filename?3?5?$AA@ 0042d5c8     lib_data:gt_fixedname.obj
 0002:000045dc       ??_C@_0BE@NABE@Special?5extension?3?5?$AA@ 0042d5dc     lib_data:gt_fixedname.obj
 0002:000045f0       ??_C@_0P@PNOA@?5?5Open?5with?3?5?8?$AA@ 0042d5f0     lib_data:gt_fixedname.obj
 0002:00004600       ??_C@_0BE@GGIG@?2Shell?2Open?2Command?$AA@ 0042d600     lib_data:gt_fixedname.obj
 0002:00004614       ??_C@_0BN@OGFC@Special?5Windows?5extentsion?3?5?$AA@ 0042d614     lib_data:gt_fixedname.obj
 0002:00004634       ??_C@_09PLOL@?9?9error?9?9?$AA@ 0042d634     lib_data:gt_compare.obj
 0002:00004640       ??_C@_08NPHI@password?$AA@ 0042d640     lib_data:gt_compare.obj
 0002:0000464c       ??_C@_08MNBO@extender?$AA@ 0042d64c     lib_data:gt_compare.obj
 0002:00004658       ??_C@_07JJAP@sticker?$AA@  0042d658     lib_data:gt_compare.obj
 0002:00004660       ??_C@_09ELOB@protector?$AA@ 0042d660     lib_data:gt_compare.obj
 0002:0000466c       ??_C@_09GPBF@converter?$AA@ 0042d66c     lib_data:gt_compare.obj
 0002:00004678       ??_C@_06BJLO@linker?$AA@   0042d678     lib_data:gt_compare.obj
 0002:00004680       ??_C@_08HHAG@compiler?$AA@ 0042d680     lib_data:gt_compare.obj
 0002:0000468c       ??_C@_09NFCL@encrypter?$AA@ 0042d68c     lib_data:gt_compare.obj
 0002:00004698       ??_C@_06CDJN@packer?$AA@   0042d698     lib_data:gt_compare.obj
 0002:000046a0       ??_C@_04KKCM@code?$AA@     0042d6a0     lib_data:gt_compare.obj
 0002:000046a8       ??_C@_0BD@ODKJ@?5?5Found?5?$CFs?5?8?$CFs?$CFs?8?6?$AA@ 0042d6a8     lib_data:gt_compare.obj
 0002:000046bc       ??_C@_02CPJP@?5?$DP?$AA@   0042d6bc     lib_data:gt_compare.obj
 0002:000046c0       ??_C@_0CC@JOCK@Unsupported?5macro?5character?5?8?$CFc?8@ 0042d6c0     lib_data:gt_macromanager.obj
 0002:00004728       ??_7GT_EXE_LE_ObjectTableHandler@@6B@ 0042d728     lib_data:gt_exe_le.obj
 0002:0000472c       ??_C@_0DE@DAHL@?5?5?$CF2d?5?$CF08Xh?5?$CF08Xh?5?$CF08Xh?5?$CF02Xh?5?$CF0@ 0042d72c     lib_data:gt_exe_le.obj
 0002:00004760       ??_C@_0FB@IMBF@?5?5?5?$CD?5?5?5PhysOfs?5?5?5?5EndOfs?5?5?5?5?5?5Si@ 0042d760     lib_data:gt_exe_le.obj
 0002:000047b8       ??_C@_0EB@GIBH@?6?5?5Object?5table?5listing?5?$FL?$CFd?5entr@ 0042d7b8     lib_data:gt_exe_le.obj
 0002:000047fc       ??_C@_0BO@JPBE@?5?5Fixup?5section?5size?3?5?5?5?5?$CFld?6?$AA@ 0042d7fc     lib_data:gt_exe_le.obj
 0002:0000481c       ??_C@_0CE@GBKP@?5?5Bytes?5on?5last?5page?3?5?5?5?5?$CFld?1?$CF08@ 0042d81c     lib_data:gt_exe_le.obj
 0002:00004840       ??_C@_0CE@BNAL@?5?5Memory?5page?5size?3?5?5?5?5?5?5?$CFld?1?$CF08@ 0042d840     lib_data:gt_exe_le.obj
 0002:00004864       ??_C@_0CE@CFLF@?5?5Memory?5pages?5from?5top?3?5?$CFld?1?$CF08@ 0042d864     lib_data:gt_exe_le.obj
 0002:00004888       ??_C@_0CE@LMGK@?5?5Calculated?5EXE?5size?3?5?5?5?$CFld?1?$CF08@ 0042d888     lib_data:gt_exe_le.obj
 0002:000048ac       ??_C@_0BK@DOGI@?5?5?5?5SS?3ESP?5?$DN?5?$CF08Xh?3?$CF08Xh?6?$AA@ 0042d8ac     lib_data:gt_exe_le.obj
 0002:000048c8       ??_C@_0BK@DBAG@?5?5?5?5CS?3EIP?5?$DN?5?$CF08Xh?3?$CF08Xh?6?$AA@ 0042d8c8     lib_data:gt_exe_le.obj
 0002:000048e4       ??_C@_0DA@IKFG@?5?5Entrypoint?3?5?$CFld?1?$CF08Xh?5?$CIbase?5ad@ 0042d8e4     lib_data:gt_exe_le.obj
 0002:00004914       ??_C@_09KDKB@?5?5?$DO?5?$CFs?5?$DM?6?$AA@ 0042d914     lib_data:gt_exe_le.obj
 0002:00004920       ??_C@_0BM@BMKP@LE?5EXE?5at?5offset?5?$CFld?1?$CF08Xh?6?$AA@ 0042d920     lib_data:gt_exe_le.obj
 0002:0000493c       ??_7GT_TableColumn@@6B@    0042d93c     lib_data:gt_exe_pe.obj
 0002:00004940       ??_7GT_EXE_PE_BasicAnalyzer@@6B@ 0042d940     lib_data:gt_exe_pe.obj
 0002:00004944       ??_C@_0CL@POLP@Error?3?5the?5export?5table?5offset?5i@ 0042d944     lib_data:gt_exe_pe.obj
 0002:00004970       ??_C@_0FC@NNFG@Export?5table?5of?5DLL?5?8?$CFs?8?3?6?5?5?$CFld?5@ 0042d970     lib_data:gt_exe_pe.obj
 0002:000049c4       ??_C@_04EFNI@Name?$AA@     0042d9c4     lib_data:gt_exe_pe.obj
 0002:000049cc       ??_C@_06BGLH@Offset?$AA@   0042d9cc     lib_data:gt_exe_pe.obj
 0002:000049d4       ??_C@_07BCCI@Ordinal?$AA@  0042d9d4     lib_data:gt_exe_pe.obj
 0002:000049dc       ??_7GT_Table@@6B@          0042d9dc     lib_data:gt_exe_pe.obj
 0002:000049e0       ??_C@_08LKCE@?5?5?5?5?5?$CFs?6?$AA@ 0042d9e0     lib_data:gt_exe_pe.obj
 0002:000049ec       ??_C@_0BD@JDCL@?5?5?5?5?5Ordinal?5?$CD?$CFld?6?$AA@ 0042d9ec     lib_data:gt_exe_pe.obj
 0002:00004a00       ??_C@_0M@GHNF@?5?5?$CFd?4?5?$CFs?$CFs?6?$AA@ 0042da00     lib_data:gt_exe_pe.obj
 0002:00004a0c       ??_C@_0O@HDPP@?5?$CIforwarded?$CB?$CJ?$AA@ 0042da0c     lib_data:gt_exe_pe.obj
 0002:00004a1c       ??_C@_0DB@NLCJ@Functions?5from?5the?5following?5DLL@ 0042da1c     lib_data:gt_exe_pe.obj
 0002:00004a50       ??_C@_0CH@CGJG@32?5bit?5OS?12?5with?5presentation?5ma@ 0042da50     lib_data:gt_exe_pe.obj
 0002:00004a78       ??_C@_0BB@JOPO@Windows?5NT?12000?6?$AA@ 0042da78     lib_data:gt_exe_pe.obj
 0002:00004a8c       ??_C@_0CN@OJDE@32?5bit?5Windows?5running?5with?5Wind@ 0042da8c     lib_data:gt_exe_pe.obj
 0002:00004abc       ??_C@_0BD@OOLD@Invalid?5?$CI0x?$CF08Xh?$CJ?6?$AA@ 0042dabc     lib_data:gt_exe_pe.obj
 0002:00004ad0       ??_C@_0N@DABM@32?5bit?5OS?12?6?$AA@ 0042dad0     lib_data:gt_exe_pe.obj
 0002:00004ae0       ??_C@_0CH@MJIL@16?5bit?5OS?12?5with?5presentation?5ma@ 0042dae0     lib_data:gt_exe_pe.obj
 0002:00004b08       ??_C@_0N@EBPG@16?5bit?5OS?12?6?$AA@ 0042db08     lib_data:gt_exe_pe.obj
 0002:00004b18       ??_C@_0CE@NDAG@16?5bit?5Windows?5running?5with?5MS?9D@ 0042db18     lib_data:gt_exe_pe.obj
 0002:00004b3c       ??_C@_0CE@EGKF@32?5bit?5Windows?5running?5with?5MS?9D@ 0042db3c     lib_data:gt_exe_pe.obj
 0002:00004b60       ??_C@_07HMAL@MS?9DOS?6?$AA@ 0042db60     lib_data:gt_exe_pe.obj
 0002:00004b68       ??_C@_0BA@NIK@32?5bit?5Windows?6?$AA@ 0042db68     lib_data:gt_exe_pe.obj
 0002:00004b78       ??_C@_0CC@EOPN@OS?12?5presentation?5manager?532?5bit@ 0042db78     lib_data:gt_exe_pe.obj
 0002:00004b9c       ??_C@_0CC@EFFG@OS?12?5presentation?5manager?516?5bit@ 0042db9c     lib_data:gt_exe_pe.obj
 0002:00004bc0       ??_C@_0BA@JIP@16?5bit?5Windows?6?$AA@ 0042dbc0     lib_data:gt_exe_pe.obj
 0002:00004bd0       ??_C@_08MMGE@Unknown?6?$AA@ 0042dbd0     lib_data:gt_exe_pe.obj
 0002:00004bdc       ??_C@_0BD@DCNA@?5?5Target?5OS?3?5?5?5?5?5?5?$AA@ 0042dbdc     lib_data:gt_exe_pe.obj
 0002:00004bf0       ??_C@_0CF@OCFK@?5?5Productversion?3?5?$CFd?4?$CF02d?4?$CF02d?5?$CI@ 0042dbf0     lib_data:gt_exe_pe.obj
 0002:00004c18       ??_C@_0CF@DCOH@?5?5Fileversion?3?5?5?5?5?$CFd?4?$CF02d?4?$CF02d?5?$CI@ 0042dc18     lib_data:gt_exe_pe.obj
 0002:00004c40       ??_C@_0BH@FDFI@VersionInfo?5resource?3?6?$AA@ 0042dc40     lib_data:gt_exe_pe.obj
 0002:00004c58       ??_C@_0CI@NMKG@Error?5reading?5resource?5directory@ 0042dc58     lib_data:gt_exe_pe.obj
 0002:00004c80       ??_C@_0M@FIGB@?5?5?5?5?5?5?8?$CFs?8?6?$AA@ 0042dc80     lib_data:gt_exe_pe.obj
 0002:00004c90       ??_C@_0EA@LFI@?5?5?5?5?5ID?3?50x?$CF08Xh?5RVA?3?50x?$CF08Xh?$DL?5O@ 0042dc90     lib_data:gt_exe_pe.obj
 0002:00004cd0       ??_C@_0CD@OIJK@Error?5reading?5resource?5data?5entr@ 0042dcd0     lib_data:gt_exe_pe.obj
 0002:00004cf8       ??_C@_0EB@NNPM@Warning?3?5only?53?5recursion?5levels@ 0042dcf8     lib_data:gt_exe_pe.obj
 0002:00004d3c       ??_C@_07KKPM@?5?5?$CFld?3?6?$AA@ 0042dd3c     lib_data:gt_exe_pe.obj
 0002:00004d44       ??_C@_06JMLE@?5?5?$CFs?3?6?$AA@ 0042dd44     lib_data:gt_exe_pe.obj
 0002:00004d50       ??_C@_0EN@EMP@?5?5Total?5resource?5size?3?5?$CFld?5bytes@ 0042dd50     lib_data:gt_exe_pe.obj
 0002:00004da0       ??_C@_0CI@BHNP@Resources?5at?5offset?5?$CF08Xh?5?$CIRVA?5?$CF@ 0042dda0     lib_data:gt_exe_pe.obj
 0002:00004dc8       ??_C@_0CP@ICGB@The?5ressource?5table?5offset?5is?5in@ 0042ddc8     lib_data:gt_exe_pe.obj
 0002:00004df8       ??_C@_0DL@KKKP@Warning?3?5more?5then?5?$CFd?5data?5direc@ 0042ddf8     lib_data:gt_exe_pe.obj
 0002:00004e34       ??_7GT_EXE_PE_DataDirectoryHandler@@6B@ 0042de34     lib_data:gt_exe_pe.obj
 0002:00004e38       ??_C@_0CI@DEI@?$CF23s?5?9?5offset?3?5?$CF08Xh?5?9?5RVA?3?5?$CF08X@ 0042de38     lib_data:gt_exe_pe.obj
 0002:00004e60       ??_7GT_EXE_PE_ResourceAnalyzer@@6B@ 0042de60     lib_data:gt_exe_pe.obj
 0002:00004e64       ??_7GT_EXE_PE_ImportAnalyzer@@6B@ 0042de64     lib_data:gt_exe_pe.obj
 0002:00004e68       ??_7GT_EXE_PE_ExportAnalyzer@@6B@ 0042de68     lib_data:gt_exe_pe.obj
 0002:00004e70       ??_C@_0ED@NMMI@Listing?5of?5all?5used?5data?5directo@ 0042de70     lib_data:gt_exe_pe.obj
 0002:00004eb4       ??_C@_0CP@BFLA@Seems?5like?5?$CFld?5bytes?5of?5the?5file@ 0042deb4     lib_data:gt_exe_pe.obj
 0002:00004ee4       ??_C@_08JJIF@_winzip_?$AA@ 0042dee4     lib_data:gt_exe_pe.obj
 0002:00004ef0       ??_C@_09KNHB@Phys?5offs?$AA@ 0042def0     lib_data:gt_exe_pe.obj
 0002:00004efc       ??_C@_09LKAJ@Phys?5size?$AA@ 0042defc     lib_data:gt_exe_pe.obj
 0002:00004f08       ??_C@_06KCKF@?5?5?5RVA?$AA@ 0042df08     lib_data:gt_exe_pe.obj
 0002:00004f10       ??_C@_09JAOE@Virt?5size?$AA@ 0042df10     lib_data:gt_exe_pe.obj
 0002:00004f1c       ??_C@_0DO@JGJA@Sections?5according?5to?5section?5ta@ 0042df1c     lib_data:gt_exe_pe.obj
 0002:00004f60       ??_C@_0HG@LKKD@?5?5Stack?5reserve?3?5?$CF08Xh?5?1?5?$CFld?6?5?5S@ 0042df60     lib_data:gt_exe_pe.obj
 0002:00004fd8       ??_C@_0BA@GKBF@?5?5?5?5Big?5endian?6?$AA@ 0042dfd8     lib_data:gt_exe_pe.obj
 0002:00004fe8       ??_C@_0CN@JKIP@?5?5?5?5File?5should?5be?5run?5only?5on?5a@ 0042dfe8     lib_data:gt_exe_pe.obj
 0002:00005018       ??_C@_0BJ@GOGP@?5?5?5?5Library?5image?5?$CIDLL?$CJ?6?$AA@ 0042e018     lib_data:gt_exe_pe.obj
 0002:00005034       ??_C@_0BB@HPMA@?5?5?5?5System?5File?6?$AA@ 0042e034     lib_data:gt_exe_pe.obj
 0002:00005048       ??_C@_0EC@HCKD@?5?5?5?5If?5image?5is?5on?5removeable?5me@ 0042e048     lib_data:gt_exe_pe.obj
 0002:0000508c       ??_C@_0DE@HJFJ@?5?5?5?5Debugging?5info?5stripped?5from@ 0042e08c     lib_data:gt_exe_pe.obj
 0002:000050c0       ??_C@_0CP@OKAO@?5?5?5?5Machine?5based?5on?532?9bit?9word@ 0042e0c0     lib_data:gt_exe_pe.obj
 0002:000050f0       ??_C@_0BD@NFOD@?5?5?5?5Little?5endian?6?$AA@ 0042e0f0     lib_data:gt_exe_pe.obj
 0002:00005104       ??_C@_0CM@KLPM@?5?5?5?5Application?5can?5handle?5?$DO?52GB@ 0042e104     lib_data:gt_exe_pe.obj
 0002:00005130       ??_C@_0CD@JIFJ@?5?5?5?5Aggressively?5trim?5working?5se@ 0042e130     lib_data:gt_exe_pe.obj
 0002:00005154       ??_C@_0CG@HKPB@?5?5?5?5Local?5symbols?5stripped?5from?5@ 0042e154     lib_data:gt_exe_pe.obj
 0002:0000517c       ??_C@_0CF@GGLC@?5?5?5?5Line?5numbers?5stripped?5from?5f@ 0042e17c     lib_data:gt_exe_pe.obj
 0002:000051a4       ??_C@_0BI@GDCG@?5?5?5?5File?5is?5executable?6?$AA@ 0042e1a4     lib_data:gt_exe_pe.obj
 0002:000051bc       ??_C@_0CI@JDDI@?5?5?5?5Relocation?5info?5stripped?5fro@ 0042e1bc     lib_data:gt_exe_pe.obj
 0002:000051e4       ??_C@_09LGKO@?5?5Flags?3?6?$AA@ 0042e1e4     lib_data:gt_exe_pe.obj
 0002:000051f0       ??_C@_0CE@FANO@?5?5Linker?5version?3?5?5?5?5?5?5?5?5?5?5?$CFd?4?$CF0@ 0042e1f0     lib_data:gt_exe_pe.obj
 0002:00005214       ??_C@_0O@JHL@gt_exe_pe?4cxx?$AA@ 0042e214     lib_data:gt_exe_pe.obj
 0002:00005224       ??_C@_0BP@BAKB@?5?5Subsystem?3?5?5?5?5?5?5?5?5?5?5?5?5?5?5?5?$CFs?6?$AA@ 0042e224     lib_data:gt_exe_pe.obj
 0002:00005244       ??_C@_0BM@EDME@EFI?5driver?1runtime?5services?$AA@ 0042e244     lib_data:gt_exe_pe.obj
 0002:00005260       ??_C@_0BJ@LIDB@EFI?5driver?1boot?5services?$AA@ 0042e260     lib_data:gt_exe_pe.obj
 0002:0000527c       ??_C@_0BA@NLFB@EFI?5application?$AA@ 0042e27c     lib_data:gt_exe_pe.obj
 0002:0000528c       ??_C@_0L@NODJ@Windows?5CE?$AA@ 0042e28c     lib_data:gt_exe_pe.obj
 0002:00005298       ??_C@_0L@GLDH@Posix?5text?$AA@ 0042e298     lib_data:gt_exe_pe.obj
 0002:000052a4       ??_C@_07MJOI@Console?$AA@  0042e2a4     lib_data:gt_exe_pe.obj
 0002:000052ac       ??_C@_0M@MC@Windows?5GUI?$AA@ 0042e2ac     lib_data:gt_exe_pe.obj
 0002:000052b8       ??_C@_0CA@BNPE@device?5driver?1native?5Windows?5NT?$AA@ 0042e2b8     lib_data:gt_exe_pe.obj
 0002:000052d8       ??_C@_0CJ@MJAF@?5?5Required?5OS?3?5?5?5?5?5?5?5?5?5?5?5?5?5?$CFd?4?$CF0@ 0042e2d8     lib_data:gt_exe_pe.obj
 0002:00005304       ??_C@_0P@MGKA@Win?598?5or?5NT?55?$AA@ 0042e304     lib_data:gt_exe_pe.obj
 0002:00005314       ??_C@_0P@LFBO@Win?595?5or?5NT?54?$AA@ 0042e314     lib_data:gt_exe_pe.obj
 0002:00005324       ??_C@_0M@HMGC@Win?5NT?53?451?$AA@ 0042e324     lib_data:gt_exe_pe.obj
 0002:00005330       ??_C@_0BF@MPED@any?5version?5of?5Win32?$AA@ 0042e330     lib_data:gt_exe_pe.obj
 0002:00005348       ??_C@_0BH@EGDC@version?50?5of?5Win32?5?$DL?9?$CJ?$AA@ 0042e348     lib_data:gt_exe_pe.obj
 0002:00005360       ??_C@_0BP@LJJG@?5?5Required?5CPU?5type?3?5?5?5?5?5?5?5?$CFs?6?$AA@ 0042e360     lib_data:gt_exe_pe.obj
 0002:00005380       ??_C@_0BA@GIEI@MIPS16?5with?5FPU?$AA@ 0042e380     lib_data:gt_exe_pe.obj
 0002:00005390       ??_C@_0O@OICL@MIPS?5with?5FPU?$AA@ 0042e390     lib_data:gt_exe_pe.obj
 0002:000053a0       ??_C@_0BF@PFOC@DEC?5Alpha?5AXP?564?9bit?$AA@ 0042e3a0     lib_data:gt_exe_pe.obj
 0002:000053b8       ??_C@_0BG@EEMH@Motorola?568000?5series?$AA@ 0042e3b8     lib_data:gt_exe_pe.obj
 0002:000053d0       ??_C@_06FAJP@MIPS16?$AA@   0042e3d0     lib_data:gt_exe_pe.obj
 0002:000053d8       ??_C@_0L@DMJD@Intel?5IA64?$AA@ 0042e3d8     lib_data:gt_exe_pe.obj
 0002:000053e4       ??_C@_0BL@NDEN@IBM?5PowerPC?0?5little?5endian?$AA@ 0042e3e4     lib_data:gt_exe_pe.obj
 0002:00005400       ??_C@_0M@NBGL@Hitachi?5SH4?$AA@ 0042e400     lib_data:gt_exe_pe.obj
 0002:0000540c       ??_C@_0M@IEIO@Hitachi?5SH3?$AA@ 0042e40c     lib_data:gt_exe_pe.obj
 0002:00005418       ??_C@_0O@KDLK@DEC?5Alpha?5AXP?$AA@ 0042e418     lib_data:gt_exe_pe.obj
 0002:00005428       ??_C@_0O@MFCF@MIPS?5?$CIR10000?$CJ?$AA@ 0042e428     lib_data:gt_exe_pe.obj
 0002:00005438       ??_C@_0BG@PPGO@MIPS?5Mark?5III?5?$CIR4000?$CJ?$AA@ 0042e438     lib_data:gt_exe_pe.obj
 0002:00005450       ??_C@_0BF@JNBP@MIPS?5Mark?5II?5?$CIR6000?$CJ?$AA@ 0042e450     lib_data:gt_exe_pe.obj
 0002:00005468       ??_C@_0BL@NODG@MIPS?5Mark?5I?5?$CIR2000?0?5R3000?$CJ?$AA@ 0042e468     lib_data:gt_exe_pe.obj
 0002:00005484       ??_C@_07FOGL@Pentium?$AA@  0042e484     lib_data:gt_exe_pe.obj
 0002:0000548c       ??_C@_05NNBO@80486?$AA@    0042e48c     lib_data:gt_exe_pe.obj
 0002:00005494       ??_C@_05GDHP@80386?$AA@    0042e494     lib_data:gt_exe_pe.obj
 0002:0000549c       ??_C@_0BA@GKK@CPU?5independent?$AA@ 0042e49c     lib_data:gt_exe_pe.obj
 0002:000054b0       ??_C@_0HA@KHDB@?5?5Calculated?5PE?5EXE?5size?3?5?5?$CF08Xh@ 0042e4b0     lib_data:gt_exe_pe.obj
 0002:00005520       ??_C@_0DA@PEHP@?5?5?5?5may?5be?5resource?5DLL?5or?5somet@ 0042e520     lib_data:gt_exe_pe.obj
 0002:00005550       ??_C@_0DK@HEME@?5?5Entrypoint?3?5?5?5?5?5?5?5?5?5?5?5?5?5?5?$CF08Xh@ 0042e550     lib_data:gt_exe_pe.obj
 0002:0000558c       ??_C@_0BL@LIKA@PE?5?$CFs?5at?5offset?5?$CFld?1?$CF08Xh?6?$AA@ 0042e58c     lib_data:gt_exe_pe.obj
 0002:000055a8       ??_C@_03EPLF@EXE?$AA@      0042e5a8     lib_data:gt_exe_pe.obj
 0002:000055ac       ??_C@_03NDIP@DLL?$AA@      0042e5ac     lib_data:gt_exe_pe.obj
 0002:000055b0       ??_C@_0CD@DPCM@Error?3?5failed?5to?5read?5data?5at?5?$CFl@ 0042e5b0     lib_data:gt_exe_pe.obj
 0002:000055d4       ??_C@_0CJ@KF@?5?5Not?5processed?5with?5any?5known?5p@ 0042e5d4     lib_data:gt_exe_pe.obj
 0002:00005600       ??_C@_09KIFP@unknown?6?6?$AA@ 0042e600     lib_data:gt_exe_pe.obj
 0002:0000560c       ??_C@_0BF@PDGG@Borland?5Delphi?53?14?6?6?$AA@ 0042e60c     lib_data:gt_exe_pe.obj
 0002:00005624       ??_C@_04MFAJ@CODE?$AA@     0042e624     lib_data:gt_exe_pe.obj
 0002:0000562c       ??_C@_05OCG@?5?$CI?$DP?$DP?$CJ?$AA@ 0042e62c     lib_data:gt_exe_pe.obj
 0002:00005634       ??_C@_07PBIL@5?40?5SP3?$AA@ 0042e634     lib_data:gt_exe_pe.obj
 0002:0000563c       ??_C@_03JCKC@4?42?$AA@     0042e63c     lib_data:gt_exe_pe.obj
 0002:00005640       ??_C@_03NDHK@3?41?$AA@     0042e640     lib_data:gt_exe_pe.obj
 0002:00005644       ??_C@_0P@IIKA@MS?5Visual?5C?$CL?$CL?5?$AA@ 0042e644     lib_data:gt_exe_pe.obj
 0002:00005654       ??_C@_05HCME@?4text?$AA@   0042e654     lib_data:gt_exe_pe.obj
 0002:0000565c       ??_C@_0BL@OMJ@?5?5Seems?5to?5be?5compiled?5by?5?$AA@ 0042e65c     lib_data:gt_exe_pe.obj
 0002:00005678       ??_C@_0BB@LKAF@Processed?5with?3?6?$AA@ 0042e678     lib_data:gt_exe_pe.obj
 0002:0000568c       ??_C@_0CC@NHDN@Entrypoint?5is?5out?5of?5file?5bounds@ 0042e68c     lib_data:gt_exe_pe.obj
 0002:000056f0       ??_C@_01GJD@?9?$AA@        0042e6f0     lib_data:gt_exe_ne.obj
 0002:000056f4       ??_C@_05FEJB@Alloc?$AA@    0042e6f4     lib_data:gt_exe_ne.obj
 0002:000056fc       ??_C@_04BBDK@Size?$AA@     0042e6fc     lib_data:gt_exe_ne.obj
 0002:00005704       ??_C@_06KCHC@EndPos?$AA@   0042e704     lib_data:gt_exe_ne.obj
 0002:0000570c       ??_C@_08ODNC@StartPos?$AA@ 0042e70c     lib_data:gt_exe_ne.obj
 0002:00005718       ??_C@_04FCOP@Type?$AA@     0042e718     lib_data:gt_exe_ne.obj
 0002:00005720       ??_C@_02GDHA@Nr?$AA@       0042e720     lib_data:gt_exe_ne.obj
 0002:00005724       ??_C@_0BK@ILPE@?5?5Segment?5table?5listing?3?6?$AA@ 0042e724     lib_data:gt_exe_ne.obj
 0002:00005740       ??_C@_0BI@ILPK@?5?5?5?580x87?5instructions?6?$AA@ 0042e740     lib_data:gt_exe_ne.obj
 0002:00005758       ??_C@_0BI@PMEG@?5?5?5?580386?5instructions?6?$AA@ 0042e758     lib_data:gt_exe_ne.obj
 0002:00005770       ??_C@_0BI@IGH@?5?5?5?580286?5instructions?6?$AA@ 0042e770     lib_data:gt_exe_ne.obj
 0002:00005788       ??_C@_0BH@CFCH@?5?5?5?58086?5instructions?6?$AA@ 0042e788     lib_data:gt_exe_ne.obj
 0002:000057a0       ??_C@_0BJ@IGLN@?5?5?5?5Protected?5mode?5only?6?$AA@ 0042e7a0     lib_data:gt_exe_ne.obj
 0002:000057bc       ??_C@_0CD@IKNC@?5?5?5?5File?5is?5a?5Windows?5applicatio@ 0042e7bc     lib_data:gt_exe_ne.obj
 0002:000057e0       ??_C@_0CK@LBK@?5?5?5?5File?5is?5a?5dynamic?9link?5libra@ 0042e7e0     lib_data:gt_exe_ne.obj
 0002:0000580c       ??_C@_0BC@MPLL@?5?5Program?5flags?3?6?$AA@ 0042e80c     lib_data:gt_exe_ne.obj
 0002:00005820       ??_C@_0BL@CONI@?5?5Linker?5version?3?5?$CFd?4?$CF02d?6?$AA@ 0042e820     lib_data:gt_exe_ne.obj
 0002:0000583c       ??_C@_0O@DKJH@unknown?5?$CI?$CFd?$CJ?6?$AA@ 0042e83c     lib_data:gt_exe_ne.obj
 0002:0000584c       ??_C@_0CD@LFEC@Phar?5Lap?5DOS?5Extender?5286?5Window@ 0042e84c     lib_data:gt_exe_ne.obj
 0002:00005870       ??_C@_0CA@MJHE@Phar?5Lap?5DOS?5Extender?5286?5OS?12?6?$AA@ 0042e870     lib_data:gt_exe_ne.obj
 0002:00005890       ??_C@_0CK@BLNP@BOSS?5?$CIBorland?5Operating?5System?5S@ 0042e890     lib_data:gt_exe_ne.obj
 0002:000058bc       ??_C@_0N@BLOB@Windows?5386?6?$AA@ 0042e8bc     lib_data:gt_exe_ne.obj
 0002:000058cc       ??_C@_0BF@MJLC@European?5MS?9DOS?54?4x?6?$AA@ 0042e8cc     lib_data:gt_exe_ne.obj
 0002:000058e4       ??_C@_0BB@PLOE@Windows?5?$CFd?4?$CF02d?6?$AA@ 0042e8e4     lib_data:gt_exe_ne.obj
 0002:000058f8       ??_C@_0BI@KLHP@?5?5?5?5Has?5fast?9load?5area?6?$AA@ 0042e8f8     lib_data:gt_exe_ne.obj
 0002:00005910       ??_C@_0BM@HGPN@?5?5?5?52?4x?5proportional?5fonts?6?$AA@ 0042e910     lib_data:gt_exe_ne.obj
 0002:0000592c       ??_C@_0BI@KPJD@?5?5?5?52?4x?5protected?5mode?6?$AA@ 0042e92c     lib_data:gt_exe_ne.obj
 0002:00005944       ??_C@_0BL@GGFF@?5?5?5?5Long?5filename?5support?6?$AA@ 0042e944     lib_data:gt_exe_ne.obj
 0002:00005960       ??_C@_05PJOP@OS?12?6?$AA@  0042e960     lib_data:gt_exe_ne.obj
 0002:00005968       ??_C@_08MJLG@unknown?6?$AA@ 0042e968     lib_data:gt_exe_ne.obj
 0002:00005974       ??_C@_0BM@MMPO@?5?5Target?5operating?5system?3?5?$AA@ 0042e974     lib_data:gt_exe_ne.obj
 0002:00005990       ??_C@_0DA@MDCP@?5?5Absolute?5entry?5point?5table?5off@ 0042e990     lib_data:gt_exe_ne.obj
 0002:000059c0       ??_C@_0DD@NCK@?5?5Absolute?5imported?5names?5table?5@ 0042e9c0     lib_data:gt_exe_ne.obj
 0002:000059f4       ??_C@_0DG@BOJJ@?5?5Absolute?5module?5references?5tab@ 0042e9f4     lib_data:gt_exe_ne.obj
 0002:00005a2c       ??_C@_0DD@DKFO@?5?5Absolute?5resident?5names?5table?5@ 0042ea2c     lib_data:gt_exe_ne.obj
 0002:00005a60       ??_C@_0CN@LHPE@?5?5Absolute?5resource?5table?5offset@ 0042ea60     lib_data:gt_exe_ne.obj
 0002:00005a90       ??_C@_0CM@IAKF@?5?5Absolute?5segment?5table?5offset?3@ 0042ea90     lib_data:gt_exe_ne.obj
 0002:00005abc       ??_C@_0DA@PBMC@?5?5File?5has?5a?5selfloader?5?$CImay?5be?5@ 0042eabc     lib_data:gt_exe_ne.obj
 0002:00005aec       ??_C@_0CD@OHHI@?5?5Calculated?5file?5size?3?5?$CFld?1?$CF08X@ 0042eaec     lib_data:gt_exe_ne.obj
 0002:00005b10       ??_C@_0CD@KHAG@?5?5Error?3?5the?5CS?5segment?5is?5empty@ 0042eb10     lib_data:gt_exe_ne.obj
 0002:00005b34       ??_C@_0DB@CFFH@?5?5Error?3?5CS?5is?5greater?5than?5the?5@ 0042eb34     lib_data:gt_exe_ne.obj
 0002:00005b68       ??_C@_0CE@EMMB@?5?5Entrypoint?5is?5out?5of?5file?5boun@ 0042eb68     lib_data:gt_exe_ne.obj
 0002:00005b8c       ??_C@_0BJ@KOEM@?5?5Entrypoint?3?5?$CFld?1?$CF08Xh?6?$AA@ 0042eb8c     lib_data:gt_exe_ne.obj
 0002:00005ba8       ??_C@_0BM@BJNF@NE?5EXE?5at?5offset?5?$CFld?1?$CF08Xh?6?$AA@ 0042eba8     lib_data:gt_exe_ne.obj
 0002:00005c08       ??_C@_0BN@LMAI@Section?5table?5was?5not?5found?6?$AA@ 0042ec08     lib_data:gt_exe_pe_sectiontablehdl.obj
 0002:00005c28       ??_C@_0CB@GPFJ@Failed?5to?5read?5PE?5section?5table?6@ 0042ec28     lib_data:gt_exe_pe_sectiontablehdl.obj
 0002:00005c4c       ??_7GT_EXE_PE_SectionTableAnalyzer@@6B@ 0042ec4c     lib_data:gt_exe_pe_sectiontablehdl.obj
 0002:00005c50       ??_C@_0M@NOLN@?$FLnot?5found?$FN?$AA@ 0042ec50     lib_data:gt_exe_pe_sectiontablehdl.obj
 0002:00005c5c       ??_C@_0BE@GLMI@COM?$CL?5Runtime?5Header?$AA@ 0042ec5c     lib_data:gt_exe_types.obj
 0002:00005c70       ??_C@_0BI@DBIF@Delay?5Import?5Descriptor?$AA@ 0042ec70     lib_data:gt_exe_types.obj
 0002:00005c88       ??_C@_0BF@COCJ@Import?5Address?5Table?$AA@ 0042ec88     lib_data:gt_exe_types.obj
 0002:00005ca0       ??_C@_0BD@KFDL@Bound?5Import?5Table?$AA@ 0042eca0     lib_data:gt_exe_types.obj
 0002:00005cb4       ??_C@_0BC@PAHO@Load?5Config?5Table?$AA@ 0042ecb4     lib_data:gt_exe_types.obj
 0002:00005cc8       ??_C@_09KPL@TLS?5Table?$AA@ 0042ecc8     lib_data:gt_exe_types.obj
 0002:00005cd4       ??_C@_0L@INGL@Global?5Ptr?$AA@ 0042ecd4     lib_data:gt_exe_types.obj
 0002:00005ce0       ??_C@_0N@BFCG@Architecture?$AA@ 0042ece0     lib_data:gt_exe_types.obj
 0002:00005cf0       ??_C@_0L@JHPA@Debug?5data?$AA@ 0042ecf0     lib_data:gt_exe_types.obj
 0002:00005cfc       ??_C@_0BG@LNEG@Base?5relocation?5Table?$AA@ 0042ecfc     lib_data:gt_exe_types.obj
 0002:00005d14       ??_C@_0BC@FGLM@Certificate?5Table?$AA@ 0042ed14     lib_data:gt_exe_types.obj
 0002:00005d28       ??_C@_0BA@MIGL@Exception?5Table?$AA@ 0042ed28     lib_data:gt_exe_types.obj
 0002:00005d38       ??_C@_0BA@NNKG@Ressource?5Table?$AA@ 0042ed38     lib_data:gt_exe_types.obj
 0002:00005d48       ??_C@_0N@DEDF@Import?5Table?$AA@ 0042ed48     lib_data:gt_exe_types.obj
 0002:00005d58       ??_C@_0N@EIH@Export?5Table?$AA@ 0042ed58     lib_data:gt_exe_types.obj
 0002:00005d68       ??_C@_04JKFK@HTML?$AA@     0042ed68     lib_data:gt_exe_types.obj
 0002:00005d70       ??_C@_0O@BHA@Animated?5Icon?$AA@ 0042ed70     lib_data:gt_exe_types.obj
 0002:00005d80       ??_C@_0BA@POPF@Animated?5Cursor?$AA@ 0042ed80     lib_data:gt_exe_types.obj
 0002:00005d90       ??_C@_03DCHD@VXD?$AA@      0042ed90     lib_data:gt_exe_types.obj
 0002:00005d94       ??_C@_0M@CEEA@Plug?8n?8Play?$AA@ 0042ed94     lib_data:gt_exe_types.obj
 0002:00005da0       ??_C@_0P@KGNF@Dialog?5Include?$AA@ 0042eda0     lib_data:gt_exe_types.obj
 0002:00005db0       ??_C@_07MNFD@Version?$AA@  0042edb0     lib_data:gt_exe_types.obj
 0002:00005db8       ??_C@_0L@IGPE@Group?5Icon?$AA@ 0042edb8     lib_data:gt_exe_types.obj
 0002:00005dc4       ??_C@_0N@OPID@Group?5Cursor?$AA@ 0042edc4     lib_data:gt_exe_types.obj
 0002:00005dd4       ??_C@_0O@DEPC@Message?5Table?$AA@ 0042edd4     lib_data:gt_exe_types.obj
 0002:00005de4       ??_C@_06LGJH@RCData?$AA@   0042ede4     lib_data:gt_exe_types.obj
 0002:00005dec       ??_C@_0M@BGGO@Accelerator?$AA@ 0042edec     lib_data:gt_exe_types.obj
 0002:00005df8       ??_C@_04CLJC@Font?$AA@     0042edf8     lib_data:gt_exe_types.obj
 0002:00005e00       ??_C@_0P@LACI@Font?5Directory?$AA@ 0042ee00     lib_data:gt_exe_types.obj
 0002:00005e10       ??_C@_06PINC@String?$AA@   0042ee10     lib_data:gt_exe_types.obj
 0002:00005e18       ??_C@_06FPEO@Dialog?$AA@   0042ee18     lib_data:gt_exe_types.obj
 0002:00005e20       ??_C@_04PAPL@Menu?$AA@     0042ee20     lib_data:gt_exe_types.obj
 0002:00005e28       ??_C@_04JNBP@Icon?$AA@     0042ee28     lib_data:gt_exe_types.obj
 0002:00005e30       ??_C@_06KLJN@Bitmap?$AA@   0042ee30     lib_data:gt_exe_types.obj
 0002:00005e38       ??_C@_06KIBG@Cursor?$AA@   0042ee38     lib_data:gt_exe_types.obj
 0002:00005e80       ??_C@_0CD@COHP@?5?5File?5has?5no?5valid?5segment?5tabl@ 0042ee80     lib_data:gt_exe_ne_segmenthdl.obj
 0002:00005ea4       ??_C@_0CK@OBEE@?5?5Failed?5to?5read?5segment?5table?5f@ 0042eea4     lib_data:gt_exe_ne_segmenthdl.obj
 0002:00005ed0       ??_7GT_EXE_NE_SegmentHandler@@6B@ 0042eed0     lib_data:gt_exe_ne_segmenthdl.obj
 0002:00005ed4       ??_C@_04IDIA@DATA?$AA@     0042eed4     lib_data:gt_exe_ne_segmenthdl.obj
 0002:00005edc       ??_C@_06HCIJ@_last_?$AA@   0042eedc     lib_archive:gt_archiver.obj
 0002:00005ee4       ??_C@_03FOJF@ZPK?$AA@      0042eee4     lib_archive:gt_archiver.obj
 0002:00005ee8       ??_C@_03EKGB@ZOO?$AA@      0042eee8     lib_archive:gt_archiver.obj
 0002:00005eec       ??_C@_03JFLD@ZIP?$AA@      0042eeec     lib_archive:gt_archiver.obj
 0002:00005ef0       ??_C@_03NABB@ZET?$AA@      0042eef0     lib_archive:gt_archiver.obj
 0002:00005ef4       ??_C@_02GONE@YZ?$AA@       0042eef4     lib_archive:gt_archiver.obj
 0002:00005ef8       ??_C@_02DJIL@YC?$AA@       0042eef8     lib_archive:gt_archiver.obj
 0002:00005efc       ??_C@_03PLCO@XPA?$AA@      0042eefc     lib_archive:gt_archiver.obj
 0002:00005f00       ??_C@_02COHM@XL?$AA@       0042ef00     lib_archive:gt_archiver.obj
 0002:00005f04       ??_C@_03JICF@XIE?$AA@      0042ef04     lib_archive:gt_archiver.obj
 0002:00005f08       ??_C@_03KOCK@UHA?$AA@      0042ef08     lib_archive:gt_archiver.obj
 0002:00005f0c       ??_C@_03GMIB@UFA?$AA@      0042ef0c     lib_archive:gt_archiver.obj
 0002:00005f10       ??_C@_03IBGI@UC2?$AA@      0042ef10     lib_archive:gt_archiver.obj
 0002:00005f14       ??_C@_03JAL@TAR?$AA@       0042ef14     lib_archive:gt_archiver.obj
 0002:00005f18       ??_C@_04PLOB@SZIP?$AA@     0042ef18     lib_archive:gt_archiver.obj
 0002:00005f20       ??_C@_07HJCL@Synetic?$AA@  0042ef20     lib_archive:gt_archiver.obj
 0002:00005f28       ??_C@_04DINJ@SWAG?$AA@     0042ef28     lib_archive:gt_archiver.obj
 0002:00005f30       ??_C@_08IFPI@Stirling?$AA@ 0042ef30     lib_archive:gt_archiver.obj
 0002:00005f3c       ??_C@_03IJHL@SQZ?$AA@      0042ef3c     lib_archive:gt_archiver.obj
 0002:00005f40       ??_C@_05DOLK@SQWEZ?$AA@    0042ef40     lib_archive:gt_archiver.obj
 0002:00005f48       ??_C@_03HGON@SOF?$AA@      0042ef48     lib_archive:gt_archiver.obj
 0002:00005f4c       ??_C@_03IEGK@SKY?$AA@      0042ef4c     lib_archive:gt_archiver.obj
 0002:00005f50       ??_C@_03INAD@SBX?$AA@      0042ef50     lib_archive:gt_archiver.obj
 0002:00005f54       ??_C@_03IPHC@SBC?$AA@      0042ef54     lib_archive:gt_archiver.obj
 0002:00005f58       ??_C@_03LHGK@SAR?$AA@      0042ef58     lib_archive:gt_archiver.obj
 0002:00005f5c       ??_C@_03DCJK@RNC?$AA@      0042ef5c     lib_archive:gt_archiver.obj
 0002:00005f60       ??_C@_09BNJN@RKive?5?$CI2?$CJ?$AA@ 0042ef60     lib_archive:gt_archiver.obj
 0002:00005f6c       ??_C@_09CGGC@RKive?5?$CI1?$CJ?$AA@ 0042ef6c     lib_archive:gt_archiver.obj
 0002:00005f78       ??_C@_03OEOK@RAX?$AA@      0042ef78     lib_archive:gt_archiver.obj
 0002:00005f7c       ??_C@_03OFHM@RAR?$AA@      0042ef7c     lib_archive:gt_archiver.obj
 0002:00005f80       ??_C@_07CPEA@old?5RAR?$AA@ 0042ef80     lib_archive:gt_archiver.obj
 0002:00005f88       ??_C@_03HBPF@QFC?$AA@      0042ef88     lib_archive:gt_archiver.obj
 0002:00005f8c       ??_C@_01KGCH@Q?$AA@        0042ef8c     lib_archive:gt_archiver.obj
 0002:00005f90       ??_C@_04PLLD@PPMZ?$AA@     0042ef90     lib_archive:gt_archiver.obj
 0002:00005f98       ??_C@_03LHIB@PHP?$AA@      0042ef98     lib_archive:gt_archiver.obj
 0002:00005f9c       ??_C@_03EBFB@PAR?$AA@      0042ef9c     lib_archive:gt_archiver.obj
 0002:00005fa0       ??_C@_06LLNJ@oPAQue?$AA@   0042efa0     lib_archive:gt_archiver.obj
 0002:00005fa8       ??_C@_08HENK@IBM?5Pack?$AA@ 0042efa8     lib_archive:gt_archiver.obj
 0002:00005fb4       ??_C@_04LCLM@Nero?$AA@     0042efb4     lib_archive:gt_archiver.obj
 0002:00005fbc       ??_C@_03KONJ@MSC?$AA@      0042efbc     lib_archive:gt_archiver.obj
 0002:00005fc0       ??_C@_03OKMC@MAR?$AA@      0042efc0     lib_archive:gt_archiver.obj
 0002:00005fc4       ??_C@_03KBNF@LZO?$AA@      0042efc4     lib_archive:gt_archiver.obj
 0002:00005fc8       ??_C@_03PEDA@LZH?$AA@      0042efc8     lib_archive:gt_archiver.obj
 0002:00005fcc       ??_C@_03KBP@LZA?$AA@       0042efcc     lib_archive:gt_archiver.obj
 0002:00005fd0       ??_C@_08JHGP@Links?5LS?$AA@ 0042efd0     lib_archive:gt_archiver.obj
 0002:00005fdc       ??_C@_03KFKN@LIM?$AA@      0042efdc     lib_archive:gt_archiver.obj
 0002:00005fe0       ??_C@_02LFHO@LG?$AA@       0042efe0     lib_archive:gt_archiver.obj
 0002:00005fe4       ??_C@_03GBC@JRC?$AA@       0042efe4     lib_archive:gt_archiver.obj
 0002:00005fe8       ??_C@_03FEKD@JAR?$AA@      0042efe8     lib_archive:gt_archiver.obj
 0002:00005fec       ??_C@_03OGID@ISC?$AA@      0042efec     lib_archive:gt_archiver.obj
 0002:00005ff0       ??_C@_03NMAO@INS?$AA@      0042eff0     lib_archive:gt_archiver.obj
 0002:00005ff4       ??_C@_03BIEI@IMP?$AA@      0042eff4     lib_archive:gt_archiver.obj
 0002:00005ff8       ??_C@_04KLNL@Inno?$AA@     0042eff8     lib_archive:gt_archiver.obj
 0002:00006000       ??_C@_09LFAP@Hyper?52?46?$AA@ 0042f000     lib_archive:gt_archiver.obj
 0002:0000600c       ??_C@_09EKLG@Hyper?52?45?$AA@ 0042f00c     lib_archive:gt_archiver.obj
 0002:00006018       ??_C@_03JLLB@HQX?$AA@      0042f018     lib_archive:gt_archiver.obj
 0002:0000601c       ??_C@_03NKEE@HPA?$AA@      0042f01c     lib_archive:gt_archiver.obj
 0002:00006020       ??_C@_03KFKA@HAP?$AA@      0042f020     lib_archive:gt_archiver.obj
 0002:00006024       ??_C@_02BAKG@HA?$AA@       0042f024     lib_archive:gt_archiver.obj
 0002:00006028       ??_C@_04LMDK@GZip?$AA@     0042f028     lib_archive:gt_archiver.obj
 0002:00006030       ??_C@_06FBOJ@FINISH?$AA@   0042f030     lib_archive:gt_archiver.obj
 0002:00006038       ??_C@_03GIKF@ESP?$AA@      0042f038     lib_archive:gt_archiver.obj
 0002:0000603c       ??_C@_03IBFC@ELI?$AA@      0042f03c     lib_archive:gt_archiver.obj
 0002:00006040       ??_C@_03DGNA@DWC?$AA@      0042f040     lib_archive:gt_archiver.obj
 0002:00006044       ??_C@_03CKL@DPA?$AA@       0042f044     lib_archive:gt_archiver.obj
 0002:00006048       ??_C@_04HJMF@CPAC?$AA@     0042f048     lib_archive:gt_archiver.obj
 0002:00006050       ??_C@_06HJBB@COMP16?$AA@   0042f050     lib_archive:gt_archiver.obj
 0002:00006058       ??_C@_03CKJ@COD?$AA@       0042f058     lib_archive:gt_archiver.obj
 0002:0000605c       ??_C@_03GBEG@CHZ?$AA@      0042f05c     lib_archive:gt_archiver.obj
 0002:00006060       ??_C@_03DPHA@CAB?$AA@      0042f060     lib_archive:gt_archiver.obj
 0002:00006064       ??_C@_02IKNG@BZ?$AA@       0042f064     lib_archive:gt_archiver.obj
 0002:00006068       ??_C@_03NEHO@BSN?$AA@      0042f068     lib_archive:gt_archiver.obj
 0002:0000606c       ??_C@_03NFCD@BSA?$AA@      0042f06c     lib_archive:gt_archiver.obj
 0002:00006070       ??_C@_03HEMK@BS2?$AA@      0042f070     lib_archive:gt_archiver.obj
 0002:00006074       ??_C@_03FAHE@BOA?$AA@      0042f074     lib_archive:gt_archiver.obj
 0002:00006078       ??_C@_03DPDD@BLI?$AA@      0042f078     lib_archive:gt_archiver.obj
 0002:0000607c       ??_C@_03HANE@BIX?$AA@      0042f07c     lib_archive:gt_archiver.obj
 0002:00006080       ??_C@_03CDND@ASD?$AA@      0042f080     lib_archive:gt_archiver.obj
 0002:00006084       ??_C@_03JEJA@AR7?$AA@      0042f084     lib_archive:gt_archiver.obj
 0002:00006088       ??_C@_03GCON@ARX?$AA@      0042f088     lib_archive:gt_archiver.obj
 0002:0000608c       ??_C@_03MJOM@ARS?$AA@      0042f08c     lib_archive:gt_archiver.obj
 0002:00006090       ??_C@_03JMMC@ARQ?$AA@      0042f090     lib_archive:gt_archiver.obj
 0002:00006094       ??_C@_03DECE@ARK?$AA@      0042f094     lib_archive:gt_archiver.obj
 0002:00006098       ??_C@_03JOLD@ARJ?$AA@      0042f098     lib_archive:gt_archiver.obj
 0002:0000609c       ??_C@_03GBAK@ARI?$AA@      0042f09c     lib_archive:gt_archiver.obj
 0002:000060a0       ??_C@_03MKMA@ARG?$AA@      0042f0a0     lib_archive:gt_archiver.obj
 0002:000060a4       ??_C@_03GAJM@ARC?$AA@      0042f0a4     lib_archive:gt_archiver.obj
 0002:000060a8       ??_C@_03HEGI@AMG?$AA@      0042f0a8     lib_archive:gt_archiver.obj
 0002:000060ac       ??_C@_04NOK@AKT9?$AA@      0042f0ac     lib_archive:gt_archiver.obj
 0002:000060b4       ??_C@_04KHHN@AKT8?$AA@     0042f0b4     lib_archive:gt_archiver.obj
 0002:000060bc       ??_C@_04KGCA@AKT7?$AA@     0042f0bc     lib_archive:gt_archiver.obj
 0002:000060c4       ??_C@_03NAON@AIN?$AA@      0042f0c4     lib_archive:gt_archiver.obj
 0002:000060c8       ??_C@_03ODON@ACE?$AA@      0042f0c8     lib_archive:gt_archiver.obj
 0002:000060cc       ??_C@_03KNAF@777?$AA@      0042f0cc     lib_archive:gt_archiver.obj
 0002:000060d0       ??_C@_06BACP@_none_?$AA@   0042f0d0     lib_archive:gt_archiver.obj
 0002:00006118       ??_C@_05BGJG@?9sw1?9?$AA@  0042f118     lib_archive:gt_archiver.obj
 0002:00006120       ??_C@_05GKFI@HLSQZ?$AA@    0042f120     lib_archive:gt_archiver.obj
 0002:00006128       ??_C@_07EBIJ@PHILIPP?$AA@  0042f128     lib_archive:gt_archiver.obj
 0002:00006130       ??_C@_05BAAH@?9ah0?9?$AA@  0042f130     lib_archive:gt_archiver.obj
 0002:00006138       ??_C@_07KLEN@ChfLZ_2?$AA@  0042f138     lib_archive:gt_archiver.obj
 0002:00006140       ??_C@_07DMPF@JRchive?$AA@  0042f140     lib_archive:gt_archiver.obj
 0002:00006148       ??_C@_05NIJH@?$BKJar?$BL?$AA@ 0042f148     lib_archive:gt_archiver.obj
 0002:00006150       ??_C@_07EMNP@idska32?$AA@  0042f150     lib_archive:gt_archiver.obj
 0002:00006158       ??_C@_0BK@MBA@?$CIThis?5file?5must?5be?5conver?$AA@ 0042f158     lib_archive:gt_archiver.obj
 0002:00006174       ??_C@_0L@NCFE@Dirk?5Paehl?$AA@ 0042f174     lib_archive:gt_archiver.obj
 0002:00006180       ??_C@_07JDGG@DSIGDCC?$AA@  0042f180     lib_archive:gt_archiver.obj
 0002:00006188       ??_C@_0BA@OCEF@Blink?5by?5D?4T?4S?4?$AA@ 0042f188     lib_archive:gt_archiver.obj
 0002:00006198       ??_C@_05JMCH@?9lh1?9?$AA@  0042f198     lib_archive:gt_archiver.obj
 0002:000061a0       ??_C@_0P@OILA@?$AN?$CIC?$CJ?5STEPANYUK?$AA@ 0042f1a0     lib_archive:gt_archiver.obj
 0002:000061b0       ??_C@_07NKLG@?$CK?$CKACE?$CK?$CK?$AA@ 0042f1b0     lib_archive:gt_archiver.obj
 0002:000061b8       ??_C@_05CHGH@ustar?$AA@    0042f1b8     lib_archive:gt_archiver.obj
 0002:000061c0       ??_C@_0CA@DHFM@?5at?5?$CIrelative?$CJ?5offset?5?$CFd?1?$CF04Xh?6?$AA@ 0042f1c0     lib_archive:gt_archiver.obj
 0002:000061e0       ??_C@_0BB@LIBI@Found?5?$CFs?5archive?$AA@ 0042f1e0     lib_archive:gt_archiver.obj
 0002:000061f4       ??_C@_0BL@MBAC@No?5lister?5is?5implemented?6?6?$AA@ 0042f1f4     lib_archive:gt_archiver.obj
 0002:00006210       ??_7GT_ZOOArchiveLister@@6B@ 0042f210     lib_archive:gt_archiver.obj
 0002:00006220       ??_7GT_ZIPArchiveLister@@6B@ 0042f220     lib_archive:gt_archiver.obj
 0002:00006230       ??_7GT_ZETArchiveLister@@6B@ 0042f230     lib_archive:gt_archiver.obj
 0002:00006240       ??_7GT_YCArchiveLister@@6B@ 0042f240     lib_archive:gt_archiver.obj
 0002:00006250       ??_7GT_TARArchiveLister@@6B@ 0042f250     lib_archive:gt_archiver.obj
 0002:00006260       ??_7GT_SYNArchiveLister@@6B@ 0042f260     lib_archive:gt_archiver.obj
 0002:00006270       ??_7GT_STIArchiveLister@@6B@ 0042f270     lib_archive:gt_archiver.obj
 0002:00006280       ??_7GT_SBCArchiveLister@@6B@ 0042f280     lib_archive:gt_archiver.obj
 0002:00006290       ??_7GT_RARArchiveLister@@6B@ 0042f290     lib_archive:gt_archiver.obj
 0002:000062a0       ??_7GT_PPZArchiveLister@@6B@ 0042f2a0     lib_archive:gt_archiver.obj
 0002:000062b0       ??_7GT_PAQArchiveLister@@6B@ 0042f2b0     lib_archive:gt_archiver.obj
 0002:000062c0       ??_7GT_NEROArchiveLister@@6B@ 0042f2c0     lib_archive:gt_archiver.obj
 0002:000062d0       ??_7GT_LZOArchiveLister@@6B@ 0042f2d0     lib_archive:gt_archiver.obj
 0002:000062e0       ??_7GT_LZHArchiveLister@@6B@ 0042f2e0     lib_archive:gt_archiver.obj
 0002:000062f0       ??_7GT_LGArchiveLister@@6B@ 0042f2f0     lib_archive:gt_archiver.obj
 0002:00006300       ??_7GT_ISCArchiveLister@@6B@ 0042f300     lib_archive:gt_archiver.obj
 0002:00006310       ??_7GT_INSArchiveLister@@6B@ 0042f310     lib_archive:gt_archiver.obj
 0002:00006320       ??_7GT_IDSKAArchiveLister@@6B@ 0042f320     lib_archive:gt_archiver.obj
 0002:00006330       ??_7GT_HAArchiveLister@@6B@ 0042f330     lib_archive:gt_archiver.obj
 0002:00006340       ??_7GT_GZArchiveLister@@6B@ 0042f340     lib_archive:gt_archiver.obj
 0002:00006350       ??_7GT_DPAArchiveLister@@6B@ 0042f350     lib_archive:gt_archiver.obj
 0002:00006360       ??_7GT_CABArchiveLister@@6B@ 0042f360     lib_archive:gt_archiver.obj
 0002:00006370       ??_7GT_BLIArchiveLister@@6B@ 0042f370     lib_archive:gt_archiver.obj
 0002:00006380       ??_7GT_ASDArchiveLister@@6B@ 0042f380     lib_archive:gt_archiver.obj
 0002:00006390       ??_7GT_ARXArchiveLister@@6B@ 0042f390     lib_archive:gt_archiver.obj
 0002:000063a0       ??_7GT_ARQArchiveLister@@6B@ 0042f3a0     lib_archive:gt_archiver.obj
 0002:000063b0       ??_7GT_ARJArchiveLister@@6B@ 0042f3b0     lib_archive:gt_archiver.obj
 0002:000063c0       ??_7GT_ARGArchiveLister@@6B@ 0042f3c0     lib_archive:gt_archiver.obj
 0002:000063d0       ??_7GT_ARCArchiveLister@@6B@ 0042f3d0     lib_archive:gt_archiver.obj
 0002:000063e0       ??_7GT_AKT9ArchiveLister@@6B@ 0042f3e0     lib_archive:gt_archiver.obj
 0002:000063f0       ??_7GT_AKT7ArchiveLister@@6B@ 0042f3f0     lib_archive:gt_archiver.obj
 0002:00006400       ??_7GT_AMGArchiveLister@@6B@ 0042f400     lib_archive:gt_archiver.obj
 0002:00006410       ??_7GT_AINArchiveLister@@6B@ 0042f410     lib_archive:gt_archiver.obj
 0002:00006420       ??_7GT_ACEArchiveLister@@6B@ 0042f420     lib_archive:gt_archiver.obj
 0002:00006430       ??_7GT_777ArchiveLister@@6B@ 0042f430     lib_archive:gt_archiver.obj
 0002:00006440       ??_7GT_BasicArchiveLister@@6B@ 0042f440     lib_archive:gt_archiver.obj
 0002:00006450       ??_C@_0CK@CIAI@?5Original?5?5?5?5Packed?5?5?5Perc?4?5?5?5?$CFs@ 0042f450     lib_archive:gt_archiver.obj
 0002:0000647c       ??_C@_0L@EPCC@?5?5?5?5?5Date?5?$AA@ 0042f47c     lib_archive:gt_archiver.obj
 0002:00006488       ??_C@_0BN@MKKN@?5?$CF8i?5?5?$CF8i?5?5?$CF5?41f?$CF?$CF?5?5?$CFs?5?$CFs?$CFs?6?$AA@ 0042f488     lib_archive:gt_archiver.obj
 0002:000064a8       ??_C@_0L@PNFB@invalid?5?5?5?$AA@ 0042f4a8     lib_archive:gt_archiver.obj
 0002:000064b4       ??_C@_0M@KBAG@?5?$FLpassword?$FN?$AA@ 0042f4b4     lib_archive:gt_archiver.obj
 0002:000064c0       ??_C@_0BL@JPLL@?5?$CF8i?5?5?$CF8i?5?5?$CF5?41f?$CF?$CF?5?5?$CFs?5?$CFs?6?$AA@ 0042f4c0     lib_archive:gt_archiver.obj
 0002:000064dc       ??_C@_0L@LJKB@?5?5?5?5?5?5?5?5?5?5?$AA@ 0042f4dc     lib_archive:gt_archiver.obj
 0002:000064e8       ??_C@_0CI@DII@Warning?3?5the?5archive?5may?5be?5inco@ 0042f4e8     lib_archive:gt_archiver.obj
 0002:00006510       ??_C@_0BA@MFDD@gt_archiver?4cxx?$AA@ 0042f510     lib_archive:gt_archiver.obj
 0002:00006520       ??_C@_0DN@BJGI@Error?3?5found?5unexpected?5value?5?$CIi@ 0042f520     lib_archive:gt_archiver.obj
 0002:00006560       ??_C@_0CI@DMHK@Error?3?5found?5unexpected?5end?5of?5a@ 0042f560     lib_archive:gt_archiver.obj
 0002:00006588       ??_C@_08KFGC@?$CFd?5files?$AA@ 0042f588     lib_archive:gt_archiver.obj
 0002:00006594       ??_C@_06DMBJ@1?5file?$AA@  0042f594     lib_archive:gt_archiver.obj
 0002:0000659c       ??_C@_0CJ@DIHC@This?5type?5of?5archive?5cannot?5be?5l@ 0042f59c     lib_archive:gt_archiver.obj
 0002:000065c8       ??_C@_0BM@OJP@?$FLcontinued?5on?5next?5volume?$FN?6?$AA@ 0042f5c8     lib_archive:gt_archiver.obj
 0002:000065e4       ??_C@_0BO@OPCO@?$FLcontinued?5from?5last?5volume?$FN?6?$AA@ 0042f5e4     lib_archive:gt_archiver.obj
 0002:00006604       ??_C@_0N@HBNL@?5?$FLdirectory?$FN?$AA@ 0042f604     lib_archive:gt_archiver.obj
 0002:00006614       ??_C@_0CA@DJIM@Error?3?5failed?5to?5read?5filename?6?$AA@ 0042f614     lib_archive:gt_archiver.obj
 0002:00006634       ??_C@_0BL@GLGO@?5?5Archive?5version?3?5?$CFd?4?$CFd?6?6?$AA@ 0042f634     lib_archive:gt_archiver.obj
 0002:00006650       ??_C@_0BH@DIHG@?5?5?$CFd?5files?5in?5archive?6?$AA@ 0042f650     lib_archive:gt_archiver.obj
 0002:00006668       ??_C@_0CF@LDHJ@Error?3?5failed?5to?5read?5global?5hea@ 0042f668     lib_archive:gt_archiver.obj
 0002:00006690       ??_C@_0BM@FFFA@?5?5?$CFd?5bytes?5archive?5comment?6?$AA@ 0042f690     lib_archive:gt_archiver.obj
 0002:000066ac       ??_C@_0BK@PILJ@?5?5Archive?5version?3?5?$CFd?4?$CFd?6?$AA@ 0042f6ac     lib_archive:gt_archiver.obj
 0002:000066c8       ??_C@_0BP@PDBE@Unknown?5compression?5method?5?$CFd?6?$AA@ 0042f6c8     lib_archive:gt_archiver.obj
 0002:000066e8       ??_C@_0N@LBLN@?5?5?$FLcomment?$FN?6?$AA@ 0042f6e8     lib_archive:gt_archiver.obj
 0002:000066f8       ??_C@_0CE@PPDD@Cannot?5find?5end?5of?5archive?5comme@ 0042f6f8     lib_archive:gt_archiver.obj
 0002:0000671c       ??_C@_0CA@HAML@?5?5Original?5archive?5name?3?5?8?$CFs?8?6?6?$AA@ 0042f71c     lib_archive:gt_archiver.obj
 0002:0000673c       ??_C@_0N@MFNL@unknown?3?5?$CFd?6?$AA@ 0042f73c     lib_archive:gt_archiver.obj
 0002:0000674c       ??_C@_0O@FNBI@3?403?5?9?53?408a?6?$AA@ 0042f74c     lib_archive:gt_archiver.obj
 0002:0000675c       ??_C@_06GBKO@3?400a?6?$AA@ 0042f75c     lib_archive:gt_archiver.obj
 0002:00006764       ??_C@_05KNI@ARJZ?6?$AA@    0042f764     lib_archive:gt_archiver.obj
 0002:0000676c       ??_C@_0O@JGLC@2?463?5?9?52?475a?6?$AA@ 0042f76c     lib_archive:gt_archiver.obj
 0002:0000677c       ??_C@_05FHL@2?462?6?$AA@   0042f77c     lib_archive:gt_archiver.obj
 0002:00006784       ??_C@_0N@HLOB@2?455?5?9?52?460?6?$AA@ 0042f784     lib_archive:gt_archiver.obj
 0002:00006794       ??_C@_0BD@IMOI@2?442?$CIc?$CJ?5?9?52?450?$CIa?$CJ?6?$AA@ 0042f794     lib_archive:gt_archiver.obj
 0002:000067a8       ??_C@_05JKKJ@2?441?6?$AA@  0042f7a8     lib_archive:gt_archiver.obj
 0002:000067b0       ??_C@_05JBJM@2?439?6?$AA@  0042f7b0     lib_archive:gt_archiver.obj
 0002:000067b8       ??_C@_05DCGC@2?430?6?$AA@  0042f7b8     lib_archive:gt_archiver.obj
 0002:000067c0       ??_C@_05HGNO@2?421?6?$AA@  0042f7c0     lib_archive:gt_archiver.obj
 0002:000067c8       ??_C@_0M@MDF@prior?52?421?6?$AA@ 0042f7c8     lib_archive:gt_archiver.obj
 0002:000067d4       ??_C@_0BE@7?5?5Archive?5version?3?5?$AA@ 0042f7d4     lib_archive:gt_archiver.obj
 0002:000067e8       ??_C@_0CG@FELE@Error?3?5failed?5to?5read?5archive?5he@ 0042f7e8     lib_archive:gt_archiver.obj
 0002:00006810       ??_C@_0L@JIFH@gt_arq?4hxx?$AA@ 0042f810     lib_archive:gt_archiver.obj
 0002:0000681c       ??_C@_0BN@NMD@Error?3?5Unsupported?5version?4?6?$AA@ 0042f81c     lib_archive:gt_archiver.obj
 0002:0000683c       ??_C@_0BJ@KFFD@Archive?5version?5?$CFd?4?$CF02i?6?$AA@ 0042f83c     lib_archive:gt_archiver.obj
 0002:00006858       ??_C@_0BM@BMEH@?5?5Archive?5version?3?5?$CFd?4?$CF02d?6?$AA@ 0042f858     lib_archive:gt_archiver.obj
 0002:00006874       ??_C@_0DH@KDHB@Seems?5like?5the?5archive?5was?5rippe@ 0042f874     lib_archive:gt_archiver.obj
 0002:000068ac       ??_7GT_IMPArchiveLister@@6B@ 0042f8ac     lib_archive:gt_archiver.obj
 0002:000068bc       ??_C@_0BD@LCML@Unknown?5method?5?$CFd?6?$AA@ 0042f8bc     lib_archive:gt_archiver.obj
 0002:000068d0       ??_C@_0CC@HMCB@LZ77?5multimedia?5is?5not?5supported@ 0042f8d0     lib_archive:gt_archiver.obj
 0002:000068f4       ??_C@_0CM@INJ@Burrows?9Wheeler?5Transform?5is?5not@ 0042f8f4     lib_archive:gt_archiver.obj
 0002:00006920       ??_C@_0BI@KHC@?5?5archive?5is?5encrypted?6?$AA@ 0042f920     lib_archive:gt_archiver.obj
 0002:00006938       ??_C@_0CC@FHCJ@?5?5this?5is?5a?5multi?5volume?5archive@ 0042f938     lib_archive:gt_archiver.obj
 0002:0000695c       ??_C@_0BN@HFDF@?5?5archive?5comment?5was?5found?6?$AA@ 0042f95c     lib_archive:gt_archiver.obj
 0002:0000697c       ??_C@_0CA@BKDH@?5?5CRC16?5check?5on?5header?5failed?6?$AA@ 0042f97c     lib_archive:gt_archiver.obj
 0002:0000699c       ??_C@_04ENNO@?5?9?$DO?5?$AA@ 0042f99c     lib_archive:gt_archiver.obj
 0002:000069a4       ??_C@_0BK@FMCL@Found?5an?5invalid?5offset?$CB?6?$AA@ 0042f9a4     lib_archive:gt_archiver.obj
 0002:000069c0       ??_C@_0CJ@NNFF@?5?5Cannot?5list?5the?5names?5of?5this?5@ 0042f9c0     lib_archive:gt_archiver.obj
 0002:000069ec       ??_C@_01KMMP@?$CJ?$AA@     0042f9ec     lib_archive:gt_archiver.obj
 0002:000069f0       ??_C@_0BM@HGEB@?5?5Unknown?5header?5format?5?$CFd?6?$AA@ 0042f9f0     lib_archive:gt_archiver.obj
 0002:00006a0c       ??_C@_07KHOP@VGA?5ROM?$AA@ 0042fa0c     lib_archive:gt_archiver.obj
 0002:00006a14       ??_C@_0M@KFNP@System?5BIOS?$AA@ 0042fa14     lib_archive:gt_archiver.obj
 0002:00006a20       ??_C@_0L@ELNH@VSA?5driver?$AA@ 0042fa20     lib_archive:gt_archiver.obj
 0002:00006a2c       ??_C@_0BA@GDGO@EXT?5System?5BIOS?$AA@ 0042fa2c     lib_archive:gt_archiver.obj
 0002:00006a3c       ??_C@_0L@DJIA@ACPI?5table?$AA@ 0042fa3c     lib_archive:gt_archiver.obj
 0002:00006a48       ??_C@_0P@HJPJ@CPU?5micro?5code?$AA@ 0042fa48     lib_archive:gt_archiver.obj
 0002:00006a58       ??_C@_0M@GFAO@EPA?5pattern?$AA@ 0042fa58     lib_archive:gt_archiver.obj
 0002:00006a64       ??_C@_0M@CIGJ@LOGO?5BitMap?$AA@ 0042fa64     lib_archive:gt_archiver.obj
 0002:00006a70       ??_C@_07IOKC@NCR?5ROM?$AA@ 0042fa70     lib_archive:gt_archiver.obj
 0002:00006a78       ??_C@_0BB@DLDP@AHA?1BusLogic?5ROM?$AA@ 0042fa78     lib_archive:gt_archiver.obj
 0002:00006a8c       ??_C@_0CB@IPKM@Error?3?5found?5unknown?5token?5?8?$CFs?8?6@ 0042fa8c     lib_archive:gt_archiver.obj
 0002:00006ab0       ??_C@_05GPAB@total?$AA@    0042fab0     lib_archive:gt_archiver.obj
 0002:00006ab8       ??_C@_0BI@HGJO@Archive?5version?3?5?$CFd?4?$CFd?6?$AA@ 0042fab8     lib_archive:gt_archiver.obj
 0002:00006ad0       ??_C@_0CJ@OEAG@?$FLunknown?5token?5type?5?$CF02Xh?5for?5?$CFd@ 0042fad0     lib_archive:gt_archiver.obj
 0002:00006afc       ??_C@_0BD@EDNB@?$FLrecovery?5record?$FN?6?$AA@ 0042fafc     lib_archive:gt_archiver.obj
 0002:00006b10       ??_C@_0BA@EJKM@?$FLfile?5comment?$FN?6?$AA@ 0042fb10     lib_archive:gt_archiver.obj
 0002:00006b20       ??_C@_0BD@FHCJ@?$FLarchive?5comment?$FN?6?$AA@ 0042fb20     lib_archive:gt_archiver.obj
 0002:00006b34       ??_C@_08NLNB@?5?$CI0?4830?$CJ?$AA@ 0042fb34     lib_archive:gt_archiver.obj
 0002:00006b40       ??_C@_08PNME@?5?$CI0?4700?$CJ?$AA@ 0042fb40     lib_archive:gt_archiver.obj
 0002:00006b4c       ??_C@_08CNOK@?5?$CI0?4800?$CJ?$AA@ 0042fb4c     lib_archive:gt_archiver.obj
 0002:00006b58       ??_C@_08JHNB@?5?$CI0?4835?$CJ?$AA@ 0042fb58     lib_archive:gt_archiver.obj
 0002:00006b64       ??_C@_0BG@JAFN@?5?5Archive?5version?3?5?$CFd?$AA@ 0042fb64     lib_archive:gt_archiver.obj
 0002:00006b7c       ??_C@_0L@PFCJ@?$FLDisk?5?$CFd?$FN?6?$AA@ 0042fb7c     lib_archive:gt_archiver.obj
 0002:00006b88       ??_7?$GT_Sequence@VADLP_String@@@@6B@ 0042fb88     lib_archive:gt_archiver.obj
 0002:00006b8c       ??_C@_0DA@HGCN@The?5date?5displayed?5is?5invalid?5?$CIi@ 0042fb8c     lib_archive:gt_archiver.obj
 0002:00006bbc       ??_C@_0DF@NMCL@Error?3?5?$CFd?5file?$CIs?$CJ?5are?5too?5much?5i@ 0042fbbc     lib_archive:gt_archiver.obj
 0002:00006bf4       ??_C@_0DA@FAEF@Error?3?5?$CFd?5file?$CIs?$CJ?5are?5not?5in?5the@ 0042fbf4     lib_archive:gt_archiver.obj
 0002:00006c24       ??_C@_03HHKO@?$CFs?6?$AA@  0042fc24     lib_archive:gt_archiver.obj
 0002:00006c28       ??_C@_0BF@NPHB@Archive?5version?3?5?$CFd?6?$AA@ 0042fc28     lib_archive:gt_archiver.obj
 0002:00006c44       ??_7type_info@@6B@         0042fc44     libc:typinfo.obj
 0002:00006ca8       ??_C@_04NCKB@?$CF08s?$AA@  0042fca8     plib:pheader.obj
 0002:00006cb0       ??_C@_0LF@PLM@?$CB?$CB?$CB?$CB?$CB?$CB?$CB?$CB?$CB?$CB?$CB?$CB?$CB?$CB?$CB?$CB?$CB?$CB?$CB?$CB?$CB?$CB?$CB?$CB?$CB?$CB?$CB?$CB?$CB?$CB?$CB?$CB@ 0042fcb0     lib_gt:gt_error.obj
 0002:00006d68       ??_C@_01FCOA@?5?$AA@       0042fd68     lib_gt:gt_outputtable.obj
 0002:00006d6c       ??_C@_03IOFJ@?$CFXh?$AA@   0042fd6c     lib_gt:gt_outputtable.obj
 0002:00006d70       ??_C@_07HEBB@?$CF?$CF0?$CFdXh?$AA@ 0042fd70     lib_gt:gt_outputtable.obj
 0002:00006d78       ??_C@_05BOPK@?$CF?$CF?$CFdd?$AA@ 0042fd78     lib_gt:gt_outputtable.obj
 0002:00006d80       ??_C@_06IMOF@?$CF?$CF0?$CFdd?$AA@ 0042fd80     lib_gt:gt_outputtable.obj
 0002:00006d88       ??_C@_06LPNL@?$CF?$CF?9?$CFds?$AA@ 0042fd88     lib_gt:gt_outputtable.obj
 0002:00006d90       ??_C@_0P@MMOD@?$CF02d?4?$CF02d?4?$CF02d?$AA@ 0042fd90     lib_gt:gt_time.obj
 0002:00006da0       ??_C@_0P@LLBM@?$CF02d?4?$CF02d?4?$CF04d?$AA@ 0042fda0     lib_gt:gt_time.obj
 0002:00006db0       ??_C@_0P@INAO@?$CF02d?3?$CF02d?3?$CF02d?$AA@ 0042fdb0     lib_gt:gt_time.obj
 0002:00006dc0       ??_R1A@?0A@A@type_info@@8  0042fdc0     libc:typinfo.obj
 0002:00006dd8       ??_R2type_info@@8          0042fdd8     libc:typinfo.obj
 0002:00006de0       ??_R3type_info@@8          0042fde0     libc:typinfo.obj
 0002:00006df0       ??_R4type_info@@6B@        0042fdf0     libc:typinfo.obj
 0002:00007084       __CT??_R0?AVGT_Exception@@@8??0GT_Exception@@QAE@ABV0@@Z44 00430084     lib_gt:gt_filebuffer.obj
 0002:000070a0       __CTA1?AVGT_Exception@@    004300a0     lib_gt:gt_filebuffer.obj
 0002:000070a8       __TI1?AVGT_Exception@@     004300a8     lib_gt:gt_filebuffer.obj
 0003:00000000       ___xc_a                    00431000     libc:crt0init.obj
 0003:00000024       ___xc_z                    00431024     libc:crt0init.obj
 0003:00000028       ___xi_a                    00431028     libc:crt0init.obj
 0003:00000040       ___xi_z                    00431040     libc:crt0init.obj
 0003:00000044       ___xp_a                    00431044     libc:crt0init.obj
 0003:00000050       ___xp_z                    00431050     libc:crt0init.obj
 0003:00000054       ___xt_a                    00431054     libc:crt0init.obj
 0003:0000005c       ___xt_z                    0043105c     libc:crt0init.obj
 0003:00000070       __iob                      00431070     libc:_file.obj
 0003:000002f0       __fltused                  004312f0     libc:fpinit.obj
 0003:000002f4       __ldused                   004312f4     libc:fpinit.obj
 0003:000002f8       __FPinit                   004312f8     libc:fpinit.obj
 0003:000002fc       __FPmtinit                 004312fc     libc:fpinit.obj
 0003:00000300       __FPmtterm                 00431300     libc:fpinit.obj
 0003:00000304       __NLG_Destination          00431304     libc:exsup.obj
 0003:00000664       __aexit_rtn                00431664     libc:crt0.obj
 0003:00000668       ___app_type                00431668     libc:crt0.obj
 0003:0000066c       ___nullstring              0043166c     libc:output.obj
 0003:00000670       ___wnullstring             00431670     libc:output.obj
 0003:00000674       __amblksiz                 00431674     libc:heapinit.obj
 0003:00000678       ___old_small_block_heap    00431678     libc:sbheap.obj
 0003:0000269c       ___old_sbh_threshold       0043369c     libc:sbheap.obj
 0003:000026a0       ___badioinfo               004336a0     libc:ioinit.obj
 0003:000026b0       ?__pUnexpected@@3P6AXXZA   004336b0     libc:hooks.obj
 0003:000026b4       ?__pInconsistency@@3P6AXXZA 004336b4     libc:hooks.obj
 0003:000026b8       __cfltcvt_tab              004336b8     libc:cmiscdat.obj
 0003:000026d0       __coninpfh                 004336d0     libc:initcon.obj
 0003:000026d4       __confh                    004336d4     libc:initcon.obj
 0003:000026e0       __XcptActTab               004336e0     libc:winxfltr.obj
 0003:00002758       __First_FPE_Indx           00433758     libc:winxfltr.obj
 0003:0000275c       __Num_FPE                  0043375c     libc:winxfltr.obj
 0003:00002760       __XcptActTabCount          00433760     libc:winxfltr.obj
 0003:00002764       __fpecode                  00433764     libc:winxfltr.obj
 0003:00002800       __pctype                   00433800     libc:ctype.obj
 0003:00002804       __pwctype                  00433804     libc:ctype.obj
 0003:00002808       __ctype                    00433808     libc:ctype.obj
 0003:00002a10       ___mb_cur_max              00433a10     libc:nlsdata1.obj
 0003:00002a14       ___decimal_point           00433a14     libc:nlsdata1.obj
 0003:00002a18       ___decimal_point_length    00433a18     libc:nlsdata1.obj
 0003:00002cb8       __pow10pos                 00433cb8     libc:constpow.obj
 0003:00002e18       __pow10neg                 00433e18     libc:constpow.obj
 0003:00002f78       ?_BOOL_FLAGS@@3PAUGT_FlagBool@@A 00433f78     lib_gt:gt_commandlineflags.obj
 0003:00003148       ?_ULONG_FLAGS@@3PAUGT_FlagNumber@@A 00434148     lib_gt:gt_commandlineflags.obj
 0003:000031b8       ?m_nByte@GT_FileBuffer@@0EA 004341b8     lib_gt:gt_filebuffer.obj
 0003:000031bc       ??_R0?AVGT_Exception@@@8   004341bc     lib_gt:gt_filebuffer.obj
 0003:000031d8       ?GT_WordPerfect_Types@@3PAPBDA 004341d8     lib_data:gt_generic.obj
 0003:00003238       ?GT_WPG_Types@@3PAPBDA     00434238     lib_data:gt_generic.obj
 0003:000032d0       ?GT_EXE_PE_RESTYPE@@3PAPBDA 004342d0     lib_data:gt_exe_types.obj
 0003:00003330       ?GT_EXE_PE_DATADIRECTORY_NAMES@@3PAPBDA 00434330     lib_data:gt_exe_types.obj
 0003:00003370       ?GTArchive_Info@@3PAUGTArchive_InfoEntry@@A 00434370     lib_archive:gt_archiver.obj
 0003:00003668       ??_R0?AVtype_info@@@8      00434668     libc:typinfo.obj
 0003:00003680       ?__pMyUnhandledExceptionFilter@@3PAXA 00434680     libc:throw.obj
 0003:00003690       ?g_MSJExceptionHandler@@3VMSJExceptionHandler@@A 00434690     gt_crashtracker.obj
 0003:00003698       ?m_szLogFileName@MSJExceptionHandler@@0PADA 00434698     gt_crashtracker.obj
 0003:0000379c       ?m_hReportFile@MSJExceptionHandler@@0PAXA 0043479c     gt_crashtracker.obj
 0003:000037a0       ?m_previousFilter@MSJExceptionHandler@@0P6GJPAU_EXCEPTION_POINTERS@@@ZA 004347a0     gt_crashtracker.obj
 0003:000037a4       ?_SymInitialize@MSJExceptionHandler@@0P6GHPAXPADH@ZA 004347a4     gt_crashtracker.obj
 0003:000037a8       ?_SymCleanup@MSJExceptionHandler@@0P6GHPAX@ZA 004347a8     gt_crashtracker.obj
 0003:000037ac       ?_StackWalk@MSJExceptionHandler@@0P6GHKPAX0PAU_tagSTACKFRAME@@0P6GH0PBX0KPAK@ZP6GPAX0K@ZP6GK0K@ZP6GK00PAU_tagADDRESS@@@Z@ZA 004347ac     gt_crashtracker.obj
 0003:000037b0       ?_SymFunctionTableAccess@MSJExceptionHandler@@0P6GPAXPAXK@ZA 004347b0     gt_crashtracker.obj
 0003:000037b4       ?_SymGetModuleBase@MSJExceptionHandler@@0P6GKPAXK@ZA 004347b4     gt_crashtracker.obj
 0003:000037b8       ?_SymGetSymFromAddr@MSJExceptionHandler@@0P6GHPAXKPAKPAU_IMAGEHLP_SYMBOL@@@ZA 004347b8     gt_crashtracker.obj
 0003:00003dc0       ?aAlloverTimer@@3VPTimer@@A 00434dc0     gt_cleanup.obj
 0003:00003dcc       ?aFileTimer@@3VPTimer@@A   00434dcc     gt_cleanup.obj
 0003:00003dd8       ?nTotalFilesFound@@3JA     00434dd8     gt_cleanup.obj
 0003:00003ddc       ?nTotalFilesIdentified@@3JA 00434ddc     gt_cleanup.obj
 0003:00003de0       ?aDriveInfo@@3VGT_DriveInfo@@A 00434de0     gt_driveinfo.obj
 0003:00003df0       _bFound                    00434df0     gt_gtui_starter.obj
 0003:00003df4       __cflush                   00434df4     libc:_file.obj
 0003:00003df8       ___fastflag                00434df8     libc:fpinit.obj
 0003:00003dfc       __adjust_fdiv              00434dfc     libc:fpinit.obj
 0003:00003e00       __aenvptr                  00434e00     libc:crt0.obj
 0003:00003e04       __wenvptr                  00434e04     libc:crt0.obj
 0003:00003e08       ___error_mode              00434e08     libc:crt0.obj
 0003:00003e0c       _errno                     00434e0c     libc:crt0dat.obj
 0003:00003e10       __doserrno                 00434e10     libc:crt0dat.obj
 0003:00003e14       __umaskval                 00434e14     libc:crt0dat.obj
 0003:00003e18       __osver                    00434e18     libc:crt0dat.obj
 0003:00003e1c       __winver                   00434e1c     libc:crt0dat.obj
 0003:00003e20       __winmajor                 00434e20     libc:crt0dat.obj
 0003:00003e24       __winminor                 00434e24     libc:crt0dat.obj
 0003:00003e28       ___argc                    00434e28     libc:crt0dat.obj
 0003:00003e2c       ___argv                    00434e2c     libc:crt0dat.obj
 0003:00003e30       ___wargv                   00434e30     libc:crt0dat.obj
 0003:00003e34       __environ                  00434e34     libc:crt0dat.obj
 0003:00003e38       ___initenv                 00434e38     libc:crt0dat.obj
 0003:00003e3c       __wenviron                 00434e3c     libc:crt0dat.obj
 0003:00003e40       ___winitenv                00434e40     libc:crt0dat.obj
 0003:00003e44       __pgmptr                   00434e44     libc:crt0dat.obj
 0003:00003e48       __wpgmptr                  00434e48     libc:crt0dat.obj
 0003:00003e4c       __exitflag                 00434e4c     libc:crt0dat.obj
 0003:00003e50       __C_Termination_Done       00434e50     libc:crt0dat.obj
 0003:00003e54       __C_Exit_Done              00434e54     libc:crt0dat.obj
 0003:00003e5c       __stdbuf                   00434e5c     libc:_sftbuf.obj
 0003:00003e64       ?_pCurrentException@@3PAUEHExceptionRecord@@A 00434e64     libc:frame.obj
 0003:00003e68       ?_pCurrentExContext@@3PAU_CONTEXT@@A 00434e68     libc:frame.obj
 0003:00003e6c       ?__pSETranslator@@3P6AXIPAU_EXCEPTION_POINTERS@@@ZA 00434e6c     libc:hooks.obj
 0003:00003e70       ?__pTerminate@@3P6AXXZA    00434e70     libc:hooks.obj
 0003:00003e84       __newmode                  00434e84     libc:_newmode.obj
 0003:00003e88       ?_pnhHeap@@3P6AHI@ZA       00434e88     libc:handler.obj
 0003:00003e8c       __pxcptinfoptrs            00434e8c     libc:winxfltr.obj
 0003:00003f98       __adbgmsg                  00434f98     libc:crt0msg.obj
 0003:00003fe0       ___lc_handle               00434fe0     libc:nlsdata2.obj
 0003:00003ff8       ___lc_codepage             00434ff8     libc:nlsdata2.obj
 0003:00003ffc       ___lc_collate_cp           00434ffc     libc:nlsdata2.obj
 0003:00006514       ?gbNotReadLocalConfigFile@@3HA 00437514     lib_gt:gt_commandlineflags.obj
 0003:00006518       ?gbNotScanFileExtension@@3HA 00437518     lib_gt:gt_commandlineflags.obj
 0003:0000651c       ?gbPE_Imports@@3HA         0043751c     lib_gt:gt_commandlineflags.obj
 0003:00006520       ?gbAllDrives@@3HA          00437520     lib_gt:gt_commandlineflags.obj
 0003:00006524       ?gbHelp@@3HA               00437524     lib_gt:gt_commandlineflags.obj
 0003:00006528       ?gbCacheStats@@3HA         00437528     lib_gt:gt_commandlineflags.obj
 0003:0000652c       ?gbNoFooter@@3HA           0043752c     lib_gt:gt_commandlineflags.obj
 0003:00006530       ?gbNoArchives@@3HA         00437530     lib_gt:gt_commandlineflags.obj
 0003:00006534       ?gnCodeToleranceEXE@@3KA   00437534     lib_gt:gt_commandlineflags.obj
 0003:00006538       ?gnCodeTolerancePE@@3KA    00437538     lib_gt:gt_commandlineflags.obj
 0003:0000653c       ?gbPE_SectionTable@@3HA    0043753c     lib_gt:gt_commandlineflags.obj
 0003:00006540       ?gnCodeToleranceNE@@3KA    00437540     lib_gt:gt_commandlineflags.obj
 0003:00006544       ?gbNotListUnknown@@3HA     00437544     lib_gt:gt_commandlineflags.obj
 0003:00006548       ?gbPE_All@@3HA             00437548     lib_gt:gt_commandlineflags.obj
 0003:0000654c       ?gbListMode@@3HA           0043754c     lib_gt:gt_commandlineflags.obj
 0003:00006550       ?gnNumberOfRIFFEntries@@3KA 00437550     lib_gt:gt_commandlineflags.obj
 0003:00006554       ?gbPE_Exports@@3HA         00437554     lib_gt:gt_commandlineflags.obj
 0003:00006558       ?gbNotListIdentified@@3HA  00437558     lib_gt:gt_commandlineflags.obj
 0003:0000655c       ?gbPE_RessourceStrings@@3HA 0043755c     lib_gt:gt_commandlineflags.obj
 0003:00006560       ?gnCodeToleranceSYS@@3KA   00437560     lib_gt:gt_commandlineflags.obj
 0003:00006564       ?gbGTUI2@@3HA              00437564     lib_gt:gt_commandlineflags.obj
 0003:00006568       ?gbNotReadGlobalConfigFile@@3HA 00437568     lib_gt:gt_commandlineflags.obj
 0003:0000656c       ?gbPE_ImportFunctions@@3HA 0043756c     lib_gt:gt_commandlineflags.obj
 0003:00006570       ?gbNoOverlays@@3HA         00437570     lib_gt:gt_commandlineflags.obj
 0003:00006574       ?gbNoLogo@@3HA             00437574     lib_gt:gt_commandlineflags.obj
 0003:00006578       ?gbWaitAfterLastFile@@3HA  00437578     lib_gt:gt_commandlineflags.obj
 0003:0000657c       ?gbListOpts@@3HA           0043757c     lib_gt:gt_commandlineflags.obj
 0003:00006580       ?gbXWPG@@3HA               00437580     lib_gt:gt_commandlineflags.obj
 0003:00006584       ?gbPE_DataDirectory@@3HA   00437584     lib_gt:gt_commandlineflags.obj
 0003:00006588       ?gbPE_Version@@3HA         00437588     lib_gt:gt_commandlineflags.obj
 0003:0000658c       ?gbPE_Ressources@@3HA      0043758c     lib_gt:gt_commandlineflags.obj
 0003:00006590       ?gbScanSubfolder@@3HA      00437590     lib_gt:gt_commandlineflags.obj
 0003:00006594       ?gnHWND@@3KA               00437594     lib_gt:gt_commandlineflags.obj
 0003:00006598       ?gbNotScanFileName@@3HA    00437598     lib_gt:gt_commandlineflags.obj
 0003:0000659c       ?gnMaxBufferSize@@3KA      0043759c     lib_gt:gt_commandlineflags.obj
 0003:000065a0       ?gbNoColor@@3HA            004375a0     lib_gt:gt_commandlineflags.obj
 0003:000065ac       ?nFileBuffer_CacheHits@@3JA 004375ac     lib_gt:gt_filebuffer.obj
 0003:000065b0       ?nFileBuffer_PartialCacheHits@@3JA 004375b0     lib_gt:gt_filebuffer.obj
 0003:000065b4       ?nFileBuffer_CacheMisses@@3JA 004375b4     lib_gt:gt_filebuffer.obj
 0003:000065b8       ?aCSBI@@3U_CONSOLE_SCREEN_BUFFER_INFO@@A 004375b8     lib_gt:gt_winconsole.obj
 0003:00007a48       ?sTemp@@3PADA              00438a48     lib_archive:gt_archiver.obj
 0003:00007c90       ?nTotalArchives@GT_ArchiveAnalyzer@@2JA 00438c90     lib_archive:gt_archiver.obj
 0003:00007c94       ?nDamagedArchives@GT_ArchiveAnalyzer@@2JA 00438c94     lib_archive:gt_archiver.obj
 0003:00007ca0       __commode                  00438ca0     libc:ncommode.obj
 0003:00007ca4       __fmode                    00438ca4     libc:txtmode.obj
 0003:00007cb0       ___mbcodepage              00438cb0     <common>
 0003:00007cc0       ___mbulinfo                00438cc0     <common>
 0003:00007ccc       ___ismbcodepage            00438ccc     <common>
 0003:00007ce0       __mbcasemap                00438ce0     <common>
 0003:00007de0       __mbctype                  00438de0     <common>
 0003:00007ee4       ___mblcid                  00438ee4     <common>
 0003:00007f00       ___pioinfo                 00438f00     <common>
 0003:00008000       __nhandle                  00439000     <common>
 0003:00008004       ___sbh_sizeHeaderList      00439004     <common>
 0003:00008008       ___sbh_indGroupDefer       00439008     <common>
 0003:0000800c       ___sbh_pHeaderScan         0043900c     <common>
 0003:00008010       ___sbh_initialized         00439010     <common>
 0003:00008014       ___sbh_pHeaderDefer        00439014     <common>
 0003:00008018       ___sbh_cntHeaderList       00439018     <common>
 0003:0000801c       ___sbh_pHeaderList         0043901c     <common>
 0003:00008020       ___sbh_threshold           00439020     <common>
 0003:00008024       __crtheap                  00439024     <common>
 0003:00008028       ___active_heap             00439028     <common>
 0003:0000802c       ___env_initialized         0043902c     <common>
 0003:00008030       ___mbctype_initialized     00439030     <common>
 0003:00008034       ___onexitend               00439034     <common>
 0003:00008038       ___onexitbegin             00439038     <common>
 0003:0000803c       __acmdln                   0043903c     <common>
 0003:00008040       ___piob                    00439040     <common>
 0003:00008060       __bufin                    00439060     <common>
 0003:00009060       __nstream                  0043a060     <common>
 0004:00000000       __IMPORT_DESCRIPTOR_KERNEL32 0043b000     kernel32:KERNEL32.dll
 0004:00000014       __IMPORT_DESCRIPTOR_USER32 0043b014     user32:USER32.dll
 0004:00000028       __IMPORT_DESCRIPTOR_gtdata 0043b028     gtdata:gtdata.dll
 0004:0000003c       __IMPORT_DESCRIPTOR_ADVAPI32 0043b03c     advapi32:ADVAPI32.dll
 0004:00000050       __NULL_IMPORT_DESCRIPTOR   0043b050     kernel32:KERNEL32.dll
 0004:00000228       __imp__RegCloseKey@4       0043b228     advapi32:ADVAPI32.dll
 0004:0000022c       __imp__RegQueryValueExA@24 0043b22c     advapi32:ADVAPI32.dll
 0004:00000230       __imp__RegOpenKeyExA@20    0043b230     advapi32:ADVAPI32.dll
 0004:00000234       \177ADVAPI32_NULL_THUNK_DATA 0043b234     advapi32:ADVAPI32.dll
 0004:00000238       __imp__CloseHandle@4       0043b238     kernel32:KERNEL32.dll
 0004:0000023c       __imp__GetCurrentProcess@0 0043b23c     kernel32:KERNEL32.dll
 0004:00000240       __imp__OutputDebugStringA@4 0043b240     kernel32:KERNEL32.dll
 0004:00000244       __imp__FormatMessageA@28   0043b244     kernel32:KERNEL32.dll
 0004:00000248       __imp__GetModuleHandleA@4  0043b248     kernel32:KERNEL32.dll
 0004:0000024c       __imp__VirtualQuery@12     0043b24c     kernel32:KERNEL32.dll
 0004:00000250       __imp__IsBadWritePtr@8     0043b250     kernel32:KERNEL32.dll
 0004:00000254       __imp__SetFilePointer@16   0043b254     kernel32:KERNEL32.dll
 0004:00000258       __imp__CreateFileA@28      0043b258     kernel32:KERNEL32.dll
 0004:0000025c       __imp__GetProcAddress@8    0043b25c     kernel32:KERNEL32.dll
 0004:00000260       __imp__LoadLibraryA@4      0043b260     kernel32:KERNEL32.dll
 0004:00000264       __imp__SetConsoleCtrlHandler@8 0043b264     kernel32:KERNEL32.dll
 0004:00000268       __imp__GetDriveTypeA@4     0043b268     kernel32:KERNEL32.dll
 0004:0000026c       __imp__GetLogicalDriveStringsA@8 0043b26c     kernel32:KERNEL32.dll
 0004:00000270       __imp__WinExec@8           0043b270     kernel32:KERNEL32.dll
 0004:00000274       __imp__SetUnhandledExceptionFilter@4 0043b274     kernel32:KERNEL32.dll
 0004:00000278       __imp__WriteFile@20        0043b278     kernel32:KERNEL32.dll
 0004:0000027c       __imp__GetCurrentThread@0  0043b27c     kernel32:KERNEL32.dll
 0004:00000280       __imp__GetLastError@0      0043b280     kernel32:KERNEL32.dll
 0004:00000284       __imp__LCMapStringW@24     0043b284     kernel32:KERNEL32.dll
 0004:00000288       __imp__HeapFree@12         0043b288     kernel32:KERNEL32.dll
 0004:0000028c       __imp__RtlUnwind@16        0043b28c     kernel32:KERNEL32.dll
 0004:00000290       __imp__HeapAlloc@12        0043b290     kernel32:KERNEL32.dll
 0004:00000294       __imp__HeapReAlloc@16      0043b294     kernel32:KERNEL32.dll
 0004:00000298       __imp__ReadConsoleInputA@16 0043b298     kernel32:KERNEL32.dll
 0004:0000029c       __imp__SetConsoleMode@8    0043b29c     kernel32:KERNEL32.dll
 0004:000002a0       __imp__GetConsoleMode@8    0043b2a0     kernel32:KERNEL32.dll
 0004:000002a4       __imp__PeekConsoleInputA@16 0043b2a4     kernel32:KERNEL32.dll
 0004:000002a8       __imp__GetNumberOfConsoleInputEvents@8 0043b2a8     kernel32:KERNEL32.dll
 0004:000002ac       __imp__GetCommandLineA@0   0043b2ac     kernel32:KERNEL32.dll
 0004:000002b0       __imp__GetVersion@0        0043b2b0     kernel32:KERNEL32.dll
 0004:000002b4       __imp__ExitProcess@4       0043b2b4     kernel32:KERNEL32.dll
 0004:000002b8       __imp__TerminateProcess@8  0043b2b8     kernel32:KERNEL32.dll
 0004:000002bc       __imp__HeapSize@12         0043b2bc     kernel32:KERNEL32.dll
 0004:000002c0       __imp__GetEnvironmentVariableA@12 0043b2c0     kernel32:KERNEL32.dll
 0004:000002c4       __imp__GetVersionExA@4     0043b2c4     kernel32:KERNEL32.dll
 0004:000002c8       __imp__HeapDestroy@4       0043b2c8     kernel32:KERNEL32.dll
 0004:000002cc       __imp__HeapCreate@12       0043b2cc     kernel32:KERNEL32.dll
 0004:000002d0       __imp__VirtualFree@12      0043b2d0     kernel32:KERNEL32.dll
 0004:000002d4       __imp__VirtualAlloc@16     0043b2d4     kernel32:KERNEL32.dll
 0004:000002d8       __imp__SetHandleCount@4    0043b2d8     kernel32:KERNEL32.dll
 0004:000002dc       __imp__GetStdHandle@4      0043b2dc     kernel32:KERNEL32.dll
 0004:000002e0       __imp__GetFileType@4       0043b2e0     kernel32:KERNEL32.dll
 0004:000002e4       __imp__GetStartupInfoA@4   0043b2e4     kernel32:KERNEL32.dll
 0004:000002e8       __imp__WriteConsoleA@20    0043b2e8     kernel32:KERNEL32.dll
 0004:000002ec       __imp__UnhandledExceptionFilter@4 0043b2ec     kernel32:KERNEL32.dll
 0004:000002f0       __imp__FreeEnvironmentStringsA@4 0043b2f0     kernel32:KERNEL32.dll
 0004:000002f4       __imp__FreeEnvironmentStringsW@4 0043b2f4     kernel32:KERNEL32.dll
 0004:000002f8       __imp__WideCharToMultiByte@32 0043b2f8     kernel32:KERNEL32.dll
 0004:000002fc       __imp__GetEnvironmentStrings@0 0043b2fc     kernel32:KERNEL32.dll
 0004:00000300       __imp__GetEnvironmentStringsW@0 0043b300     kernel32:KERNEL32.dll
 0004:00000304       __imp__GetModuleFileNameA@12 0043b304     kernel32:KERNEL32.dll
 0004:00000308       __imp__FlushFileBuffers@4  0043b308     kernel32:KERNEL32.dll
 0004:0000030c       __imp__IsBadReadPtr@8      0043b30c     kernel32:KERNEL32.dll
 0004:00000310       __imp__IsBadCodePtr@4      0043b310     kernel32:KERNEL32.dll
 0004:00000314       __imp__GetCPInfo@8         0043b314     kernel32:KERNEL32.dll
 0004:00000318       __imp__GetACP@0            0043b318     kernel32:KERNEL32.dll
 0004:0000031c       __imp__GetOEMCP@0          0043b31c     kernel32:KERNEL32.dll
 0004:00000320       __imp__SetStdHandle@8      0043b320     kernel32:KERNEL32.dll
 0004:00000324       __imp__MultiByteToWideChar@24 0043b324     kernel32:KERNEL32.dll
 0004:00000328       __imp__GetStringTypeA@20   0043b328     kernel32:KERNEL32.dll
 0004:0000032c       __imp__GetStringTypeW@16   0043b32c     kernel32:KERNEL32.dll
 0004:00000330       __imp__LCMapStringA@24     0043b330     kernel32:KERNEL32.dll
 0004:00000334       __imp__GetFileAttributesA@4 0043b334     kernel32:KERNEL32.dll
 0004:00000338       __imp__SetConsoleTextAttribute@8 0043b338     kernel32:KERNEL32.dll
 0004:0000033c       __imp__GetConsoleScreenBufferInfo@8 0043b33c     kernel32:KERNEL32.dll
 0004:00000340       __imp__LocalFree@4         0043b340     kernel32:KERNEL32.dll
 0004:00000344       __imp__FindClose@4         0043b344     kernel32:KERNEL32.dll
 0004:00000348       __imp__FindFirstFileA@8    0043b348     kernel32:KERNEL32.dll
 0004:0000034c       __imp__FindNextFileA@8     0043b34c     kernel32:KERNEL32.dll
 0004:00000350       __imp__FileTimeToDosDateTime@12 0043b350     kernel32:KERNEL32.dll
 0004:00000354       __imp__GetFileSize@8       0043b354     kernel32:KERNEL32.dll
 0004:00000358       __imp__ReadFile@20         0043b358     kernel32:KERNEL32.dll
 0004:0000035c       __imp__GetConsoleTitleA@8  0043b35c     kernel32:KERNEL32.dll
 0004:00000360       __imp__SetConsoleTitleA@4  0043b360     kernel32:KERNEL32.dll
 0004:00000364       __imp__SetEndOfFile@4      0043b364     kernel32:KERNEL32.dll
 0004:00000368       __imp__RaiseException@16   0043b368     kernel32:KERNEL32.dll
 0004:0000036c       __imp__GetSystemTimeAsFileTime@4 0043b36c     kernel32:KERNEL32.dll
 0004:00000370       \177KERNEL32_NULL_THUNK_DATA 0043b370     kernel32:KERNEL32.dll
 0004:00000374       __imp__EnumWindows@8       0043b374     user32:USER32.dll
 0004:00000378       __imp__SendMessageA@16     0043b378     user32:USER32.dll
 0004:0000037c       __imp__wvsprintfA@12       0043b37c     user32:USER32.dll
 0004:00000380       __imp__GetWindowTextA@12   0043b380     user32:USER32.dll
 0004:00000384       \177USER32_NULL_THUNK_DATA 0043b384     user32:USER32.dll
 0004:00000388       __imp__GT_EXE_1LJ_Count    0043b388     gtdata:gtdata.dll
 0004:0000038c       __imp__GT_EXE_0J_Count     0043b38c     gtdata:gtdata.dll
 0004:00000390       __imp__GT_EXE_1LJ_Index    0043b390     gtdata:gtdata.dll
 0004:00000394       __imp__GT_EXT_EXE_Count    0043b394     gtdata:gtdata.dll
 0004:00000398       __imp__GT_SYS_Index        0043b398     gtdata:gtdata.dll
 0004:0000039c       __imp__GT_SYS_Count        0043b39c     gtdata:gtdata.dll
 0004:000003a0       __imp__GT_FixedName_Index  0043b3a0     gtdata:gtdata.dll
 0004:000003a4       __imp__GT_EXE_1J_Count     0043b3a4     gtdata:gtdata.dll
 0004:000003a8       __imp__GT_EXE_2J_Count     0043b3a8     gtdata:gtdata.dll
 0004:000003ac       __imp__GT_FixedExtension_Count 0043b3ac     gtdata:gtdata.dll
 0004:000003b0       __imp__GT_EXE_1J_Index     0043b3b0     gtdata:gtdata.dll
 0004:000003b4       __imp__GT_PE_0J_Count      0043b3b4     gtdata:gtdata.dll
 0004:000003b8       __imp__GT_EXT_PE_Index     0043b3b8     gtdata:gtdata.dll
 0004:000003bc       __imp__GT_EXT_PE_Count     0043b3bc     gtdata:gtdata.dll
 0004:000003c0       __imp__GT_NE_0J_Index      0043b3c0     gtdata:gtdata.dll
 0004:000003c4       __imp__GT_NE_0J_Count      0043b3c4     gtdata:gtdata.dll
 0004:000003c8       __imp__GT_EXE_2J_Index     0043b3c8     gtdata:gtdata.dll
 0004:000003cc       __imp__GT_FixedName_Count  0043b3cc     gtdata:gtdata.dll
 0004:000003d0       __imp__GT_FixedExtension_Index 0043b3d0     gtdata:gtdata.dll
 0004:000003d4       __imp__GT_PE_0J_Index      0043b3d4     gtdata:gtdata.dll
 0004:000003d8       __imp__GT_EXE_0J_Index     0043b3d8     gtdata:gtdata.dll
 0004:000003dc       __imp__GT_C2E_Count        0043b3dc     gtdata:gtdata.dll
 0004:000003e0       __imp__GT_C2E_Index        0043b3e0     gtdata:gtdata.dll
 0004:000003e4       __imp__GT_EXT_EXE_Index    0043b3e4     gtdata:gtdata.dll
 0004:000003e8       \177gtdata_NULL_THUNK_DATA 0043b3e8     gtdata:gtdata.dll

 entry point at        0001:00003a19

 Static symbols

 0001:00002670       ?CheckFilename@@YGHPAVGT_FileBuffer@@@Z 00403670 f   gt_mainlister.obj
 0001:00002120       _GT_EnumWindowsProc@8      00403120 f   gt_gtui_starter.obj
 0001:00001d00       _$E4                       00402d00 f   gt_driveinfo.obj
 0001:00001d20       _$E2                       00402d20 f   gt_driveinfo.obj
 0001:00001a80       _$E5                       00402a80 f   gt_cleanup.obj
 0001:00001aa0       _$E8                       00402aa0 f   gt_cleanup.obj
 0001:00001150       ?HandlerRoutine@@YGHK@Z    00402150 f   gt_main.obj
 0001:000011a0       ?GlobalScanDirectory@@YGHPBD0@Z 004021a0 f   gt_main.obj
 0001:00001630       ?_UpdateConsoleTitle@@YIXXZ 00402630 f   gt_main.obj
 0001:000016a0       ?GlobalShowSyntax@@YGXPBD@Z 004026a0 f   gt_main.obj
 0001:00000000       _$E13                      00401000 f   gt_crashtracker.obj
 0001:00000070       _$E11                      00401070 f   gt_crashtracker.obj
 0001:000250aa       ?ArrayUnwindFilter@@YAHPAU_EXCEPTION_POINTERS@@@Z 004260aa f   libc:ehvecdtr.obj
 0001:0002499b       _xtoa                      0042599b f   libc:xtoa.obj
 0001:00024a6d       _x64toa@20                 00425a6d f   libc:xtoa.obj
 0001:0000a43a       _strncnt                   0040b43a f   libc:a_map.obj
 0001:00009f23       _ctrlevent_capture@4       0040af23 f   libc:winsig.obj
 0001:0000a088       _siglookup                 0040b088 f   libc:winsig.obj
 0001:000095b3       _getSystemCP               0040a5b3 f   libc:mbctype.obj
 0001:000095fd       _CPtoLCID                  0040a5fd f   libc:mbctype.obj
 0001:00009630       _setSBCS                   0040a630 f   libc:mbctype.obj
 0001:00009659       _setSBUpLow                0040a659 f   libc:mbctype.obj
 0001:00008a57       __abstract_cw              00409a57 f   libc:ieee87.obj
 0001:00008ae9       __hw_cw                    00409ae9 f   libc:ieee87.obj
 0001:00008b72       __abstract_sw              00409b72 f   libc:ieee87.obj
 0001:0000847c       _strtoxl                   0040947c f   libc:strtol.obj
 0001:00007a55       _parse_cmdline             00408a55 f   libc:stdargv.obj
 0001:000078c0       _xcptlookup                004088c0 f   libc:winxfltr.obj
 0001:000073d0       LeadUp1                    004083d0 f   libc:memcpy.obj
 0001:000073fc       LeadUp2                    004083fc f   libc:memcpy.obj
 0001:00007420       LeadUp3                    00408420 f   libc:memcpy.obj
 0001:0000749f       UnwindUp0                  0040849f f   libc:memcpy.obj
 0001:0000748c       UnwindUp1                  0040848c f   libc:memcpy.obj
 0001:00007484       UnwindUp2                  00408484 f   libc:memcpy.obj
 0001:0000747c       UnwindUp3                  0040847c f   libc:memcpy.obj
 0001:00007474       UnwindUp4                  00408474 f   libc:memcpy.obj
 0001:0000746c       UnwindUp5                  0040846c f   libc:memcpy.obj
 0001:00007464       UnwindUp6                  00408464 f   libc:memcpy.obj
 0001:0000745c       UnwindUp7                  0040845c f   libc:memcpy.obj
 0001:000074b8       TrailUp0                   004084b8 f   libc:memcpy.obj
 0001:000074c0       TrailUp1                   004084c0 f   libc:memcpy.obj
 0001:000074cc       TrailUp2                   004084cc f   libc:memcpy.obj
 0001:000074e0       TrailUp3                   004084e0 f   libc:memcpy.obj
 0001:00007558       LeadDown1                  00408558 f   libc:memcpy.obj
 0001:00007578       LeadDown2                  00408578 f   libc:memcpy.obj
 0001:000075a0       LeadDown3                  004085a0 f   libc:memcpy.obj
 0001:000075f4       UnwindDown7                004085f4 f   libc:memcpy.obj
 0001:000075fc       UnwindDown6                004085fc f   libc:memcpy.obj
 0001:00007604       UnwindDown5                00408604 f   libc:memcpy.obj
 0001:0000760c       UnwindDown4                0040860c f   libc:memcpy.obj
 0001:00007614       UnwindDown3                00408614 f   libc:memcpy.obj
 0001:0000761c       UnwindDown2                0040861c f   libc:memcpy.obj
 0001:00007624       UnwindDown1                00408624 f   libc:memcpy.obj
 0001:00007637       UnwindDown0                00408637 f   libc:memcpy.obj
 0001:00007650       TrailDown0                 00408650 f   libc:memcpy.obj
 0001:00007658       TrailDown1                 00408658 f   libc:memcpy.obj
 0001:00007668       TrailDown2                 00408668 f   libc:memcpy.obj
 0001:0000767c       TrailDown3                 0040867c f   libc:memcpy.obj
 0001:0000726c       __cftoe_g                  0040826c f   libc:cvt.obj
 0001:00007293       __cftof_g                  00408293 f   libc:cvt.obj
 0001:00007307       __shift                    00408307 f   libc:cvt.obj
 0001:0000660a       ?FindHandler@@YAXPAUEHExceptionRecord@@PAUEHRegistrationNode@@PAU_CONTEXT@@PAXPBU_s_FuncInfo@@EH1@Z 0040760a f   libc:frame.obj
 0001:000067b1       ?FindHandlerForForeignException@@YAXPAUEHExceptionRecord@@PAUEHRegistrationNode@@PAU_CONTEXT@@PAXPBU_s_FuncInfo@@HH1@Z 004077b1 f   libc:frame.obj
 0001:00006859       ?TypeMatch@@YAHPBU_s_HandlerType@@PBU_s_CatchableType@@PBU_s_ThrowInfo@@@Z 00407859 f   libc:frame.obj
 0001:00006954       ?FrameUnwindFilter@@YAHPAU_EXCEPTION_POINTERS@@@Z 00407954 f   libc:frame.obj
 0001:0000696a       ?CatchIt@@YAXPAUEHExceptionRecord@@PAUEHRegistrationNode@@PAU_CONTEXT@@PAXPBU_s_FuncInfo@@PBU_s_HandlerType@@PBU_s_CatchableType@@PBU_s_TryBlockMapEntry@@H1E@Z 0040796a f   libc:frame.obj
 0001:000069e5       ?CallCatchBlock@@YAPAXPAUEHExceptionRecord@@PAUEHRegistrationNode@@PAU_CONTEXT@@PBU_s_FuncInfo@@PAXHK@Z 004079e5 f   libc:frame.obj
 0001:00006af1       ?ExFilterRethrow@@YAHPAU_EXCEPTION_POINTERS@@@Z 00407af1 f   libc:frame.obj
 0001:00006b1b       ?BuildCatchObject@@YAXPAUEHExceptionRecord@@PAUEHRegistrationNode@@PBU_s_HandlerType@@PBU_s_CatchableType@@@Z 00407b1b f   libc:frame.obj
 0001:00006d46       ?AdjustPointer@@YAPAXPAXABUPMD@@@Z 00407d46 f   libc:frame.obj
 0001:00006502       _flsall                    00407502 f   libc:fflush.obj
 0001:00004518       _write_char                00405518 f   libc:output.obj
 0001:0000454d       _write_multi_char          0040554d f   libc:output.obj
 0001:0000457e       _write_string              0040557e f   libc:output.obj
 0001:000045b6       _get_int_arg               004055b6 f   libc:output.obj
 0001:000045c3       _get_int64_arg             004055c3 f   libc:output.obj
 0001:000045d3       _get_short_arg             004055d3 f   libc:output.obj
 0001:00003bae       _doexit                    00404bae f   libc:crt0dat.obj
 0001:00003c47       __initterm                 00404c47 f   libc:crt0dat.obj
 0001:00003b1d       _fast_error_exit           00404b1d f   libc:crt0.obj
 0001:0000394b       __getextendedkeycode       0040494b f   libc:getch.obj
 0001:00003110       LeadUp1                    00404110 f   libc:memmove.obj
 0001:0000313c       LeadUp2                    0040413c f   libc:memmove.obj
 0001:00003160       LeadUp3                    00404160 f   libc:memmove.obj
 0001:000031df       UnwindUp0                  004041df f   libc:memmove.obj
 0001:000031cc       UnwindUp1                  004041cc f   libc:memmove.obj
 0001:000031c4       UnwindUp2                  004041c4 f   libc:memmove.obj
 0001:000031bc       UnwindUp3                  004041bc f   libc:memmove.obj
 0001:000031b4       UnwindUp4                  004041b4 f   libc:memmove.obj
 0001:000031ac       UnwindUp5                  004041ac f   libc:memmove.obj
 0001:000031a4       UnwindUp6                  004041a4 f   libc:memmove.obj
 0001:0000319c       UnwindUp7                  0040419c f   libc:memmove.obj
 0001:000031f8       TrailUp0                   004041f8 f   libc:memmove.obj
 0001:00003200       TrailUp1                   00404200 f   libc:memmove.obj
 0001:0000320c       TrailUp2                   0040420c f   libc:memmove.obj
 0001:00003220       TrailUp3                   00404220 f   libc:memmove.obj
 0001:00003298       LeadDown1                  00404298 f   libc:memmove.obj
 0001:000032b8       LeadDown2                  004042b8 f   libc:memmove.obj
 0001:000032e0       LeadDown3                  004042e0 f   libc:memmove.obj
 0001:00003334       UnwindDown7                00404334 f   libc:memmove.obj
 0001:0000333c       UnwindDown6                0040433c f   libc:memmove.obj
 0001:00003344       UnwindDown5                00404344 f   libc:memmove.obj
 0001:0000334c       UnwindDown4                0040434c f   libc:memmove.obj
 0001:00003354       UnwindDown3                00404354 f   libc:memmove.obj
 0001:0000335c       UnwindDown2                0040435c f   libc:memmove.obj
 0001:00003364       UnwindDown1                00404364 f   libc:memmove.obj
 0001:00003377       UnwindDown0                00404377 f   libc:memmove.obj
 0001:00003390       TrailDown0                 00404390 f   libc:memmove.obj
 0001:00003398       TrailDown1                 00404398 f   libc:memmove.obj
 0001:000033a8       TrailDown2                 004043a8 f   libc:memmove.obj
 0001:000033bc       TrailDown3                 004043bc f   libc:memmove.obj
 0001:00002fc0       _gu_return                 00403fc0 f   libc:exsup.obj
 0001:00002fc8       __unwind_handler           00403fc8 f   libc:exsup.obj
 0001:00002d7e       ?CatchGuardHandler@@YA?AW4_EXCEPTION_DISPOSITION@@PAUEHExceptionRecord@@PAUCatchGuardRN@@PAX2@Z 00403d7e f   libc:trnsctrl.obj
 0001:00002e57       ?TranslatorGuardHandler@@YA?AW4_EXCEPTION_DISPOSITION@@PAUEHExceptionRecord@@PAUTranslatorGuardRN@@PAX2@Z 00403e57 f   libc:trnsctrl.obj
 0001:0000b1e0       _$E4                       0040c1e0 f   plib:adlp_string.obj
 0001:0000b210       _$E2                       0040c210 f   plib:adlp_string.obj
 0001:0000dd00       _$E5                       0040ed00 f   lib_gt:gt_output.obj
 0001:0000dd20       _$E3                       0040ed20 f   lib_gt:gt_output.obj
 0001:0000dd30       _$E10                      0040ed30 f   lib_gt:gt_output.obj
 0001:0000dd60       _$E8                       0040ed60 f   lib_gt:gt_output.obj
 0001:0000dff0       ?_report2hwnd@@YGXPBDPAPAD@Z 0040eff0 f   lib_gt:gt_output.obj
 0001:0000e0b0       ?_out_string@@YGXAAVADLP_String@@@Z 0040f0b0 f   lib_gt:gt_output.obj
 0001:0000e200       ?_out_append@@YGXPBDHW4GT_Color@@@Z 0040f200 f   lib_gt:gt_output.obj
 0001:0000eb40       _$E13                      0040fb40 f   lib_gt:gt_output.obj
 0001:00012480       _$E5                       00413480 f   lib_data:gt_generic.obj
 0001:000124f0       _$E3                       004134f0 f   lib_data:gt_generic.obj
 0001:00017640       ?GetInfo_BMF@@YIXPAVGT_FileBuffer@@AAVADLP_String@@@Z 00418640 f   lib_data:gt_generic.obj
 0001:00017720       ?GetInfo_GIF@@YIXPAVGT_FileBuffer@@AAVADLP_String@@@Z 00418720 f   lib_data:gt_generic.obj
 0001:00017bb0       ?GetInfo_GRP@@YIXPAVGT_FileBuffer@@AAVADLP_String@@@Z 00418bb0 f   lib_data:gt_generic.obj
 0001:00017c70       ?GetInfo_HeadText@@YIXPAVGT_FileBuffer@@AAVADLP_String@@@Z 00418c70 f   lib_data:gt_generic.obj
 0001:00017dc0       ?GetInfo_IFF@@YIXPAVGT_FileBuffer@@AAVADLP_String@@@Z 00418dc0 f   lib_data:gt_generic.obj
 0001:00017fd0       ?_SubIFF@@YIPBDPBJ@Z       00418fd0 f   lib_data:gt_generic.obj
 0001:000182d0       ?GetInfo_ImpulseTracker@@YIXPAVGT_FileBuffer@@AAVADLP_String@@@Z 004192d0 f   lib_data:gt_generic.obj
 0001:00018390       ?GetInfo_JPG@@YIXPAVGT_FileBuffer@@AAVADLP_String@@@Z 00419390 f   lib_data:gt_generic.obj
 0001:00018730       ?GetInfo_MP3@@YIXPAVGT_FileBuffer@@AAJAAVADLP_String@@@Z 00419730 f   lib_data:gt_generic.obj
 0001:00018d40       ?GetInfo_MP3TAG@@YI?AVADLP_String@@PAVGT_FileBuffer@@@Z 00419d40 f   lib_data:gt_generic.obj
 0001:00018ff0       ?GetInfo_VOC@@YIXPAVGT_FileBuffer@@AAVADLP_String@@@Z 00419ff0 f   lib_data:gt_generic.obj
 0001:00011270       ?_PKLite@@YIXPAU_EXEEntry@@PAEPAVGT_FileBuffer@@@Z 00412270 f   lib_data:gt_exe_analyzer.obj
 0001:000115b0       ?_WWPack300PR@@YIXPAU_EXEEntry@@PAEPAVGT_FileBuffer@@@Z 004125b0 f   lib_data:gt_exe_analyzer.obj
 0001:000115e0       ?_WWPack30xPR@@YIXPAU_EXEEntry@@PAEPAVGT_FileBuffer@@@Z 004125e0 f   lib_data:gt_exe_analyzer.obj
 0001:000117b0       ?_WWPack30xP@@YIXPAU_EXEEntry@@PAEPAVGT_FileBuffer@@@Z 004127b0 f   lib_data:gt_exe_analyzer.obj

FIXUPS: 254fa 30 2f2a a ffffd100 6 4d 6 24 1f 49 1c 73 1c 4b fffffa0f 32bc
FIXUPS: 2840c 8 a ffffcd68 10 17 2a c 39 2f 18 35 53 1f 14 1c 1a 6 29 18
FIXUPS: 253be 3076 a ffffcff1 e 2a 13 f 18 28 fffff86e c 18 7c 18 2f 1e
FIXUPS: 24e66 2b 12 32 350f a ffffcb60 c 1b 2f 18 13 14 13 c 1b 1f 2d c
FIXUPS: 25081 37 13 1a 29 1c fffff780 a 84 14 2c 17 24 2c 43 4c 20 14 1e
FIXUPS: 24aec 14 6b f 2b 1f 37f0 8 8 9 c ffffc824 e 2b 40 35 1e 1b 19 fffff6da
FIXUPS: 243e6 37 18 70 19 60 e 25 c a7 19 16 21 3c 20 9 17 19 36 16 1f
FIXUPS: 24762 15 16 1c 23 28 3ba0 a ffffc4aa 21 fffff882 32 37 1c 1f 25
FIXUPS: 28344 8 8 8 a ffffbeed 2b a c 6 12 6 e c 6 21 3e 4043 a ffffbfe6
FIXUPS: 2436a 9 12 9 36 6 fffff9ae 20 12 12 29 f f 35 32 12 c e 3d 42 18
FIXUPS: 23f40 3a 25 c 18 c 19 15 29 15 14 a c a 9 21 15 fffff83e 22 11
FIXUPS: 23946 32 3b 17 2e 27 3e 2f 4878 a ffffb7f8 18 2d 13 c 2d 15 c 12
FIXUPS: 23bf5 1f 4710 8 a ffffb95c 13 18 7c 2d fffff54b 17 ae 78 7a 7f
FIXUPS: 23516 18 e 10 19 164 22 c 16 c 16 21 17 17 51 1f 4af6 8 a ffffb563
FIXUPS: 23872 20 13 13 e 13 ffffe740 137 3a0 54 98 21 5e 88 186 30 b6 70
FIXUPS: 229ed c 1a7 24 3f 1c 59 7e e1 ab 9f 8a f9 d4 67 2a 2f 41 18 10
FIXUPS: 21c6a 661a a ffff9a0e 15 10 15 14 99 24 1c 11 b 22 49 645a a ffff9c0a
FIXUPS: 21ed0 2d c 13 c 28 19 12 30 1e 62fb 8 a ffff9d2b fffff700 2e 14
FIXUPS: 2175b 2e 6a9b a ffff95bb 18 1b 32 33 69c3 a ffff96a0 16 12 65 68e9
FIXUPS: 2826e ffff9739 e 24 1e 31 23 c5 9a 17 1a 18 56 fffff731 c c c c
FIXUPS: 213b6 c c c d 1c 13 e 11 10 f c 16 1a 4b 13 40 c 16 c f 3b 6c5e
FIXUPS: 2820e ffff9499 12 36 6add a ffff8df9 1c 1b 14 18 2f e a e 11 24
FIXUPS: 2111f 70c5 a ffff8f64 18 47 14 c 14 f 3e 18 39 6e e 24 2d f f fffff89d
FIXUPS: 20c1d 26 23 15 c 2f 14 19 17 69 1c 1f 73f6 8 8 8 a ffff8c52 12
FIXUPS: 20e2e 12 3e 11 19 16 3f 14 e d 3e 725a ffff85df 17 42 3c 36 29
FIXUPS: 208b4 34 12 25 7835 8 a ffff882b 1c 1c 1a 2b e 4a 17 1d 3e 1b 26
FIXUPS: 28174 a ffff89d0 e 17 14 a fffff6ab 44 68 7e0d b b b b b b c ffff82c8
FIXUPS: 2046b 2e 1d 18 9 12 a 9 f 75 63 58 2d 3f e 21 18 19 1f 54 fffff4c2
FIXUPS: 1fc78 3c 3c 3c 3c 3c 3c 3f 21 13 3c 3c 3c 3c 3c 1d 2a 3c 27 19
FIXUPS: 2007e 27 19 3c 27 19 3c 27 19 3c 23 ffffeeb0 1f 36 c8 22 62 cc
FIXUPS: 1f351 6f 4d 54 5e 1f 3f 5b 70 152 36 198 16 f 65 55 39 3c 3c 3c
FIXUPS: 1fb10 3c 3c 3c 3c ffff3803 17 36 147b7 a fffeb866 b976 c 6b 20
FIXUPS: 1eea3 15 25 22 d 66 9174 ffff6eea e e e e e b e e e b d e e b ffff4033
FIXUPS: 130c7 4f a 2a 11 21 c 19 3a 17 23 3a 17 19 14 f 16 13 f 11 9 a
FIXUPS: 13305 33 1c 31 8 20 b 27 12 fffff803 4d 42 d2 14e8f a fffeb1c3
FIXUPS: 12dd5 19 d e 21 e 1f f 12 a 2c 30 1b 21 26 34 1b 21 20 30 1b 21
FIXUPS: 13059 1e 34 fffff69c 11 1d 1542f a fffeac66 10 94 e 15 152e9 a
FIXUPS: 12953 e 21 4a c d c 57 a d d d 14 46 2d 55 2f 18 30 12 fffff51d
FIXUPS: 12116 38 28 28 55 3e f 3f c 2b 4d 1b 23 62 1b 23 62 1b 23 76 37
FIXUPS: 12569 9 5a 84 10 45 2c 29 18 20 7c98 22 14 13 9 2f da0b ffff268c
FIXUPS: 1a4f5 17 d d 23 15 21 16 16 22 2e 2f 15 1d a 18 a 47 12 17 d76c
FIXUPS: 27e6e ffff28cb ffff7988 804e 20 c 47 9 e 11 8 10 c c 26 c b 10
FIXUPS: 1a24a 14 13 9 25 14 13 10 29 14 2b 14 17 c 28 14 11 fffffb19 c
FIXUPS: 19ef4 e a 12 c d e a 12 c d 24 16 e b de67 8 a ffff21da 16 b 9
FIXUPS: 1a055 c 10 11 33 1c e 21 fffff9f1 3a 14 32 3a 14 54 13 41 14 54
FIXUPS: 19ce7 26 99 13 d 28 11 19 d 11 a 12 c d 11 a 12 c d e a fffff690
FIXUPS: 1959c e 1c 9 b 1a 20 14 11 c 3a e 1c b d f e734 8 8 8 a ffff18e5
FIXUPS: 19a1d 13 19 11 14 1a 8 3a 14 fffff42d 13 42 13 14 12 10 ee2d ffff14af
FIXUPS: 1929c 7d 16 b a 17 17 ea72 a ffff15ea 46 24 17 c 16 9 16 9 38 c
FIXUPS: 194fe e 3f fffff609 9 f 17 1b f1f6 a ffff0e42 2f b a 17 17 f162
FIXUPS: 27dbe ffff0edb 3f 52 47 e 1f 14 3e 16 8 44 f 13 14 19 44 f fffff94c
FIXUPS: 1884f 29 14 f f 24 10 10 60 c b 9 b c b c 10 15 12 b 34 46 14 2c
FIXUPS: 18aac 19 29 c 19 18 19 fffff8be f932 b b 8 8 8 8 8 8 8 a ffff084d
FIXUPS: 185e7 17 55 c b 9 b 3c e 1d 16 9 b 60 e 10 f 5f 12 fffff926 1d
FIXUPS: 1816a 1a 1a 1e 19 19 26 1f 37 1a 12 1b 18 12 a 12 15 15 1e 15 11
FIXUPS: 18389 c f c 14 f e e b fffffb07 a 9 9 1a 1a 1a 1a 20 d c a c d
FIXUPS: 17fed a c d 14 a 14 21 e 10 15 a 25 17 16 b 10 1c fffffb5e 18 1a
FIXUPS: 17cd3 2c f 11 1d d 9 9 a 9 9 d 1b d 15 d 28 1a 1a 1a 1a 17 17 1a
FIXUPS: 17ec0 f 11 f 9 fffffa9d 15 c a 13 15 c d 10 e e 15 c a c d 13 a
FIXUPS: 17a9d 22 a a 36 1a 23 d 25 5b d 3b d 52 fffffa5d 14 14 13 14 14
FIXUPS: 1774d 14 14 13 14 14 13 14 14 13 14 11 10 11 11 10 22 d 14 a 2d
FIXUPS: 178ed 1a 1e 32 1b fffffa4a 1a 1a 1a 1d 1a d 1a 1a 27 d c d 1a 9
FIXUPS: 17511 1a 1a 1a 32 1a 1a 1a 1a 1a 1a 17 1e f 11 d 35 fffffa24 17
FIXUPS: 17116 11 15 11 15 11 15 1a 15 11 15 11 15 11 15 11 15 11 15 11
FIXUPS: 1729b 11 30 11 10 44 a 26 17 1a fffffa60 1d 15 27 50 15 23 a 23
FIXUPS: 16f1d 1f d 15 18 15 11 15 11 15 11 15 11 15 11 15 11 15 11 15 11
FIXUPS: 170bb 18 fffff9cf 1f 3d 54 d 40 d 1f 1d 64 25 d 14 11 f f a f d
FIXUPS: 16cfd d f d 19 43 d 1b 11 11 b 8 d fffff97b 11 14 11 14 11 14 11
FIXUPS: 167fb 32 14 11 14 11 d 1d 14 a 15 11 14 11 14 17 17 11 17 12 38
FIXUPS: 169e4 15 9c fffffa12 d 37 17 d 1c 11 12 12 1a 17 d 1f 18 d 1f 12
FIXUPS: 16640 19 f 1b d 2b 11 b d c 16 17 11 14 11 fffffa07 1d 17 e 1a
FIXUPS: 161c1 37 f 11 13 a 10 b0 10 40 d 9 a c d 12 d 23 d 22 1a 1e f 11
FIXUPS: 1645f 2f d 11859 8 8 8 8 a fffee220 c c c c c c c b c c b e c f
FIXUPS: 16004 12 13 13 1e 46 12 49 12 12 2e fffffa1d 6 35 1c 1a 120f9 a
FIXUPS: 15c4f 13 4a e c c c 34 e 4b d 1c 18 d 17 19 a c 21 15 2a 11 13
FIXUPS: 15e97 b fffff765 50 10 48 20 40 20 d 85 23 b 9 13 13 13 13 15 b
FIXUPS: 15884 20 23 14 68 b b c c 9 107 a9 1e 19 fffff651 35 12 35 12 35
FIXUPS: 15287 35 12 35 12 36 31 31 35 35 12 36 31 12 e 43 12 e 2e 20 13
FIXUPS: 1558a 16 12714 a fffed918 fffff70d 12 e 49 12 e 26 f 25 e 35 12
FIXUPS: 14e4a 12 2f 12 36 31 31 35 35 35 35 35 35 35 35 35 12 35 12 35
FIXUPS: 147c3 2e 14 11 12 13 74 16 1e 1c 12 13 bc e 35 12 3d 12 3d 12 3d
FIXUPS: 14b22 3d 12 3d 12 3d 12 3d 12 3d 12 fffff7e3 d c 34 15 3d 9 d 15
FIXUPS: 1458c 32 56 26 15 11 a 10 9 a 13 9 d 2e 1a 13576 8 a fffecad9 9
FIXUPS: 14771 13526 a fffec412 f f 4b 13 3c 12 17 25 1b 76 12 c a d c 3a
FIXUPS: 1434a 5b d c 25 d 1e d 9 d d 14 18 d d fffff7e1 13 9 9 28 10 25
FIXUPS: 13cf0 28 10 14 30 1d 13 3b 20 14 15 20 14 11 29 14 16 20 14 22
FIXUPS: 13fb4 c bf 14 16 fffff7fc c a a 3a 11 13 14301 16 b fffebd40 14
FIXUPS: 139ad 83 13 15 22 30 21 17 17 a 1b d 39 12 17 140c7 8 a fffebf6b
FIXUPS: 13c1a fffff8a8 19 32 43 80 21 32 b6 f d c d c d d d 15 1f f 23
FIXUPS: 137ba 16 10 22 d 2d f f f f f f 732e 43 10 c 17 37 d233 a ffff2e45
FIXUPS: 1ad0a 32 17 22 16 9 f d 19 34 14 32 16 f 18 d044 a ffff28a6 1a
FIXUPS: 1a7e8 14 12 ffff8c9d 7bff f 13 2d 3b 2a 48 44 21 7b 86 147 62 20
FIXUPS: 1b4ef 57 fffffabb fffff922 10 f 92 43 10 c 17 37 d403 a ffff2c85
FIXUPS: 1ab22 e 8 ab0 26 36 1d 28f c5fa a ffff3a49 31 1c c b 27 55 e 21
FIXUPS: 1ba68 12 12 f 12 12 f e 1b d b4 7d 1c 16 c29d a ffff5a79 16 14
FIXUPS: 1d9d0 9 74 1d 15 1b 1d 1e 45 15 2b 58 4b 15 13 a e d 21 15 11 12
FIXUPS: 1dcd1 9 17 17 a37c a ffff3543 1fdf 31 2c 13 29 31 2c 13 29 32 1f
FIXUPS: 1d7da a 23 f 1e 13 27 13 12 a791 9 a 9 b b b b c ffff5851 1a 23
FIXUPS: 1d24e 16 d 10 10 10 10 10 10 11 10 10 10 10 10 10 10 1e 1e 29 2b
FIXUPS: 1d416 2c 13 29 31 2c 13 29 31 2c 13 fffff795 1a 1a 3a 25 b 13 19
FIXUPS: 1ce3e 12 2f 12 2e 22 9 b11a a ffff4f10 3f 12 10 13 d 38 f 11 11
FIXUPS: 1d01d 120 66 86 20 fffff6e1 f 10 28 25 1b 13 8 6 3f f 13 b 6 1a
FIXUPS: 27fd4 a ffff4ae9 34 f 11 1d 1c b4a2 ffff4b9d 16 1a 1e 17 3c b 13
FIXUPS: 1c5f9 a f a 3d a f a f a 17 a f a 25 d f a f a f a 3d f 10 25 21
FIXUPS: 1c846 f 56 18 40 fffffa60 2d 13 15 e 10 bbbe a ffff4470 2c 14 17
FIXUPS: 1c482 12 27 26 8 d babe a ffff454c 29 26 d 2f a f a f a f a fffff9e5
FIXUPS: 1bfe3 14 c e c b 17 12 30 3d 11 a 22 19 9 6 1a 20 bde7 9 a a ffff4295
FIXUPS: 1c1fc 2a 13 25 bd17 c ffff4370 57 bd5c 8 9 a 9 c ffff3bcc b 13
FIXUPS: 1bcc9 2f 38 b 13 b 5a 6 1b c153 a ffff3eef 78 12 24 2b 37 26 26
FIXUPS: 1bf91 13 c 13 214c 10 10 10 10 10 11 a 16 27 2b 37 26 26 26 26
FIXUPS: 1e2d4 2c 13 29 34 2d 1f 9 41 9 2a 2a 38 a 2f f fffff97a b 35 15
FIXUPS: 1decb 21 37 8 f 1c 47 c c f f f d 29 f 10 10 10 10 18 e c e e e
FIXUPS: 1e0d2 19 14 a3d 21 10 14 30 17 26 fffff9f7 17 10 11 67 14 10 14
FIXUPS: 1e6e1 17 4d 14 10 14 21 186 fffffc9b fffff78a 18 23 5b 10 11 36
FIXUPS: 1de44 ffff1a64 14 5c 14 e 12 1a 22 37 17 3c 25 43 1803a 9 b c fffe8003
FIXUPS: fb1e b 34 56 19 27 28 2d 21 1c 86 24 1a 50 fffff6ac 2b 185e4 8
FIXUPS: 27a65 c fffe7a5c 1c 31 27 22 39 1b 76 14 70 15 11 34 f 22 22 37
FIXUPS: f7a2 182e2 9 b c fffe7d60 1c 12 1b fffff654 2b 1d 20 27 14 9 14
FIXUPS: ef71 34 36 2f 8a 41 27 14 9 85 22 28 77 17 6b 10 1d 6c 10 e 19
FIXUPS: f3da 17 1a 11ba 32 11 27 11 fffff848 71 29 41 128 c 45 11 3f c
FIXUPS: 1017f 11 14 45 16 1a 178cb a fffe7218 a 16 2b 2d 95 2b 1d b 259a
FIXUPS: 11437 96 3d 3b 11 ec 3a 3b 11 60 a2 1cb b7 9d 40 ffffe752 5d 4a
FIXUPS: 10390 38 19 24 35 18 14 4c 26 8a 1f 16 13 20d c 67 10 80 10 2d
FIXUPS: 1090f 7 52 29 20 17176 b a fffe90a9 11 33 1f 55 1c 3b 1c 55 11
FIXUPS: 111d4 11 1d 11 b7 11 116 c96 a fffffb1e 13 13 2b 2e 15f19 a fffea106
FIXUPS: 11c63 6c 21 15e77 a fffea245 6e 50 30 30 30 30 40 ffffe75e 18 67
FIXUPS: 1075f 19 11 1737e b a fffe4578 1b77b 27 33 fffff974 1d 1b 14 18
FIXUPS: 27269 45 2a 29 22 26 1f 1f 31 25 2c fffffd29 26 1a 1302 a fffe9b92
FIXUPS: 12025 1f f 15b31 b a fffe6a85 5b 14 19 3e 1b 1f 100 68 f e 16 26
FIXUPS: e8f8 71 66 13 e 16 27 1a 71 6a 13 b 13 24 17 ffffd558 66 6b fffffec4
FIXUPS: e070 e 1d 40 3f e 1d 36 3f e 1d 31 3f e 1d aa 1c 1d 48 1b 23 5b
FIXUPS: e458 19 3e 1b 1f 79 16 1d 4a 19 fffff2d2 1c 1a 1a134 a fffe5f67
FIXUPS: d9b7 13 39 19 10 5d 198 40 79 64 e 11 5c 3f e 1d 52 e 9f 46 f 1a
FIXUPS: dfae 35 b 19 fffff34d 3b e 18 2f 3b e 18 2f 3b e 18 2f 3b e 18
FIXUPS: d59b 3b e 18 2c 3b e 18 33 3c 35 6c ad e 17 1d fffff57b 3f e 1d
FIXUPS: cea3 3f e 1d 3d 3f e 1d 33 3f e 1d 44 e 72 e 17 78 e 1c 59 3b e
FIXUPS: d296 33 3b e 18 fffff56c 3f 3b e 18 4b 3b e 18 4a e 62 e 6a e 21
FIXUPS: cb84 3f e 1d 3a 3f e 1d 31 3f e 1d 36 3f e 1d fffff646 9 35 e 1e
FIXUPS: c48d 1b587 a fffe4a9e 26 14 37 40 49 3b e 18 43 3b e 18 3a 3b e
FIXUPS: c756 3f 3b e 18 3f 3b e ffff72ab 13 ffffff8a 1d fffffe17 1f f 3c
FIXUPS: 3977 11 23435 21 20 4a 20 3b 20 3d 20 65 10 fffe5271 27 a9 13 39
FIXUPS: c332 2a 34 49 f 1b ffff82a7 34 44 fffffd6a ffffff54 13 14 25 32
FIXUPS: 3fbc ffffff8c 5 a fffffd58 4d 24 4b 2f 103 17 3c 48 fffffc74 19
FIXUPS: 3bd7 58 e ffffff23 11 b ffffff8a c ff0 9 1c 9 fffffee2 fffffd81
FIXUPS: 47f6 56 d 31 34 46 fffffe38 11 9 fffffd4d 15 27 1e d 1c 6 b 3e
FIXUPS: 457e 3b 4d 27 12 1d c 36 e04 1e 18 5e 32 37 fffff785 b 29 38 1b
FIXUPS: 4c76 25 fffffebc f 11 11 f f 73 11 fffffe49 c a 10 a 5 5 1c c 11
FIXUPS: 4af4 226a ffffe8b9 8b 56 e 24 1b 32 14 d fffff725 3f 99 19 68 89
FIXUPS: 50ac 2e 25 d9 bf 3b 18 c 15 8 77 12 96 16 1c 27 2003 3c 32 34 1b
FIXUPS: 742d 19 ffffff52 21 2b 12 fffffda2 e 82 11c fffffd86 48 50 22 ffffe748
FIXUPS: 58e1 2a 385 106 f 78b 44f 157 b2 51 4f b6 cbe 11 21 e 7d 2c 14
FIXUPS: 7ae3 7 93 12 1c 1e 12 16 30 12 15 9 a e e 18 c e c 7 1f 43 24 fffff72b
FIXUPS: 7476 e88 19 b fffffbcb ffffff96 ffffff8b 10 56 ffffff1b 22 fffff7d0
FIXUPS: 75a4 58 2f 4b b 1e 32 49 42 1f 28 a 2a 1e 51 3a 78 1b e 45 1f fa5
FIXUPS: 893e 14 12 f e 9 17 fffffde6 ffffff8d fffff7e7 1b ae 1b 3d 13 26
FIXUPS: 8096 a4 1d 20 16 2d 9 1f 27 45 12 24 23 2e 16 f41 fffffea1 107
FIXUPS: 9007 3e fffffdf4 16 8a 15 13 1a 14 d 11 12 16 19 fffffe11 d 11
FIXUPS: 8dec 25 fffffe95 23 44 13 fffffcaf 35 f 10 17 fffffed7 1802 c 22
FIXUPS: a14d 21 c fffffaf1 5d ffffff3e fffffdc1 14 14 17 20 11 ffffff70
FIXUPS: 99ae 9 fffffecd f ffffffa1 ffffff9f 8 8 19 ffffff13 fffffd65 30
FIXUPS: 9561 2b 1c eb ea0 3a 31 5 151 24 28 ba fffffc1a fffffef4 1c ffffffbe
FIXUPS: a2eb fffffa79 17 5c f 151 12 16 c 1d 18 a c e 17 10 24 54 16 47
FIXUPS: b496 14 18 18 96 6 a 6 1b 4b fffffcac 7c b4 fffffde5 10 fffffca0
FIXUPS: afb5 2b fffffe20 ffffff6c 17 9 c 1e 12 fffffee8 63 fffffd45 1a7
FIXUPS: ac1c 25 fffff7e6 1b51f 10 b ffffff7e 22 21 ffffff83 7 d fffe65e3
FIXUPS: bee3 41 10c fffffbc5 1d 4e 19 46 1d 26 9 d 9 fffffa30 71 61 ec
FIXUPS: b959 78 76 aa e 1a3d6 37 1f 45 2a fffffec3 a ffffff27 a fffffea3
FIXUPS: 25c45 d 18 1b 1c ffffff62 ffffffa0 17 13 ffffffad 1d ffffff81 a
FIXUPS: 25b32 b fffffe52 86 1b 34 3d 10 54 f91 b 1f 2f 11 6 38 fffffd9f
FIXUPS: 269c2 fffffb9c 181 59 23 3e 29 16 11 e fffffcb2 16 ffffff7e ffffff91
FIXUPS: 261e3 1e 26 23 fffffefc ffffff7d ffffff84 45 30 fffffdd8 fffdb196
FIXUPS: 1062 4b b0 46 c e 1e 1d d 34 18 22 26 11 8 16 d 17 358 a 4a 1b
FIXUPS: 16f7 a 9a 4e 44 19 251d8 38 18 fffdb94e 13 e b 29 11 15 d 15 17
FIXUPS: 247f 18 1c 24 f 2545e 8 b a fffdaba6 c 46 14 53 e 1b 30 37 2f d
FIXUPS: 2a3d 23 24ed9 fffda749 14 32 28 28 1e 31 13 10 86 e 32 17 13 19
FIXUPS: 229e 12 d 9 2d 5 a e 17 19 12 10 b 1f a f fffff9c3 d 14 13 15 a
FIXUPS: 1de8 4b d a 4f 11 17 11 16 12 20 2b 8 13 11 1a 1b 1e 15 11 1a 18
FIXUPS: 27917 8 8 8 fffda129 1b 35 e e b 11 10 18 7 12 1b 12 5 2d 1a 10
FIXUPS: 1bb2 11 10 18 7 17 26 4c d 1f 33 13 13 1f 3c 128d 43 24 fffffa7e
FIXUPS: 2ad4 18 2c 34 d a 39 55 11 19 17 13 79 18 a 5 5 a ffffec98 20 d
FIXUPS: 19c6 5 41 b 8 11 10 1dfb 20 24189 8 8 a fffdb6b6 f f f aa fffffb7b
FIXUPS: 2d10 16 6e 24be0 a fffdb449 c 8e 18 22 33 24ac6 a fffdb5a3 10 1a
FIXUPS: 2f7a f 12 1f 5a3 26 d e 1b 27 17 17 26 17 24369 b 8 a fffdbd09
FIXUPS: 36f2 a 14 a 1b f 9 f 9 f 9 17 20 20 26 a 17 fffffa2c f 32 21 8
FIXUPS: 32c1 5 8 e 16 2a 2e 1c d 1c 24 a 9 5 1b e 13 2b 12 13 33 1c 25
FIXUPS: 34fc d e 13
