 gt2

 Timestamp is 3a86ce59 (Sun Feb 11 18:39:37 2001)

 Preferred load address is 00400000

 Start         Length     Name                   Class
 0001:00000000 00020ab0H .text                   CODE
 0001:00020ab0 00000c62H .text$x                 CODE
 0002:00000000 00000198H .idata$5                DATA
 0002:00000198 00006973H .rdata                  DATA
 0002:00006b10 00000044H .rdata$r                DATA
 0002:00006b54 000010acH .xdata$x                DATA
 0002:00007c00 00000050H .idata$2                DATA
 0002:00007c50 00000014H .idata$3                DATA
 0002:00007c64 00000198H .idata$4                DATA
 0002:00007dfc 00000726H .idata$6                DATA
 0002:00008522 00000000H .edata                  DATA
 0003:00000000 00000004H .CRT$XCA                DATA
 0003:00000004 00000014H .CRT$XCU                DATA
 0003:00000018 00000004H .CRT$XCZ                DATA
 0003:0000001c 00000004H .CRT$XIA                DATA
 0003:00000020 00000010H .CRT$XIC                DATA
 0003:00000030 00000004H .CRT$XIY                DATA
 0003:00000034 00000004H .CRT$XIZ                DATA
 0003:00000038 00000004H .CRT$XPA                DATA
 0003:0000003c 00000008H .CRT$XPX                DATA
 0003:00000044 00000004H .CRT$XPZ                DATA
 0003:00000048 00000004H .CRT$XTA                DATA
 0003:0000004c 00000004H .CRT$XTB                DATA
 0003:00000050 00000004H .CRT$XTZ                DATA
 0003:00000060 000036b4H .data                   DATA
 0003:00003718 0000668cH .bss                    DATA

  Address         Publics by Value              Rva+Base     Lib:Object

 0001:00000040       _main                      00401040 f   gt_main.obj
 0001:00000480       ?resize@PHeap@@UAGXH@Z     00401480 f i gt_main.obj
 0001:000004a0       ??_EPHeap@@UAEPAXI@Z       004014a0 f i gt_main.obj
 0001:000004a0       ??_GPHeap@@UAEPAXI@Z       004014a0 f i gt_main.obj
 0001:00000990       ??0PHeap@@QAE@XZ           00401990 f i gt_main.obj
 0001:000009b0       ??_EPExtendedHeap@@UAEPAXI@Z 004019b0 f i gt_main.obj
 0001:000009b0       ??_GPExtendedHeap@@UAEPAXI@Z 004019b0 f i gt_main.obj
 0001:000009b0       ??_GPString@@UAEPAXI@Z     004019b0 f i gt_main.obj
 0001:000009b0       ??_EPString@@UAEPAXI@Z     004019b0 f i gt_main.obj
 0001:00000bf0       ??0PExtendedHeap@@QAE@H@Z  00401bf0 f i gt_main.obj
 0001:00000f50       ??_EPFileSearch@@UAEPAXI@Z 00401f50 f i gt_main.obj
 0001:00000f50       ??_GPFileSearch@@UAEPAXI@Z 00401f50 f i gt_main.obj
 0001:000015e0       @StartGTUI2@0              004025e0 f   gt_gtui_starter.obj
 0001:00001760       _strchr                    00402760 f   libc:strchr.obj
 0001:00001766       ___from_strstr_to_strchr   00402766 f   libc:strchr.obj
 0001:0000181c       _sprintf                   0040281c f   libc:sprintf.obj
 0001:0000186e       _fprintf                   0040286e f   libc:fprintf.obj
 0001:000018a0       ___initstdio               004028a0 f   libc:_file.obj
 0001:00001945       ___endstdio                00402945 f   libc:_file.obj
 0001:00001959       ?_JumpToContinuation@@YGXPAXPAUEHRegistrationNode@@@Z 00402959 f   libc:trnsctrl.obj
 0001:0000198d       ?_CallMemberFunction1@@YGXPAX00@Z 0040298d f   libc:trnsctrl.obj
 0001:0000198d       ?_CallMemberFunction0@@YGXPAX0@Z 0040298d f   libc:trnsctrl.obj
 0001:00001994       ?_CallMemberFunction2@@YGXPAX00H@Z 00402994 f   libc:trnsctrl.obj
 0001:0000199b       ?_UnwindNestedFrames@@YGXPAUEHRegistrationNode@@PAUEHExceptionRecord@@@Z 0040299b f   libc:trnsctrl.obj
 0001:000019ea       ___CxxFrameHandler         004029ea f   libc:trnsctrl.obj
 0001:00001a20       ?_CallCatchBlock2@@YAPAXPAUEHRegistrationNode@@PBU_s_FuncInfo@@PAXHK@Z 00402a20 f   libc:trnsctrl.obj
 0001:00001a99       ?_CallSETranslator@@YAHPAUEHExceptionRecord@@PAUEHRegistrationNode@@PAX2PBU_s_FuncInfo@@H1@Z 00402a99 f   libc:trnsctrl.obj
 0001:00001bc2       ?_GetRangeOfTrysToCheck@@YAPBU_s_TryBlockMapEntry@@PBU_s_FuncInfo@@HHPAI1@Z 00402bc2 f   libc:trnsctrl.obj
 0001:00001c3d       __fpmath                   00402c3d f   libc:fpinit.obj
 0001:00001c54       __fpclear                  00402c54 f   libc:fpinit.obj
 0001:00001c55       __cfltcvt_init             00402c55 f   libc:fpinit.obj
 0001:00001c90       __global_unwind2           00402c90 f   libc:exsup.obj
 0001:00001cd2       __local_unwind2            00402cd2 f   libc:exsup.obj
 0001:00001d2a       __NLG_Return2              00402d2a f   libc:exsup.obj
 0001:00001d3a       __abnormal_termination     00402d3a f   libc:exsup.obj
 0001:00001d5d       __NLG_Notify1              00402d5d f   libc:exsup.obj
 0001:00001d66       __NLG_Notify               00402d66 f   libc:exsup.obj
 0001:00001d79       __NLG_Dispatch             00402d79 f   libc:exsup.obj
 0001:00001d7e       ??3@YAXPAX@Z               00402d7e f   libc:delete.obj
 0001:00001d89       _printf                    00402d89 f   libc:printf.obj
 0001:00001dba       __getch                    00402dba f   libc:getch.obj
 0001:00001f4b       _mainCRTStartup            00402f4b f   libc:crt0.obj
 0001:0000202a       __amsg_exit                0040302a f   libc:crt0.obj
 0001:00002073       __flsbuf                   00403073 f   libc:_flsbuf.obj
 0001:00002188       __output                   00403188 f   libc:output.obj
 0001:00002992       __stbuf                    00403992 f   libc:_sftbuf.obj
 0001:00002a1f       __ftbuf                    00403a1f f   libc:_sftbuf.obj
 0001:00002a5c       __ioinit                   00403a5c f   libc:ioinit.obj
 0001:00002c07       _calloc                    00403c07 f   libc:calloc.obj
 0001:00002cb8       __fcloseall                00403cb8 f   libc:closeall.obj
 0001:00002d10       __cinit                    00403d10 f   libc:crt0dat.obj
 0001:00002d3d       _exit                      00403d3d f   libc:crt0dat.obj
 0001:00002d4e       __exit                     00403d4e f   libc:crt0dat.obj
 0001:00002e12       _fflush                    00403e12 f   libc:fflush.obj
 0001:00002e4d       __flush                    00403e4d f   libc:fflush.obj
 0001:00002ea9       __flushall                 00403ea9 f   libc:fflush.obj
 0001:00002f1f       ___InternalCxxFrameHandler 00403f1f f   libc:frame.obj
 0001:00003266       ___FrameUnwindToState      00404266 f   libc:frame.obj
 0001:0000368f       ?_DestructExceptionObject@@YAXPAUEHExceptionRecord@@E@Z 0040468f f   libc:frame.obj
 0001:00003720       __CallSettingFrame@12      00404720 f   libc:lowhelpr.obj
 0001:00003747       __NLG_Return               00404747 f   libc:lowhelpr.obj
 0001:0000376c       ?terminate@@YAXXZ          0040476c f   libc:hooks.obj
 0001:000037c2       ?_inconsistency@@YAXXZ     004047c2 f   libc:hooks.obj
 0001:00003818       __setdefaultprecision      00404818 f   libc:fp8.obj
 0001:0000382a       __ms_p5_test_fdiv          0040482a f   libc:testfdiv.obj
 0001:00003868       __ms_p5_mp_test_fdiv       00404868 f   libc:testfdiv.obj
 0001:00003891       __forcdecpt                00404891 f   libc:cvt.obj
 0001:000038eb       __cropzeros                004048eb f   libc:cvt.obj
 0001:00003939       __positive                 00404939 f   libc:cvt.obj
 0001:00003951       __fassign                  00404951 f   libc:cvt.obj
 0001:0000398f       __cftoe                    0040498f f   libc:cvt.obj
 0001:00003a93       __cftof                    00404a93 f   libc:cvt.obj
 0001:00003b71       __cftog                    00404b71 f   libc:cvt.obj
 0001:00003c56       __cfltcvt                  00404c56 f   libc:cvt.obj
 0001:00003ccc       _free                      00404ccc f   libc:free.obj
 0001:00003d35       ___initconin               00404d35 f   libc:initcon.obj
 0001:00003d54       ___termcon                 00404d54 f   libc:initcon.obj
 0001:00003d90       __chkstk                   00404d90 f   libc:chkstk.obj
 0001:00003d90       __alloca_probe             00404d90 f   libc:chkstk.obj
 0001:00003dbf       __XcptFilter               00404dbf f   libc:winxfltr.obj
 0001:00003f43       __setenvp                  00404f43 f   libc:stdenvp.obj
 0001:00003ffc       __setargv                  00404ffc f   libc:stdargv.obj
 0001:00004249       ___crtGetEnvironmentStringsA 00405249 f   libc:a_env.obj
 0001:0000437b       __GetLinkerVersion         0040537b f   libc:heapinit.obj
 0001:000043a8       ___heap_select             004053a8 f   libc:heapinit.obj
 0001:000044f0       __heap_init                004054f0 f   libc:heapinit.obj
 0001:00004558       __except_handler3          00405558 f   libc:exsup3.obj
 0001:00004615       __seh_longjmp_unwind@4     00405615 f   libc:exsup3.obj
 0001:00004630       __FF_MSGBANNER             00405630 f   libc:crt0msg.obj
 0001:00004669       __NMSG_WRITE               00405669 f   libc:crt0msg.obj
 0001:000047bc       __lseek                    004057bc f   libc:lseek.obj
 0001:00004856       __write                    00405856 f   libc:write.obj
 0001:00004a03       __getbuf                   00405a03 f   libc:_getbuf.obj
 0001:00004a47       __isatty                   00405a47 f   libc:isatty.obj
 0001:00004a70       _strlen                    00405a70 f   libc:strlen.obj
 0001:00004aeb       _wctomb                    00405aeb f   libc:wctomb.obj
 0001:00004b60       __aulldiv                  00405b60 f   libc:ulldiv.obj
 0001:00004bd0       __aullrem                  00405bd0 f   libc:ullrem.obj
 0001:00004c45       _malloc                    00405c45 f   libc:malloc.obj
 0001:00004c57       __nh_malloc                00405c57 f   libc:malloc.obj
 0001:00004c83       __heap_alloc               00405c83 f   libc:malloc.obj
 0001:00004d00       _memset                    00405d00 f   libc:memset.obj
 0001:00004d58       __callnewh                 00405d58 f   libc:handler.obj
 0001:00004d73       ___sbh_heap_init           00405d73 f   libc:sbheap.obj
 0001:00004dbb       ___sbh_find_block          00405dbb f   libc:sbheap.obj
 0001:00004de6       ___sbh_free_block          00405de6 f   libc:sbheap.obj
 0001:0000510f       ___sbh_alloc_block         0040610f f   libc:sbheap.obj
 0001:00005418       ___sbh_alloc_new_region    00406418 f   libc:sbheap.obj
 0001:000054c9       ___sbh_alloc_new_group     004064c9 f   libc:sbheap.obj
 0001:000055c4       ___sbh_resize_block        004065c4 f   libc:sbheap.obj
 0001:000058ba       ___old_sbh_new_region      004068ba f   libc:sbheap.obj
 0001:000059fe       ___old_sbh_release_region  004069fe f   libc:sbheap.obj
 0001:00005a54       ___old_sbh_decommit_pages  00406a54 f   libc:sbheap.obj
 0001:00005b16       ___old_sbh_find_block      00406b16 f   libc:sbheap.obj
 0001:00005b6d       ___old_sbh_free_block      00406b6d f   libc:sbheap.obj
 0001:00005bb2       ___old_sbh_alloc_block     00406bb2 f   libc:sbheap.obj
 0001:00005dba       ___old_sbh_alloc_block_from_page 00406dba f   libc:sbheap.obj
 0001:00005ede       ___old_sbh_resize_block    00406ede f   libc:sbheap.obj
 0001:00005f87       _fclose                    00406f87 f   libc:fclose.obj
 0001:00005fdd       __commit                   00406fdd f   libc:commit.obj
 0001:00006034       ?__CxxUnhandledExceptionFilter@@YGJPAU_EXCEPTION_POINTERS@@@Z 00407034 f   libc:unhandld.obj
 0001:0000607a       ?__CxxSetUnhandledExceptionFilter@@YAXXZ 0040707a f   libc:unhandld.obj
 0001:0000608b       ?__CxxRestoreUnhandledExceptionFilter@@YAXXZ 0040708b f   libc:unhandld.obj
 0001:00006098       ?_ValidateRead@@YAHPBXI@Z  00407098 f   libc:validate.obj
 0001:000060b4       ?_ValidateWrite@@YAHPAXI@Z 004070b4 f   libc:validate.obj
 0001:000060d0       ?_ValidateExecute@@YAHP6GHXZ@Z 004070d0 f   libc:validate.obj
 0001:000060f0       _strcmp                    004070f0 f   libc:strcmp.obj
 0001:00006180       _memmove                   00407180 f   libc:memmove.obj
 0001:000064b5       _abort                     004074b5 f   libc:abort.obj
 0001:000064cc       __control87                004074cc f   libc:ieee87.obj
 0001:00006501       __controlfp                00407501 f   libc:ieee87.obj
 0001:00006632       __isctype                  00407632 f   libc:isctype.obj
 0001:000066a7       _tolower                   004076a7 f   libc:tolower.obj
 0001:00006772       __ZeroTail                 00407772 f   libc:intrncvt.obj
 0001:000067bb       __IncMan                   004077bb f   libc:intrncvt.obj
 0001:00006811       __RoundMan                 00407811 f   libc:intrncvt.obj
 0001:0000689d       __CopyMan                  0040789d f   libc:intrncvt.obj
 0001:000068b8       __FillZeroMan              004078b8 f   libc:intrncvt.obj
 0001:000068c4       __IsZeroMan                004078c4 f   libc:intrncvt.obj
 0001:000068df       __ShrMan                   004078df f   libc:intrncvt.obj
 0001:0000696c       __ld12cvt                  0040796c f   libc:intrncvt.obj
 0001:00006ad8       __ld12tod                  00407ad8 f   libc:intrncvt.obj
 0001:00006aee       __ld12tof                  00407aee f   libc:intrncvt.obj
 0001:00006b04       __atodbl                   00407b04 f   libc:intrncvt.obj
 0001:00006b31       __atoflt                   00407b31 f   libc:intrncvt.obj
 0001:00006b60       _strcpy                    00407b60 f   libc:strcat.obj
 0001:00006b70       _strcat                    00407b70 f   libc:strcat.obj
 0001:00006c50       __fptostr                  00407c50 f   libc:_fptostr.obj
 0001:00006cc7       __fltout                   00407cc7 f   libc:cfout.obj
 0001:00006d2b       ___dtold                   00407d2b f   libc:cfout.obj
 0001:00006de1       __fptrap                   00407de1 f   libc:crt0fp.obj
 0001:00006dea       __setmbcp                  00407dea f   libc:mbctype.obj
 0001:000071ae       ___initmbctable            004081ae f   libc:mbctype.obj
 0001:000071d0       _memcpy                    004081d0 f   libc:memcpy.obj
 0001:00007505       _strtol                    00408505 f   libc:strtol.obj
 0001:00007730       _strstr                    00408730 f   libc:strstr.obj
 0001:000077b0       _strncmp                   004087b0 f   libc:strncmp.obj
 0001:000077e8       ___crtMessageBoxA          004087e8 f   libc:crtmbox.obj
 0001:00007880       _strncpy                   00408880 f   libc:strncpy.obj
 0001:0000797e       __dosmaperr                0040897e f   libc:dosmap.obj
 0001:000079e5       __alloc_osfhnd             004089e5 f   libc:osfinfo.obj
 0001:00007a7a       __set_osfhnd               00408a7a f   libc:osfinfo.obj
 0001:00007af1       __free_osfhnd              00408af1 f   libc:osfinfo.obj
 0001:00007b6b       __get_osfhandle            00408b6b f   libc:osfinfo.obj
 0001:00007ba8       __close                    00408ba8 f   libc:close.obj
 0001:00007c5b       __freebuf                  00408c5b f   libc:_freebuf.obj
 0001:00007c86       _raise                     00408c86 f   libc:winsig.obj
 0001:00007df8       ___crtGetStringTypeA       00408df8 f   libc:a_str.obj
 0001:00007f41       ___crtLCMapStringA         00408f41 f   libc:a_map.obj
 0001:00008190       ___addl                    00409190 f   libc:mantold.obj
 0001:000081b1       ___add_12                  004091b1 f   libc:mantold.obj
 0001:0000820f       ___shl_12                  0040920f f   libc:mantold.obj
 0001:0000823d       ___shr_12                  0040923d f   libc:mantold.obj
 0001:0000826a       ___mtold12                 0040926a f   libc:mantold.obj
 0001:00008331       ___strgtold12              00409331 f   libc:strgtold.obj
 0001:00008802       _$I10_OUTPUT               00409802 f   libc:x10fout.obj
 0001:00008a95       _toupper                   00409a95 f   libc:toupper.obj
 0001:00008b61       ___ld12mul                 00409b61 f   libc:tenpow.obj
 0001:00008d81       ___multtenpow12            00409d81 f   libc:tenpow.obj
 0001:00008e00       ?clear@PHeap@@UAGXXZ       00409e00 f   plib:pdynamicheap.obj
 0001:00008e20       ?_resize@PHeap@@IAGXH@Z    00409e20 f   plib:pdynamicheap.obj
 0001:00008e50       ?clear@PExtendedHeap@@UAGXXZ 00409e50 f   plib:pdynamicheap.obj
 0001:00008e70       ?resize@PExtendedHeap@@UAGXH@Z 00409e70 f   plib:pdynamicheap.obj
 0001:00008eb0       ?set@PExtendedHeap@@QAGXPBDHH@Z 00409eb0 f   plib:pdynamicheap.obj
 0001:00008ef0       ??0PString@@QAE@PBD@Z      00409ef0 f   plib:pstring.obj
 0001:00008f80       ??0PString@@QAE@PBDH@Z     00409f80 f   plib:pstring.obj
 0001:00009010       ??0PString@@QAE@ABV0@@Z    0040a010 f   plib:pstring.obj
 0001:00009090       ?EraseTrailingChars@PString@@QAGXD@Z 0040a090 f   plib:pstring.obj
 0001:000090e0       ?buf@PString@@QBGPADXZ     0040a0e0 f   plib:pstring.obj
 0001:000090f0       ?ToLower@PString@@QAGXXZ   0040a0f0 f   plib:pstring.obj
 0001:00009120       ?at@PString@@QAGAADH@Z     0040a120 f   plib:pstring.obj
 0001:00009130       ?alloc@PString@@QAGXH@Z    0040a130 f   plib:pstring.obj
 0001:00009160       ?checkalloc@PString@@QAGXXZ 0040a160 f   plib:pstring.obj
 0001:000091a0       ?del_first@PString@@QAGXI@Z 0040a1a0 f   plib:pstring.obj
 0001:000091d0       ?del_last@PString@@QAGXI@Z 0040a1d0 f   plib:pstring.obj
 0001:00009200       ?keep_first@PString@@QAGXI@Z 0040a200 f   plib:pstring.obj
 0001:00009220       ?replace_all@PString@@QAGHHH@Z 0040a220 f   plib:pstring.obj
 0001:00009260       ??4PString@@QAEAAV0@D@Z    0040a260 f   plib:pstring.obj
 0001:00009290       ??4PString@@QAEAAV0@PBD@Z  0040a290 f   plib:pstring.obj
 0001:000092f0       ??4PString@@QAEAAV0@ABV0@@Z 0040a2f0 f   plib:pstring.obj
 0001:00009330       ??YPString@@QAEXD@Z        0040a330 f   plib:pstring.obj
 0001:00009370       ?_append_charptr@PString@@AAEXPBDI@Z 0040a370 f   plib:pstring.obj
 0001:000093c0       ??YPString@@QAEXPBD@Z      0040a3c0 f   plib:pstring.obj
 0001:00009420       ??YPString@@QAEXABV0@@Z    0040a420 f   plib:pstring.obj
 0001:00009470       ??YPString@@QAEXH@Z        0040a470 f   plib:pstring.obj
 0001:000094d0       ??YPString@@QAEXJ@Z        0040a4d0 f   plib:pstring.obj
 0001:00009530       ??YPString@@QAEXK@Z        0040a530 f   plib:pstring.obj
 0001:00009590       ?Set@PString@@QAGXPBDI@Z   0040a590 f   plib:pstring.obj
 0001:000095d0       ?AppendMax@PString@@QAGXPBDI@Z 0040a5d0 f   plib:pstring.obj
 0001:00009630       ?AppendFormat@PString@@QAAXPBDZZ 0040a630 f   plib:pstring.obj
 0001:00009690       ?Append@PString@@QAGXNPBD@Z 0040a690 f   plib:pstring.obj
 0001:00009700       ?Append@PString@@QAGXHPBD@Z 0040a700 f   plib:pstring.obj
 0001:00009770       ?Start@PTimer@@QAEXXZ      0040a770 f   plib:ptimer.obj
 0001:00009790       ?Stop@PTimer@@QAEXXZ       0040a790 f   plib:ptimer.obj
 0001:000097b0       ?PError_ShowErrorMessage@@YAXPBDZZ 0040a7b0 f   plib:perror.obj
 0001:00009800       ?PError_ShowWin32Error@@YGXPBD@Z 0040a800 f   plib:perror.obj
 0001:00009870       ??1PFileSearch@@UAE@XZ     0040a870 f   plib:pfilesearch.obj
 0001:000098a0       ?FindFirst@PFileSearch@@QAEXPBD@Z 0040a8a0 f   plib:pfilesearch.obj
 0001:00009900       ?FindNext@PFileSearch@@QAEXXZ 0040a900 f   plib:pfilesearch.obj
 0001:00009930       ?FindClose@PFileSearch@@QAEXXZ 0040a930 f   plib:pfilesearch.obj
 0001:00009960       ?GetFilename@PFileSearch@@QBEPBDXZ 0040a960 f   plib:pfilesearch.obj
 0001:00009990       ?IsDirectory@PFileSearch@@QBEHXZ 0040a990 f   plib:pfilesearch.obj
 0001:00009a60       ?out_init_listmode@@YGXH@Z 0040aa60 f   lib_gt:gt_output.obj
 0001:00009a70       ?out_init_all@@YGXHHJ@Z    0040aa70 f   lib_gt:gt_output.obj
 0001:00009a90       ?out_flush@@YGXXZ          0040aa90 f   lib_gt:gt_output.obj
 0001:00009eb0       ?out_append@@YGXPBD@Z      0040aeb0 f   lib_gt:gt_output.obj
 0001:0000a120       ??0GT_OutputMember@@QAE@ABV0@@Z 0040b120 f i lib_gt:gt_output.obj
 0001:0000a140       ?out_append@@YGXPBDW4GT_Color@@@Z 0040b140 f   lib_gt:gt_output.obj
 0001:0000a170       ?out_append@@YGXABVPString@@@Z 0040b170 f   lib_gt:gt_output.obj
 0001:0000a190       ?out_format@@YAXPBDZZ      0040b190 f   lib_gt:gt_output.obj
 0001:0000a330       ?out_color_format@@YAXW4GT_Color@@PBDZZ 0040b330 f   lib_gt:gt_output.obj
 0001:0000a5a0       ?out_title@@YGXPBD@Z       0040b5a0 f   lib_gt:gt_output.obj
 0001:0000a640       ??0GT_TableField@@QAE@XZ   0040b640 f i lib_gt:gt_output.obj
 0001:0000a640       ??0PString@@QAE@XZ         0040b640 f i lib_gt:gt_output.obj
 0001:0000a680       ?out_filename@@YGXPAVGT_FileBuffer@@@Z 0040b680 f   lib_gt:gt_output.obj
 0001:0000a7c0       ?setFirst@Cursor@?$GT_Sequence@VGT_OutputMember@@@@UAEXXZ 0040b7c0 f i lib_gt:gt_output.obj
 0001:0000a7d0       ?setNext@Cursor@?$GT_Sequence@VGT_OutputMember@@@@UAEXXZ 0040b7d0 f i lib_gt:gt_output.obj
 0001:0000a7e0       ?isValid@Cursor@?$GT_Sequence@VGT_OutputMember@@@@UBEHXZ 0040b7e0 f i lib_gt:gt_output.obj
 0001:0000a7f0       ?firstElement@?$GT_Sequence@VGT_OutputMember@@@@QAEAAVGT_OutputMember@@XZ 0040b7f0 f i lib_gt:gt_output.obj
 0001:0000a7f0       ?element@Cursor@?$GT_Sequence@VGT_OutputMember@@@@UAEABVGT_OutputMember@@XZ 0040b7f0 f i lib_gt:gt_output.obj
 0001:0000a800       ??_E?$GT_Sequence@VGT_OutputMember@@@@UAEPAXI@Z 0040b800 f i lib_gt:gt_output.obj
 0001:0000a800       ??_G?$GT_Sequence@VGT_OutputMember@@@@UAEPAXI@Z 0040b800 f i lib_gt:gt_output.obj
 0001:0000a850       ?addFirst@?$GT_Sequence@VGT_OutputMember@@@@QAEXABVGT_OutputMember@@@Z 0040b850 f i lib_gt:gt_output.obj
 0001:0000a8a0       ?addLast@?$GT_Sequence@VGT_OutputMember@@@@QAEXABVGT_OutputMember@@@Z 0040b8a0 f i lib_gt:gt_output.obj
 0001:0000a8f0       ?GT_Flags_Init@@YGXHPAPAD@Z 0040b8f0 f   lib_gt:gt_commandlineflags.obj
 0001:0000a940       ?GT_Flags_Parse@@YGXXZ     0040b940 f   lib_gt:gt_commandlineflags.obj
 0001:0000a980       ?GT_Flags_SetFlag@@YGHPBD@Z 0040b980 f   lib_gt:gt_commandlineflags.obj
 0001:0000aa20       ?GT_Flags_OptimizeFlags@@YGXXZ 0040ba20 f   lib_gt:gt_commandlineflags.obj
 0001:0000aac0       ?GT_Flags_GetAsString@@YG?AVPString@@XZ 0040bac0 f   lib_gt:gt_commandlineflags.obj
 0001:0000abe0       ??0GT_ConfigFile@@QAE@XZ   0040bbe0 f   lib_gt:gt_configfile.obj
 0001:0000ad50       ??_EGT_ConfigFile@@UAEPAXI@Z 0040bd50 f i lib_gt:gt_configfile.obj
 0001:0000ad50       ??_GGT_ConfigFile@@UAEPAXI@Z 0040bd50 f i lib_gt:gt_configfile.obj
 0001:0000ad90       ??1GT_ConfigFile@@UAE@XZ   0040bd90 f   lib_gt:gt_configfile.obj
 0001:0000adc0       ?Read@GT_ConfigFile@@QAEHXZ 0040bdc0 f   lib_gt:gt_configfile.obj
 0001:0000af80       ??0GT_FileBuffer@@QAE@PBDJP6GH0J@ZJHH@Z 0040bf80 f   lib_gt:gt_filebuffer.obj
 0001:0000b0b0       ??_GGT_FileBuffer@@UAEPAXI@Z 0040c0b0 f i lib_gt:gt_filebuffer.obj
 0001:0000b0b0       ??_EGT_FileBuffer@@UAEPAXI@Z 0040c0b0 f i lib_gt:gt_filebuffer.obj
 0001:0000b0d0       ?_Open@GT_FileBuffer@@AAE?AW4GT_OpenReturnCode@@XZ 0040c0d0 f   lib_gt:gt_filebuffer.obj
 0001:0000b1b0       ?Init@GT_FileBuffer@@QAE?AW4GT_OpenReturnCode@@XZ 0040c1b0 f   lib_gt:gt_filebuffer.obj
 0001:0000b1f0       ??1GT_FileBuffer@@UAE@XZ   0040c1f0 f   lib_gt:gt_filebuffer.obj
 0001:0000b2b0       ?_InitBuffer@GT_FileBuffer@@AAEXXZ 0040c2b0 f   lib_gt:gt_filebuffer.obj
 0001:0000b3d0       ?_DetermineIfText@GT_FileBuffer@@AAEXXZ 0040c3d0 f   lib_gt:gt_filebuffer.obj
 0001:0000b490       ?SetActFilePos@GT_FileBuffer@@QAEXJ@Z 0040c490 f   lib_gt:gt_filebuffer.obj
 0001:0000b4e0       ??1GT_Exception@@QAE@XZ    0040c4e0 f i lib_gt:gt_filebuffer.obj
 0001:0000b540       ??0GT_Exception@@QAE@ABV0@@Z 0040c540 f i lib_gt:gt_filebuffer.obj
 0001:0000b5a0       ?IncActFilePos@GT_FileBuffer@@QAEXJ@Z 0040c5a0 f   lib_gt:gt_filebuffer.obj
 0001:0000b5f0       ?GetFileNameExtension@GT_FileBuffer@@QBEPBDXZ 0040c5f0 f   lib_gt:gt_filebuffer.obj
 0001:0000b620       ?CallListProc@GT_FileBuffer@@QBEXJ@Z 0040c620 f   lib_gt:gt_filebuffer.obj
 0001:0000b660       ?GetByte@GT_FileBuffer@@QAEEJ@Z 0040c660 f   lib_gt:gt_filebuffer.obj
 0001:0000b720       ?GetWord@GT_FileBuffer@@QAEGJ@Z 0040c720 f   lib_gt:gt_filebuffer.obj
 0001:0000b800       ?GetLong@GT_FileBuffer@@QAEJJ@Z 0040c800 f   lib_gt:gt_filebuffer.obj
 0001:0000b8e0       ?GetBufferX@GT_FileBuffer@@QAEXJPAXJ@Z 0040c8e0 f   lib_gt:gt_filebuffer.obj
 0001:0000ba70       ?GetBuffer@GT_FileBuffer@@QAEHJPAXJ@Z 0040ca70 f   lib_gt:gt_filebuffer.obj
 0001:0000bb70       ?GetString@GT_FileBuffer@@QAEHJAAVPString@@J@Z 0040cb70 f   lib_gt:gt_filebuffer.obj
 0001:0000bbb0       ?GetCString@GT_FileBuffer@@QAEXAAVPString@@JJ@Z 0040cbb0 f   lib_gt:gt_filebuffer.obj
 0001:0000bc50       ?GetPascalString@GT_FileBuffer@@QAEXAAVPString@@J@Z 0040cc50 f   lib_gt:gt_filebuffer.obj
 0001:0000bda0       ?GetUntil@GT_FileBuffer@@QAEHJEPAXHAAH@Z 0040cda0 f   lib_gt:gt_filebuffer.obj
 0001:0000be30       ?SkipUntil@GT_FileBuffer@@QAEHJE@Z 0040ce30 f   lib_gt:gt_filebuffer.obj
 0001:0000bee0       ?Find@GT_FileBuffer@@QAEHEJJ@Z 0040cee0 f   lib_gt:gt_filebuffer.obj
 0001:0000bf20       ?Find@GT_FileBuffer@@QAEHPBDJJ@Z 0040cf20 f   lib_gt:gt_filebuffer.obj
 0001:0000c000       ?iFind@GT_FileBuffer@@QAEHPBDJJ@Z 0040d000 f   lib_gt:gt_filebuffer.obj
 0001:0000c150       ?Compare@GT_FileBuffer@@QAEHJJE@Z 0040d150 f   lib_gt:gt_filebuffer.obj
 0001:0000c190       ?Compare@GT_FileBuffer@@QAEHJJPBD@Z 0040d190 f   lib_gt:gt_filebuffer.obj
 0001:0000c1d0       ?iCompare@GT_FileBuffer@@QAEHJJPBD@Z 0040d1d0 f   lib_gt:gt_filebuffer.obj
 0001:0000c210       ??0GT_WindowsConsole@@QAE@XZ 0040d210 f   lib_gt:gt_winconsole.obj
 0001:0000c330       ??_EGT_WindowsConsole@@UAEPAXI@Z 0040d330 f i lib_gt:gt_winconsole.obj
 0001:0000c330       ??_GGT_WindowsConsole@@UAEPAXI@Z 0040d330 f i lib_gt:gt_winconsole.obj
 0001:0000c350       ??1GT_WindowsConsole@@UAE@XZ 0040d350 f   lib_gt:gt_winconsole.obj
 0001:0000c3e0       ?SetTextColor@GT_WindowsConsole@@QBEXW4GT_Color@@@Z 0040d3e0 f   lib_gt:gt_winconsole.obj
 0001:0000c4d0       ?RestoreOriginalColor@GT_WindowsConsole@@QBEXXZ 0040d4d0 f   lib_gt:gt_winconsole.obj
 0001:0000c500       ?SetTitle@GT_WindowsConsole@@QBEXPBD@Z 0040d500 f   lib_gt:gt_winconsole.obj
 0001:0000c510       ??0GT_Exception@@QAA@PBDJ0ZZ 0040d510 f   lib_gt:gt_exceptions.obj
 0001:0000c5a0       ?Print@GT_Exception@@QBEXXZ 0040d5a0 f   lib_gt:gt_exceptions.obj
 0001:0000c640       ?Check_EXT_EXE@GT_EXEAnalyzer@@AAEHJH@Z 0040d640 f   lib_data:gt_exe_analyzer.obj
 0001:0000c9a0       ?Check_EXE_Generic@GT_EXEAnalyzer@@AAEHJ@Z 0040d9a0 f   lib_data:gt_exe_analyzer.obj
 0001:0000cda0       ?CheckStartupCode@GT_EXEAnalyzer@@AAEHH@Z 0040dda0 f   lib_data:gt_exe_analyzer.obj
 0001:0000d0f0       ?ListCOM@GT_EXEAnalyzer@@QAEXXZ 0040e0f0 f   lib_data:gt_exe_analyzer.obj
 0001:0000d120       ?ListEXE@GT_EXEAnalyzer@@QAEXXZ 0040e120 f   lib_data:gt_exe_analyzer.obj
 0001:0000d360       ?_ListNEEXEs@GT_EXEAnalyzer@@AAEXXZ 0040e360 f   lib_data:gt_exe_analyzer.obj
 0001:0000d4e0       ??1GT_EXE_LE_Lister@@QAE@XZ 0040e4e0 f i lib_data:gt_exe_analyzer.obj
 0001:0000d520       ??0GT_DBFAnalyzer@@QAE@PAVGT_FileBuffer@@@Z 0040e520 f   lib_data:gt_generic.obj
 0001:0000d680       ?Analyze@GT_DBFAnalyzer@@QBE?AVPString@@XZ 0040e680 f   lib_data:gt_generic.obj
 0001:0000d980       ?Analyze@GT_HTMLAnalyzer@@QBE?AVPString@@XZ 0040e980 f   lib_data:gt_generic.obj
 0001:0000dac0       ?_SubAnalyze@GT_RIFFAnalyzer@@ABGXKKAAKAAVPString@@1@Z 0040eac0 f   lib_data:gt_generic.obj
 0001:0000dcd0       ?Analyze@GT_RIFFAnalyzer@@QBG?AVPString@@XZ 0040ecd0 f   lib_data:gt_generic.obj
 0001:0000e0f0       ?_GetPascalStartPos@GT_SourceAnalyzer@@ABGHXZ 0040f0f0 f   lib_data:gt_generic.obj
 0001:0000e1f0       ?_GetCStartPos@GT_SourceAnalyzer@@ABGHXZ 0040f1f0 f   lib_data:gt_generic.obj
 0001:0000e2c0       ?_Init@GT_SourceAnalyzer@@AAGXXZ 0040f2c0 f   lib_data:gt_generic.obj
 0001:0000f0b0       ?_GetNextString@GT_SourceAnalyzer@@AAGXHD@Z 004100b0 f   lib_data:gt_generic.obj
 0001:0000f170       ?_CheckString2@GT_SourceAnalyzer@@AAGHABVPString@@HPBD1@Z 00410170 f   lib_data:gt_generic.obj
 0001:0000f1f0       ?GetSourceType@GT_SourceAnalyzer@@QAGXAAVPString@@@Z 004101f0 f   lib_data:gt_generic.obj
 0001:0000f380       ??0GT_TTFAnalyzer@@QAE@PAVGT_FileBuffer@@@Z 00410380 f   lib_data:gt_generic.obj
 0001:0000f430       ?ReadEntry@GT_TTFAnalyzer@@ABE?AVPString@@PAU_GT_TTF_Name@@HH@Z 00410430 f   lib_data:gt_generic.obj
 0001:0000f630       ?Analyze@GT_TTFAnalyzer@@QBE?AVPString@@XZ 00410630 f   lib_data:gt_generic.obj
 0001:0000f900       ?GT_GenericAnalyze@@YG?AVPString@@PAVGT_FileBuffer@@AAJ@Z 00410900 f   lib_data:gt_generic.obj
 0001:00012a60       ?Search@PString@@QAGHD@Z   00413a60 f i lib_data:gt_generic.obj
 0001:00013af0       ?Analyze@GT_SYSAnalyzer@@QBE?AVPString@@XZ 00414af0 f i lib_data:gt_generic.obj
 0001:00013bd0       ??1GT_SourceAnalyzer@@QAE@XZ 00414bd0 f i lib_data:gt_generic.obj
 0001:00013be0       ??0GT_EXEHeader@@QAE@PAVGT_FileBuffer@@@Z 00414be0 f   lib_data:gt_exe_header.obj
 0001:00013c70       ?IsValidCOM@GT_EXEHeader@@QBEHXZ 00414c70 f   lib_data:gt_exe_header.obj
 0001:00013cd0       ?GetAbsoluteIP@GT_EXEHeader@@QBEJXZ 00414cd0 f   lib_data:gt_exe_header.obj
 0001:00013d00       ?GetOverlaySize@GT_EXEHeader@@QBEJXZ 00414d00 f   lib_data:gt_exe_header.obj
 0001:00013d40       ?GT_CheckForFixedName@@YIHPBDAAVPString@@@Z 00414d40 f   lib_data:gt_fixedname.obj
 0001:00013e90       ?GT_CheckForFixedExtension@@YIHPBDAAVPString@@@Z 00414e90 f   lib_data:gt_fixedname.obj
 0001:00013ff0       ?GT_CheckForRegistryExtension@@YIHPBDAAVPString@@@Z 00414ff0 f   lib_data:gt_fixedname.obj
 0001:00014200       ??0GT_Compare@@QAE@PAEEHPAVGT_FileBuffer@@P6IXPAU_EXEEntry@@01@Z@Z 00415200 f   lib_data:gt_compare.obj
 0001:00014230       ?ExplicitMatches@GT_Compare@@QAE?AW4GT_CompareError@@PAEH@Z 00415230 f   lib_data:gt_compare.obj
 0001:000142a0       ?Matches@GT_Compare@@QAE?AW4GT_CompareError@@PAU_EXEEntry@@@Z 004152a0 f   lib_data:gt_compare.obj
 0001:00014370       ?GetMacroPos@GT_MacroManager@@QAEHAAJPBDH@Z 00415370 f   lib_data:gt_macromanager.obj
 0001:00014530       ?GetLongCallPos@GT_MacroManager@@QAEHAAJJ@Z 00415530 f   lib_data:gt_macromanager.obj
 0001:00014590       ?GetJumpPos@GT_MacroManager@@QAEHAAJH@Z 00415590 f   lib_data:gt_macromanager.obj
 0001:000146e0       ?Get32BitRVAJumpPos@GT_MacroManager@@QAEHAAJH@Z 004156e0 f   lib_data:gt_macromanager.obj
 0001:00014770       ??_EGT_EXE_LE_ObjectTableHandler@@UAEPAXI@Z 00415770 f i lib_data:gt_exe_le.obj
 0001:00014770       ??_GGT_EXE_LE_ObjectTableHandler@@UAEPAXI@Z 00415770 f i lib_data:gt_exe_le.obj
 0001:000147b0       ??1GT_EXE_LE_ObjectTableHandler@@UAE@XZ 004157b0 f   lib_data:gt_exe_le.obj
 0001:000147d0       ?GetRealAddrOfObject@GT_EXE_LE_ObjectTableHandler@@QBEJH@Z 004157d0 f   lib_data:gt_exe_le.obj
 0001:00014800       ?GetSizeOfObject@GT_EXE_LE_ObjectTableHandler@@QBEJH@Z 00415800 f   lib_data:gt_exe_le.obj
 0001:00014860       ??0GT_EXE_LE_HeaderHandler@@QAE@PAVGT_FileBuffer@@J@Z 00415860 f   lib_data:gt_exe_le.obj
 0001:000148f0       ?Execute@GT_EXE_LE_Lister@@QAEXXZ 004158f0 f   lib_data:gt_exe_le.obj
 0001:00014c60       ??_EGT_TableField@@QAEPAXI@Z 00415c60 f i lib_data:gt_exe_pe.obj
 0001:00014cc0       ??1PExtendedHeap@@UAE@XZ   00415cc0 f i lib_data:gt_exe_pe.obj
 0001:00014cc0       ??1PString@@UAE@XZ         00415cc0 f i lib_data:gt_exe_pe.obj
 0001:00014cc0       ??1GT_TableField@@QAE@XZ   00415cc0 f i lib_data:gt_exe_pe.obj
 0001:00014cd0       ??_EGT_TableColumn@@UAEPAXI@Z 00415cd0 f i lib_data:gt_exe_pe.obj
 0001:00014d30       ??1GT_TableColumn@@UAE@XZ  00415d30 f i lib_data:gt_exe_pe.obj
 0001:00014db0       ?List@GT_EXE_PE_ExportAnalyzer@@UAEXXZ 00415db0 f   lib_data:gt_exe_pe.obj
 0001:00015120       ??0GT_TableColumn@@QAE@XZ  00416120 f i lib_data:gt_exe_pe.obj
 0001:00015160       ?Init@GT_TableColumn@@QAEXIIHW4GT_TableColumnType@@PBD@Z 00416160 f i lib_data:gt_exe_pe.obj
 0001:00015240       ??1GT_Table@@UAE@XZ        00416240 f i lib_data:gt_exe_pe.obj
 0001:00015260       ??_EGT_Table@@UAEPAXI@Z    00416260 f i lib_data:gt_exe_pe.obj
 0001:00015260       ??_GGT_Table@@UAEPAXI@Z    00416260 f i lib_data:gt_exe_pe.obj
 0001:00015290       ?_ListLookupTable@GT_EXE_PE_ImportAnalyzer@@AAEXJ@Z 00416290 f   lib_data:gt_exe_pe.obj
 0001:00015380       ?List@GT_EXE_PE_ImportAnalyzer@@UAEXXZ 00416380 f   lib_data:gt_exe_pe.obj
 0001:000154c0       ?_ListVersionInfo@GT_EXE_PE_ResourceAnalyzer@@AAEXPAE@Z 004164c0 f   lib_data:gt_exe_pe.obj
 0001:00015720       ?_ListTable@GT_EXE_PE_ResourceAnalyzer@@AAEXJ@Z 00416720 f   lib_data:gt_exe_pe.obj
 0001:000157d0       ?_ListEntry@GT_EXE_PE_ResourceAnalyzer@@AAEXJ@Z 004167d0 f   lib_data:gt_exe_pe.obj
 0001:00015a70       ?List@GT_EXE_PE_ResourceAnalyzer@@UAEXXZ 00416a70 f   lib_data:gt_exe_pe.obj
 0001:00015b20       ??_EGT_EXE_PE_DataDirectoryHandler@@UAEPAXI@Z 00416b20 f i lib_data:gt_exe_pe.obj
 0001:00015b20       ??_GGT_EXE_PE_DataDirectoryHandler@@UAEPAXI@Z 00416b20 f i lib_data:gt_exe_pe.obj
 0001:00015b60       ??0GT_EXE_PE_Lister@@QAE@JPAVGT_FileBuffer@@@Z 00416b60 f   lib_data:gt_exe_pe.obj
 0001:00015b80       ?CheckDataDirectory@GT_EXE_PE_Lister@@AAEXPAVGT_EXE_PE_SectionTableAnalyzer@@@Z 00416b80 f   lib_data:gt_exe_pe.obj
 0001:00015de0       ??1GT_EXE_PE_DataDirectoryHandler@@UAE@XZ 00416de0 f i lib_data:gt_exe_pe.obj
 0001:00015e00       ?Execute@GT_EXE_PE_Lister@@QAEXXZ 00416e00 f   lib_data:gt_exe_pe.obj
 0001:000167a0       ?Check_EXT_PE@GT_EXE_PE_Lister@@AAEHJPAVGT_EXE_PE_SectionTableAnalyzer@@@Z 004177a0 f   lib_data:gt_exe_pe.obj
 0001:00016890       ?CheckForCode@GT_EXE_PE_Lister@@AAEXJPAVGT_EXE_PE_SectionTableAnalyzer@@@Z 00417890 f   lib_data:gt_exe_pe.obj
 0001:00016b00       ?Execute@GT_EXE_NE_Lister@@QAEXXZ 00417b00 f   lib_data:gt_exe_ne.obj
 0001:00017380       ??0GT_EXE_NE_HeaderHdl@@QAE@JPAVGT_FileBuffer@@H@Z 00418380 f   lib_data:gt_exe_ne_header.obj
 0001:000173b0       ??0GT_EXE_PE_SectionTableAnalyzer@@QAE@PAVGT_FileBuffer@@PAU_GT_EXE_PE_ImageFileHeader@@J@Z 004183b0 f   lib_data:gt_exe_pe_sectiontablehdl.obj
 0001:00017450       ??_EGT_EXE_PE_SectionTableAnalyzer@@UAEPAXI@Z 00418450 f i lib_data:gt_exe_pe_sectiontablehdl.obj
 0001:00017450       ??_GGT_EXE_PE_SectionTableAnalyzer@@UAEPAXI@Z 00418450 f i lib_data:gt_exe_pe_sectiontablehdl.obj
 0001:00017490       ??1GT_EXE_PE_SectionTableAnalyzer@@UAE@XZ 00418490 f   lib_data:gt_exe_pe_sectiontablehdl.obj
 0001:000174b0       ?GetEXESize@GT_EXE_PE_SectionTableAnalyzer@@QBEJXZ 004184b0 f   lib_data:gt_exe_pe_sectiontablehdl.obj
 0001:000174e0       ?GetSectionName@GT_EXE_PE_SectionTableAnalyzer@@QBEPBDHH@Z 004184e0 f   lib_data:gt_exe_pe_sectiontablehdl.obj
 0001:00017550       ?r2o@GT_EXE_PE_SectionTableAnalyzer@@QBEJJ@Z 00418550 f   lib_data:gt_exe_pe_sectiontablehdl.obj
 0001:00017590       ?o2r@GT_EXE_PE_SectionTableAnalyzer@@QBEJJ@Z 00418590 f   lib_data:gt_exe_pe_sectiontablehdl.obj
 0001:000175e0       ??0GT_EXE_NE_SegmentHandler@@QAE@PAVGT_FileBuffer@@PAVGT_EXE_NE_HeaderHdl@@@Z 004185e0 f   lib_data:gt_exe_ne_segmenthdl.obj
 0001:00017690       ??_EGT_EXE_NE_SegmentHandler@@UAEPAXI@Z 00418690 f i lib_data:gt_exe_ne_segmenthdl.obj
 0001:00017690       ??_GGT_EXE_NE_SegmentHandler@@UAEPAXI@Z 00418690 f i lib_data:gt_exe_ne_segmenthdl.obj
 0001:000176d0       ??1GT_EXE_NE_SegmentHandler@@UAE@XZ 004186d0 f   lib_data:gt_exe_ne_segmenthdl.obj
 0001:000176f0       ?GetEndPos@GT_EXE_NE_SegmentHandler@@QBEJH@Z 004186f0 f   lib_data:gt_exe_ne_segmenthdl.obj
 0001:00017750       ?GetLength@GT_EXE_NE_SegmentHandler@@QBEJH@Z 00418750 f   lib_data:gt_exe_ne_segmenthdl.obj
 0001:00017780       ?GetStartPos@GT_EXE_NE_SegmentHandler@@QBEJH@Z 00418780 f   lib_data:gt_exe_ne_segmenthdl.obj
 0001:000177a0       ?GetAllocSize@GT_EXE_NE_SegmentHandler@@QBEJH@Z 004187a0 f   lib_data:gt_exe_ne_segmenthdl.obj
 0001:000177c0       ?GetEntryPoint@GT_EXE_NE_SegmentHandler@@QBEJXZ 004187c0 f   lib_data:gt_exe_ne_segmenthdl.obj
 0001:00017830       ?GetCalculatedFileSize@GT_EXE_NE_SegmentHandler@@QBEJXZ 00418830 f   lib_data:gt_exe_ne_segmenthdl.obj
 0001:00017890       ?GetType@GT_EXE_NE_SegmentHandler@@QBEPBDH@Z 00418890 f   lib_data:gt_exe_ne_segmenthdl.obj
 0001:000178b0       ??0GT_ArchiveAnalyzer@@QAE@PAVGT_FileBuffer@@@Z 004188b0 f   lib_archive:gt_archiver.obj
 0001:00017920       ?IsHAArchive@GT_ArchiveAnalyzer@@ABEHH@Z 00418920 f   lib_archive:gt_archiver.obj
 0001:00017ac0       ?GetPacker@GT_ArchiveAnalyzer@@AAEXH@Z 00418ac0 f   lib_archive:gt_archiver.obj
 0001:00018410       ?ListArchiveName@GT_ArchiveAnalyzer@@QBEXXZ 00419410 f   lib_archive:gt_archiver.obj
 0001:00018460       ?ListArchive@GT_ArchiveAnalyzer@@QAEHXZ 00419460 f   lib_archive:gt_archiver.obj
 0001:00018ee0       ?CheckForOverlay@GT_ArchiveAnalyzer@@QBEXXZ 00419ee0 f   lib_archive:gt_archiver.obj
 0001:00018ef0       ??0GT_BasicArchiveLister@@QAE@PAVGT_FileBuffer@@H@Z 00419ef0 f   lib_archive:gt_archiver.obj
 0001:00018f30       ?ShowHeader@GT_BasicArchiveLister@@UAEXXZ 00419f30 f   lib_archive:gt_archiver.obj
 0001:00018f80       ?ShowFile@GT_BasicArchiveLister@@UAEXJJNPBDHW4PDateTimeType@@H@Z 00419f80 f   lib_archive:gt_archiver.obj
 0001:00019100       ?ShowOverall@GT_BasicArchiveLister@@UAEXXZ 0041a100 f   lib_archive:gt_archiver.obj
 0001:00019230       ?ListFiles@GT_BasicArchiveLister@@UAEXXZ 0041a230 f   lib_archive:gt_archiver.obj
 0001:00019240       ?ListFiles@GT_777ArchiveLister@@UAEXXZ 0041a240 f   lib_archive:gt_archiver.obj
 0001:000194e0       ?ListFiles@GT_ACEArchiveLister@@UAEXXZ 0041a4e0 f   lib_archive:gt_archiver.obj
 0001:000196b0       ?ListFiles@GT_AINArchiveLister@@UAEXXZ 0041a6b0 f   lib_archive:gt_archiver.obj
 0001:00019720       ?ListFiles@GT_AKT7ArchiveLister@@UAEXXZ 0041a720 f   lib_archive:gt_archiver.obj
 0001:00019970       ?ListFiles@GT_AKT9ArchiveLister@@UAEXXZ 0041a970 f   lib_archive:gt_archiver.obj
 0001:00019bc0       ?ListFiles@GT_AMGArchiveLister@@UAEXXZ 0041abc0 f   lib_archive:gt_archiver.obj
 0001:00019db0       ?ListFiles@GT_ARCArchiveLister@@UAEXXZ 0041adb0 f   lib_archive:gt_archiver.obj
 0001:00019eb0       ?ListFiles@GT_ARGArchiveLister@@UAEXXZ 0041aeb0 f   lib_archive:gt_archiver.obj
 0001:00019f70       ?ListFiles@GT_ARJArchiveLister@@UAEXXZ 0041af70 f   lib_archive:gt_archiver.obj
 0001:0001a360       ?ListFiles@GT_ARQArchiveLister@@UAEXXZ 0041b360 f   lib_archive:gt_archiver.obj
 0001:0001a4e0       ?ListFiles@GT_ARXArchiveLister@@UAEXXZ 0041b4e0 f   lib_archive:gt_archiver.obj
 0001:0001a650       ?ListFiles@GT_ASDArchiveLister@@UAEXXZ 0041b650 f   lib_archive:gt_archiver.obj
 0001:0001a7a0       ?ListFiles@GT_BLIArchiveLister@@UAEXXZ 0041b7a0 f   lib_archive:gt_archiver.obj
 0001:0001a9a0       ?ListFiles@GT_CABArchiveLister@@UAEXXZ 0041b9a0 f   lib_archive:gt_archiver.obj
 0001:0001ab00       ?ListFiles@GT_DPAArchiveLister@@UAEXXZ 0041bb00 f   lib_archive:gt_archiver.obj
 0001:0001abe0       ?ListFiles@GT_GZArchiveLister@@UAEXXZ 0041bbe0 f   lib_archive:gt_archiver.obj
 0001:0001ad20       ?ListFiles@GT_HAArchiveLister@@UAEXXZ 0041bd20 f   lib_archive:gt_archiver.obj
 0001:0001aee0       ?ListFiles@GT_IDSKAArchiveLister@@UAEXXZ 0041bee0 f   lib_archive:gt_archiver.obj
 0001:0001af20       ??0GT_IMPArchiveLister@@QAE@PAVGT_FileBuffer@@H@Z 0041bf20 f   lib_archive:gt_archiver.obj
 0001:0001afc0       ?load_fixed_codes@GT_IMPArchiveLister@@IAEXPAEJ@Z 0041bfc0 f   lib_archive:gt_archiver.obj
 0001:0001b0c0       ?make_codes@GT_IMPArchiveLister@@IAEXPAKPAEH@Z 0041c0c0 f   lib_archive:gt_archiver.obj
 0001:0001b170       ?make_decode_tables@GT_IMPArchiveLister@@IAEHPAHQAY01HPAKPAEHH@Z 0041c170 f   lib_archive:gt_archiver.obj
 0001:0001b300       ?load_hcodes@GT_IMPArchiveLister@@IAEHPAEHHJ@Z 0041c300 f   lib_archive:gt_archiver.obj
 0001:0001b6f0       ?expand_lz@GT_IMPArchiveLister@@IAEHPAEHH@Z 0041c6f0 f   lib_archive:gt_archiver.obj
 0001:0001c110       ?ListFiles@GT_IMPArchiveLister@@UAEXXZ 0041d110 f   lib_archive:gt_archiver.obj
 0001:0001c5d0       ?ListFiles@GT_INSArchiveLister@@UAEXXZ 0041d5d0 f   lib_archive:gt_archiver.obj
 0001:0001c770       ?ListFiles@GT_ISCArchiveLister@@UAEXXZ 0041d770 f   lib_archive:gt_archiver.obj
 0001:0001c9c0       ?ListFiles@GT_LGArchiveLister@@UAEXXZ 0041d9c0 f   lib_archive:gt_archiver.obj
 0001:0001cb80       ?ListFiles@GT_LZHArchiveLister@@UAEXXZ 0041db80 f   lib_archive:gt_archiver.obj
 0001:0001cf60       ?ListFiles@GT_LZOArchiveLister@@UAEXXZ 0041df60 f   lib_archive:gt_archiver.obj
 0001:0001d0b0       ?ListFiles@GT_NEROArchiveLister@@UAEXXZ 0041e0b0 f   lib_archive:gt_archiver.obj
 0001:0001d170       ?ListFiles@GT_PAQArchiveLister@@UAEXXZ 0041e170 f   lib_archive:gt_archiver.obj
 0001:0001d280       ?ListFiles@GT_PPZArchiveLister@@UAEXXZ 0041e280 f   lib_archive:gt_archiver.obj
 0001:0001d330       ?ListFiles@GT_RARArchiveLister@@UAEXXZ 0041e330 f   lib_archive:gt_archiver.obj
 0001:0001d5f0       ?ListFiles@GT_STIArchiveLister@@UAEXXZ 0041e5f0 f   lib_archive:gt_archiver.obj
 0001:0001d9a0       ?ListFiles@GT_SYNArchiveLister@@UAEXXZ 0041e9a0 f   lib_archive:gt_archiver.obj
 0001:0001da60       ?ListFiles@GT_TARArchiveLister@@UAEXXZ 0041ea60 f   lib_archive:gt_archiver.obj
 0001:0001db70       ?ListFiles@GT_YCArchiveLister@@UAEXXZ 0041eb70 f   lib_archive:gt_archiver.obj
 0001:0001dd10       ?ListFiles@GT_ZETArchiveLister@@UAEXXZ 0041ed10 f   lib_archive:gt_archiver.obj
 0001:0001dfe0       ?ListFiles@GT_ZIPArchiveLister@@UAEXXZ 0041efe0 f   lib_archive:gt_archiver.obj
 0001:0001e2b0       ?ListFiles@GT_ZOOArchiveLister@@UAEXXZ 0041f2b0 f   lib_archive:gt_archiver.obj
 0001:0001e470       ??1?$GT_Sequence@VPString@@@@UAE@XZ 0041f470 f i lib_archive:gt_archiver.obj
 0001:0001e4c0       ??_G?$GT_Sequence@VPString@@@@UAEPAXI@Z 0041f4c0 f i lib_archive:gt_archiver.obj
 0001:0001e4c0       ??_E?$GT_Sequence@VPString@@@@UAEPAXI@Z 0041f4c0 f i lib_archive:gt_archiver.obj
 0001:0001e520       ?addLast@?$GT_Sequence@VPString@@@@QAEXABVPString@@@Z 0041f520 f i lib_archive:gt_archiver.obj
 0001:0001e5a0       ??0?$GT_Entry@VPString@@@@QAE@PAV0@ABVPString@@0@Z 0041f5a0 f i lib_archive:gt_archiver.obj
 0001:0001e5d0       ??1?$GT_Entry@VPString@@@@QAE@XZ 0041f5d0 f i lib_archive:gt_archiver.obj
 0001:0001e5e0       _RtlUnwind@16              0041f5e0 f   kernel32:KERNEL32.dll
 0001:0001e5e6       _realloc                   0041f5e6 f   libc:realloc.obj
 0001:0001e886       __itoa                     0041f886 f   libc:xtoa.obj
 0001:0001e90f       __ltoa                     0041f90f f   libc:xtoa.obj
 0001:0001e939       _vsprintf                  0041f939 f   libc:vsprintf.obj
 0001:0001e98a       _clock                     0041f98a f   libc:clock.obj
 0001:0001e9cd       ___inittime                0041f9cd f   libc:clock.obj
 0001:0001ea02       _vfprintf                  0041fa02 f   libc:vfprintf.obj
 0001:0001ea33       __onexit                   0041fa33 f   libc:onexit.obj
 0001:0001eaa0       _atexit                    0041faa0 f   libc:onexit.obj
 0001:0001eab2       ___onexitinit              0041fab2 f   libc:onexit.obj
 0001:0001eae1       _fputs                     0041fae1 f   libc:fputs.obj
 0001:0001eb24       ??2@YAPAXI@Z               0041fb24 f   libc:new.obj
 0001:0001eb32       __fsopen                   0041fb32 f   libc:fopen.obj
 0001:0001eb52       _fopen                     0041fb52 f   libc:fopen.obj
 0001:0001eb65       _fgets                     0041fb65 f   libc:fgets.obj
 0001:0001ebc0       _strrchr                   0041fbc0 f   libc:strrchr.obj
 0001:0001ebe7       _strerror                  0041fbe7 f   libc:strerror.obj
 0001:0001ec13       __open                     0041fc13 f   libc:open.obj
 0001:0001ec2a       __sopen                    0041fc2a f   libc:open.obj
 0001:0001eee3       __filelength               0041fee3 f   libc:flength.obj
 0001:0001ef5b       _setvbuf                   0041ff5b f   libc:setvbuf.obj
 0001:0001effc       __read                     0041fffc f   libc:read.obj
 0001:0001f1f2       _fread                     004201f2 f   libc:fread.obj
 0001:0001f2da       _fseek                     004202da f   libc:fseek.obj
 0001:0001f366       ??1type_info@@UAE@XZ       00420366 f   libc:typinfo.obj
 0001:0001f37b       ??_Etype_info@@UAEPAXI@Z   0042037b f i libc:typinfo.obj
 0001:0001f37b       ??_Gtype_info@@UAEPAXI@Z   0042037b f i libc:typinfo.obj
 0001:0001f397       __CxxThrowException@8      00420397 f   libc:throw.obj
 0001:0001f3e0       _strnicmp                  004203e0 f   libc:strnicmp.obj
 0001:0001f3e0       __strnicmp                 004203e0 f   libc:strnicmp.obj
 0001:0001f490       __ftol                     00420490 f   libc:ftol.obj
 0001:0001f4c0       __stricmp                  004204c0 f   libc:stricmp.obj
 0001:0001f4c0       _stricmp                   004204c0 f   libc:stricmp.obj
 0001:0001f4c0       __strcmpi                  004204c0 f   libc:stricmp.obj
 0001:0001f54c       _atol                      0042054c f   libc:atox.obj
 0001:0001f5d7       ??_M@YGXPAXIHP6EX0@Z@Z     004205d7 f   libc:ehvecdtr.obj
 0001:0001f657       ?__ArrayUnwind@@YGXPAXIHP6EX0@Z@Z 00420657 f   libc:ehvecdtr.obj
 0001:0001f6b5       __purecall                 004206b5 f   libc:purevirt.obj
 0001:0001f6be       ??_L@YGXPAXIHP6EX0@Z1@Z    004206be f   libc:ehvecctr.obj
 0001:0001f740       __allmul                   00420740 f   libc:llmul.obj
 0001:0001f774       __msize                    00420774 f   libc:msize.obj
 0001:0001f7d5       _fwrite                    004207d5 f   libc:fwrite.obj
 0001:0001f8df       __openfile                 004208df f   libc:_open.obj
 0001:0001fa4f       __getstream                00420a4f f   libc:stream.obj
 0001:0001fac7       __filbuf                   00420ac7 f   libc:_filbuf.obj
 0001:0001fba0       __chsize                   00420ba0 f   libc:chsize.obj
 0001:0001fce6       _ftell                     00420ce6 f   libc:ftell.obj
 0001:0001fe3e       __setmode                  00420e3e f   libc:setmode.obj
 0001:0001fec0       ?p_StrOct2Dec@@YGJPADH@Z   00420ec0 f   plib:pheader.obj
 0001:0001ff80       ?p_Align@@YGXAAJH@Z        00420f80 f   plib:pheader.obj
 0001:0001ffa0       ?p_HexToLong@@YGJPBD@Z     00420fa0 f   plib:pheader.obj
 0001:00020190       ?p_atol@@YGJPBD@Z          00421190 f   plib:pheader.obj
 0001:000201c0       ?p_long2str@@YGPBDJ@Z      004211c0 f   plib:pheader.obj
 0001:000201e0       ?p_unicode2ansi@@YGXPBDPADH@Z 004211e0 f   plib:pheader.obj
 0001:00020220       ?p_LongSwapByte@@YGKK@Z    00421220 f   plib:pheader.obj
 0001:00020250       ?GetCurrentUserString@PRegistry@@SIHPBD0JPAD@Z 00421250 f   plib:pregistry.obj
 0001:000202c0       ?GetClassesRootString@PRegistry@@SIHPBD0JPAD@Z 004212c0 f   plib:pregistry.obj
 0001:00020330       ?GT_Error_ShowInternalError@@YGXPBD0H@Z 00421330 f   lib_gt:gt_error.obj
 0001:000203c0       ?Print@GT_Table@@QBEXXZ    004213c0 f   lib_gt:gt_outputtable.obj
 0001:00020680       ??0GT_DateTimeEntry@@QAE@XZ 00421680 f   lib_gt:gt_time.obj
 0001:000206a0       ?SetDOSTime@GT_DateTime@@QAEXJ@Z 004216a0 f   lib_gt:gt_time.obj
 0001:000206f0       ?SetWindowsTime@GT_DateTime@@QAEXN@Z 004216f0 f   lib_gt:gt_time.obj
 0001:00020780       ?SetUnixTime@GT_DateTime@@QAEXJ@Z 00421780 f   lib_gt:gt_time.obj
 0001:00020a60       ?DateToBuffer@GT_DateTime@@QAEXPADH@Z 00421a60 f   lib_gt:gt_time.obj
 0002:00000000       __imp__RegQueryValueExA@24 00423000     advapi32:ADVAPI32.dll
 0002:00000004       __imp__RegOpenKeyExA@20    00423004     advapi32:ADVAPI32.dll
 0002:00000008       __imp__RegCloseKey@4       00423008     advapi32:ADVAPI32.dll
 0002:0000000c       \177ADVAPI32_NULL_THUNK_DATA 0042300c     advapi32:ADVAPI32.dll
 0002:00000010       __imp__WinExec@8           00423010     kernel32:KERNEL32.dll
 0002:00000014       __imp__GetACP@0            00423014     kernel32:KERNEL32.dll
 0002:00000018       __imp__RtlUnwind@16        00423018     kernel32:KERNEL32.dll
 0002:0000001c       __imp__ReadConsoleInputA@16 0042301c     kernel32:KERNEL32.dll
 0002:00000020       __imp__SetConsoleMode@8    00423020     kernel32:KERNEL32.dll
 0002:00000024       __imp__GetConsoleMode@8    00423024     kernel32:KERNEL32.dll
 0002:00000028       __imp__GetCommandLineA@0   00423028     kernel32:KERNEL32.dll
 0002:0000002c       __imp__GetVersion@0        0042302c     kernel32:KERNEL32.dll
 0002:00000030       __imp__ExitProcess@4       00423030     kernel32:KERNEL32.dll
 0002:00000034       __imp__SetHandleCount@4    00423034     kernel32:KERNEL32.dll
 0002:00000038       __imp__GetStdHandle@4      00423038     kernel32:KERNEL32.dll
 0002:0000003c       __imp__GetFileType@4       0042303c     kernel32:KERNEL32.dll
 0002:00000040       __imp__GetStartupInfoA@4   00423040     kernel32:KERNEL32.dll
 0002:00000044       __imp__HeapAlloc@12        00423044     kernel32:KERNEL32.dll
 0002:00000048       __imp__TerminateProcess@8  00423048     kernel32:KERNEL32.dll
 0002:0000004c       __imp__GetCurrentProcess@0 0042304c     kernel32:KERNEL32.dll
 0002:00000050       __imp__GetProcAddress@8    00423050     kernel32:KERNEL32.dll
 0002:00000054       __imp__GetModuleHandleA@4  00423054     kernel32:KERNEL32.dll
 0002:00000058       __imp__HeapFree@12         00423058     kernel32:KERNEL32.dll
 0002:0000005c       __imp__CreateFileA@28      0042305c     kernel32:KERNEL32.dll
 0002:00000060       __imp__CloseHandle@4       00423060     kernel32:KERNEL32.dll
 0002:00000064       __imp__UnhandledExceptionFilter@4 00423064     kernel32:KERNEL32.dll
 0002:00000068       __imp__GetModuleFileNameA@12 00423068     kernel32:KERNEL32.dll
 0002:0000006c       __imp__FreeEnvironmentStringsA@4 0042306c     kernel32:KERNEL32.dll
 0002:00000070       __imp__FreeEnvironmentStringsW@4 00423070     kernel32:KERNEL32.dll
 0002:00000074       __imp__WideCharToMultiByte@32 00423074     kernel32:KERNEL32.dll
 0002:00000078       __imp__GetEnvironmentStrings@0 00423078     kernel32:KERNEL32.dll
 0002:0000007c       __imp__GetEnvironmentStringsW@0 0042307c     kernel32:KERNEL32.dll
 0002:00000080       __imp__GetEnvironmentVariableA@12 00423080     kernel32:KERNEL32.dll
 0002:00000084       __imp__GetVersionExA@4     00423084     kernel32:KERNEL32.dll
 0002:00000088       __imp__HeapDestroy@4       00423088     kernel32:KERNEL32.dll
 0002:0000008c       __imp__HeapCreate@12       0042308c     kernel32:KERNEL32.dll
 0002:00000090       __imp__VirtualFree@12      00423090     kernel32:KERNEL32.dll
 0002:00000094       __imp__WriteFile@20        00423094     kernel32:KERNEL32.dll
 0002:00000098       __imp__GetLastError@0      00423098     kernel32:KERNEL32.dll
 0002:0000009c       __imp__SetFilePointer@16   0042309c     kernel32:KERNEL32.dll
 0002:000000a0       __imp__VirtualAlloc@16     004230a0     kernel32:KERNEL32.dll
 0002:000000a4       __imp__HeapReAlloc@16      004230a4     kernel32:KERNEL32.dll
 0002:000000a8       __imp__IsBadWritePtr@8     004230a8     kernel32:KERNEL32.dll
 0002:000000ac       __imp__FlushFileBuffers@4  004230ac     kernel32:KERNEL32.dll
 0002:000000b0       __imp__SetUnhandledExceptionFilter@4 004230b0     kernel32:KERNEL32.dll
 0002:000000b4       __imp__IsBadReadPtr@8      004230b4     kernel32:KERNEL32.dll
 0002:000000b8       __imp__IsBadCodePtr@4      004230b8     kernel32:KERNEL32.dll
 0002:000000bc       __imp__GetCPInfo@8         004230bc     kernel32:KERNEL32.dll
 0002:000000c0       __imp__SetConsoleCtrlHandler@8 004230c0     kernel32:KERNEL32.dll
 0002:000000c4       __imp__GetOEMCP@0          004230c4     kernel32:KERNEL32.dll
 0002:000000c8       __imp__LoadLibraryA@4      004230c8     kernel32:KERNEL32.dll
 0002:000000cc       __imp__SetStdHandle@8      004230cc     kernel32:KERNEL32.dll
 0002:000000d0       __imp__MultiByteToWideChar@24 004230d0     kernel32:KERNEL32.dll
 0002:000000d4       __imp__GetStringTypeA@20   004230d4     kernel32:KERNEL32.dll
 0002:000000d8       __imp__GetStringTypeW@16   004230d8     kernel32:KERNEL32.dll
 0002:000000dc       __imp__LCMapStringA@24     004230dc     kernel32:KERNEL32.dll
 0002:000000e0       __imp__LCMapStringW@24     004230e0     kernel32:KERNEL32.dll
 0002:000000e4       __imp__SetConsoleTextAttribute@8 004230e4     kernel32:KERNEL32.dll
 0002:000000e8       __imp__GetConsoleScreenBufferInfo@8 004230e8     kernel32:KERNEL32.dll
 0002:000000ec       __imp__LocalFree@4         004230ec     kernel32:KERNEL32.dll
 0002:000000f0       __imp__OutputDebugStringA@4 004230f0     kernel32:KERNEL32.dll
 0002:000000f4       __imp__FormatMessageA@28   004230f4     kernel32:KERNEL32.dll
 0002:000000f8       __imp__FindClose@4         004230f8     kernel32:KERNEL32.dll
 0002:000000fc       __imp__FindFirstFileA@8    004230fc     kernel32:KERNEL32.dll
 0002:00000100       __imp__FindNextFileA@8     00423100     kernel32:KERNEL32.dll
 0002:00000104       __imp__GetFileAttributesA@4 00423104     kernel32:KERNEL32.dll
 0002:00000108       __imp__GetConsoleTitleA@8  00423108     kernel32:KERNEL32.dll
 0002:0000010c       __imp__SetConsoleTitleA@4  0042310c     kernel32:KERNEL32.dll
 0002:00000110       __imp__SetEndOfFile@4      00423110     kernel32:KERNEL32.dll
 0002:00000114       __imp__HeapSize@12         00423114     kernel32:KERNEL32.dll
 0002:00000118       __imp__FileTimeToDosDateTime@12 00423118     kernel32:KERNEL32.dll
 0002:0000011c       __imp__ReadFile@20         0042311c     kernel32:KERNEL32.dll
 0002:00000120       __imp__GetSystemTimeAsFileTime@4 00423120     kernel32:KERNEL32.dll
 0002:00000124       __imp__RaiseException@16   00423124     kernel32:KERNEL32.dll
 0002:00000128       \177KERNEL32_NULL_THUNK_DATA 00423128     kernel32:KERNEL32.dll
 0002:0000012c       __imp__SendMessageA@16     0042312c     user32:USER32.dll
 0002:00000130       __imp__GetWindowTextA@12   00423130     user32:USER32.dll
 0002:00000134       __imp__EnumWindows@8       00423134     user32:USER32.dll
 0002:00000138       \177USER32_NULL_THUNK_DATA 00423138     user32:USER32.dll
 0002:0000013c       __imp__GT_EXT_EXE_Count    0042313c     gtdata:gtdata.dll
 0002:00000140       __imp__GT_FixedName_Index  00423140     gtdata:gtdata.dll
 0002:00000144       __imp__GT_FixedName_Count  00423144     gtdata:gtdata.dll
 0002:00000148       __imp__GT_FixedExtension_Index 00423148     gtdata:gtdata.dll
 0002:0000014c       __imp__GT_EXE_2J_Count     0042314c     gtdata:gtdata.dll
 0002:00000150       __imp__GT_EXT_EXE_Index    00423150     gtdata:gtdata.dll
 0002:00000154       __imp__GT_EXE_1LJ_Count    00423154     gtdata:gtdata.dll
 0002:00000158       __imp__GT_PE_0J_Count      00423158     gtdata:gtdata.dll
 0002:0000015c       __imp__GT_EXT_PE_Index     0042315c     gtdata:gtdata.dll
 0002:00000160       __imp__GT_EXT_PE_Count     00423160     gtdata:gtdata.dll
 0002:00000164       __imp__GT_NE_0J_Index      00423164     gtdata:gtdata.dll
 0002:00000168       __imp__GT_NE_0J_Count      00423168     gtdata:gtdata.dll
 0002:0000016c       __imp__GT_EXE_1LJ_Index    0042316c     gtdata:gtdata.dll
 0002:00000170       __imp__GT_EXE_1J_Index     00423170     gtdata:gtdata.dll
 0002:00000174       __imp__GT_EXE_2J_Index     00423174     gtdata:gtdata.dll
 0002:00000178       __imp__GT_EXE_1J_Count     00423178     gtdata:gtdata.dll
 0002:0000017c       __imp__GT_C2E_Count        0042317c     gtdata:gtdata.dll
 0002:00000180       __imp__GT_EXE_0J_Count     00423180     gtdata:gtdata.dll
 0002:00000184       __imp__GT_EXE_0J_Index     00423184     gtdata:gtdata.dll
 0002:00000188       __imp__GT_FixedExtension_Count 00423188     gtdata:gtdata.dll
 0002:0000018c       __imp__GT_C2E_Index        0042318c     gtdata:gtdata.dll
 0002:00000190       __imp__GT_PE_0J_Index      00423190     gtdata:gtdata.dll
 0002:00000194       \177gtdata_NULL_THUNK_DATA 00423194     gtdata:gtdata.dll
 0002:00000198       ??_C@_04KIIB@0?425?$AA@    00423198     gt_main.obj
 0002:000001a0       ??_C@_0BL@JEF@Found?5no?5matches?5for?5?8?$CFs?8?6?$AA@ 004231a0     gt_main.obj
 0002:000001bc       ??_7PHeap@@6B@             004231bc     gt_main.obj
 0002:000001c8       ??_C@_00A@?$AA@            004231c8     gt_main.obj
 0002:000001cc       ??_C@_0CF@EGM@GT?52000?5?9?5?$FLPHaX?$FN?5?9?5?$CF?41f?$CF?$CF?5identi@ 004231cc     gt_main.obj
 0002:000001f8       __real@4059000000000000    004231f8     gt_main.obj
 0002:00000200       ??_C@_0BB@ELPP@GT?52000?5?9?5?$FLPHaX?$FN?$AA@ 00423200     gt_main.obj
 0002:00000218       ??_C@_0GE@DHNA@?6GT?52000?5?$CFs?5?$CI?$CFs?5?$CFs?$CJ?5?$CIc?$CJ?51999?9200@ 00423218     gt_main.obj
 0002:0000027c       ??_C@_0M@PNEJ@Jan?528?52001?$AA@ 0042327c     gt_main.obj
 0002:00000288       ??_C@_08CAOL@15?327?327?$AA@ 00423288     gt_main.obj
 0002:00000294       ??_C@_0BB@LJJ@phax?$EAwriteme?4com?$AA@ 00423294     gt_main.obj
 0002:000002a8       ??_C@_0CL@HICP@Failed?5to?5read?5the?5config?5file?5?9@ 004232a8     gt_main.obj
 0002:000002d4       ??_C@_0BN@EECO@Could?5not?5set?5error?5handler?6?$AA@ 004232d4     gt_main.obj
 0002:000002f4       ??_C@_0BB@FELB@Initializing?5?4?4?4?$AA@ 004232f4     gt_main.obj
 0002:00000308       ??_C@_0BI@DBIG@?$DMCtrl?$DO?$CL?$DMC?$DO?5was?5pressed?6?$AA@ 00423308     gt_main.obj
 0002:00000320       ??_C@_0BM@JAII@?$DMCtrl?$DO?$CL?$DMBreak?$DO?5was?5pressed?6?$AA@ 00423320     gt_main.obj
 0002:0000033c       ??_C@_0BO@CLE@?$DMCtrl?$DO?$CL?$DMXYZ?$DO?5was?5pressed?5?$CFld?6?$AA@ 0042333c     gt_main.obj
 0002:0000035c       ??_C@_02JJJH@?6?6?$AA@     0042335c     gt_main.obj
 0002:00000360       ??_C@_0BP@JFFE@?5?$CI0x?$CF02X?50x?$CF02X?50x?$CF02X?50x?$CF02X?$CJ?$AA@ 00423360     gt_main.obj
 0002:00000380       ??_C@_0BH@IGOB@Unknown?5?$CFs?5file?5format?$AA@ 00423380     gt_main.obj
 0002:00000398       ??_C@_06FNBK@binary?$AA@   00423398     gt_main.obj
 0002:000003a0       ??_C@_04LHJL@text?$AA@     004233a0     gt_main.obj
 0002:000003a8       ??_7PString@@6B@           004233a8     gt_main.obj
 0002:000003b4       ??_C@_0DC@GNGP@Files?5with?5a?5size?5of?50?5bytes?5can@ 004233b4     gt_main.obj
 0002:000003e8       ??_7PExtendedHeap@@6B@     004233e8     gt_main.obj
 0002:000003f4       ??_C@_0BN@HMJK@Found?5no?5matches?5for?5?8?$CFs?$CFs?8?6?$AA@ 004233f4     gt_main.obj
 0002:00000414       ??_7PFileSearch@@6B@       00423414     gt_main.obj
 0002:00000418       ??_C@_0BE@FLPL@?5?5?1?$CF?910s?5?9?5?$CFs?5?9?5?$CFs?6?$AA@ 00423418     gt_main.obj
 0002:0000042c       ??_C@_0BI@MNCA@do?5extended?5WPG?5listing?$AA@ 0042342c     gt_main.obj
 0002:00000444       ??_C@_04CEDN@zwpg?$AA@     00423444     gt_main.obj
 0002:0000044c       ??_C@_0CL@DBCM@list?5a?5maximum?5of?5X?5entries?5of?5a@ 0042344c     gt_main.obj
 0002:00000478       ??_C@_06MFKC@zriffX?$AA@   00423478     gt_main.obj
 0002:00000480       ??_C@_0DG@DGBF@send?5a?5WM_COPYDATA?5msg?5to?5the?5sp@ 00423480     gt_main.obj
 0002:000004b8       ??_C@_06JLCK@zhwndX?$AA@   004234b8     gt_main.obj
 0002:000004c0       ??_C@_0CD@CEMG@wait?5for?5a?5key?5after?5the?5last?5fi@ 004234c0     gt_main.obj
 0002:000004e4       ??_C@_02HMFJ@wf?$AA@       004234e4     gt_main.obj
 0002:000004e8       ??_C@_0CF@BEFI@search?5in?5subdirectories?5?$CIrecurs@ 004234e8     gt_main.obj
 0002:00000510       ??_C@_04CPII@0?401?$AA@    00423510     gt_main.obj
 0002:00000518       ??_C@_01KBOJ@s?$AA@        00423518     gt_main.obj
 0002:0000051c       ??_C@_0BK@HCMM@do?5not?5list?5unknown?5files?$AA@ 0042351c     gt_main.obj
 0002:00000538       ??_C@_02ODMH@nu?$AA@       00423538     gt_main.obj
 0002:0000053c       ??_C@_0CC@DIJG@do?5not?5scan?5for?5special?5filename@ 0042353c     gt_main.obj
 0002:00000560       ??_C@_0L@OKEA@noscanname?$AA@ 00423560     gt_main.obj
 0002:0000056c       ??_C@_0CI@DMMK@do?5not?5scan?5for?5special?5file?5ext@ 0042356c     gt_main.obj
 0002:00000594       ??_C@_09FDLF@noscanext?$AA@ 00423594     gt_main.obj
 0002:000005a0       ??_C@_0FB@PPFD@Syntax?3?5?$CFs?5filemask?5?$FLfilemask?5?$FL?4@ 004235a0     gt_main.obj
 0002:000005f4       ??_C@_0BG@NCGH@do?5not?5show?5copyright?$AA@ 004235f4     gt_main.obj
 0002:0000060c       ??_C@_04CBG@0?424?$AA@     0042360c     gt_main.obj
 0002:00000614       ??_C@_06CAIJ@nologo?$AA@   00423614     gt_main.obj
 0002:0000061c       ??_C@_0BF@KPJA@do?5not?5output?5footer?$AA@ 0042361c     gt_main.obj
 0002:00000634       ??_C@_08EALB@nofooter?$AA@ 00423634     gt_main.obj
 0002:00000640       ??_C@_0BC@LEHI@do?5not?5use?5colors?$AA@ 00423640     gt_main.obj
 0002:00000654       ??_C@_07BAA@nocolor?$AA@   00423654     gt_main.obj
 0002:0000065c       ??_C@_0BO@DGPK@do?5not?5list?5files?5in?5archives?$AA@ 0042365c     gt_main.obj
 0002:0000067c       ??_C@_06BMKO@noarcs?$AA@   0042367c     gt_main.obj
 0002:00000684       ??_C@_0BN@ILMM@do?5not?5list?5identified?5files?$AA@ 00423684     gt_main.obj
 0002:000006a4       ??_C@_02LEFD@ni?$AA@       004236a4     gt_main.obj
 0002:000006a8       ??_C@_0DF@GKJN@do?5not?5read?5the?5config?5file?5in?5t@ 004236a8     gt_main.obj
 0002:000006e0       ??_C@_03PGHB@ncl?$AA@      004236e0     gt_main.obj
 0002:000006e4       ??_C@_0DB@PFCA@do?5not?5read?5the?5config?5file?5in?5t@ 004236e4     gt_main.obj
 0002:00000718       ??_C@_03FNHA@ncg?$AA@      00423718     gt_main.obj
 0002:0000071c       ??_C@_0BI@ONAB@use?5listmode?5for?5output?$AA@ 0042371c     gt_main.obj
 0002:00000734       ??_C@_04CPED@0?404?$AA@    00423734     gt_main.obj
 0002:0000073c       ??_C@_01JME@l?$AA@         0042373c     gt_main.obj
 0002:00000740       ??_C@_0CK@KDKJ@start?5gtui2?5and?5redirect?5the?5out@ 00423740     gt_main.obj
 0002:0000076c       ??_C@_05NNEE@gtui2?$AA@    0042376c     gt_main.obj
 0002:00000774       ??_C@_0DA@FMKG@set?5the?5fault?5tolerance?5in?5PE?5co@ 00423774     gt_main.obj
 0002:000007a4       ??_C@_04MCDC@ftpX?$AA@     004237a4     gt_main.obj
 0002:000007ac       ??_C@_0DA@PELD@set?5the?5fault?5tolerance?5in?5NE?5co@ 004237ac     gt_main.obj
 0002:000007dc       ??_C@_04GKDA@ftnX?$AA@     004237dc     gt_main.obj
 0002:000007e4       ??_C@_0DB@IKCN@set?5the?5fault?5tolerance?5in?5EXE?5c@ 004237e4     gt_main.obj
 0002:00000818       ??_C@_04OEJL@fteX?$AA@     00423818     gt_main.obj
 0002:00000820       ??_C@_0CG@BKDH@list?5VersionInfo?5resources?5of?5PE@ 00423820     gt_main.obj
 0002:00000848       ??_C@_05HDJN@pever?$AA@    00423848     gt_main.obj
 0002:00000850       ??_C@_0BO@MAMJ@list?5segment?5table?5of?5PE?5EXEs?$AA@ 00423850     gt_main.obj
 0002:00000870       ??_C@_06CGG@pesect?$AA@    00423870     gt_main.obj
 0002:00000878       ??_C@_0CK@JEEO@list?5resources?5of?5PE?5EXEs?5and?5al@ 00423878     gt_main.obj
 0002:000008a4       ??_C@_06BHCP@peres2?$AA@   004238a4     gt_main.obj
 0002:000008ac       ??_C@_0BK@LHEN@list?5resources?5of?5PE?5EXEs?$AA@ 004238ac     gt_main.obj
 0002:000008c8       ??_C@_05JBFA@peres?$AA@    004238c8     gt_main.obj
 0002:000008d0       ??_C@_0CM@GBON@list?5imported?5DLLs?5and?5functions@ 004238d0     gt_main.obj
 0002:000008fc       ??_C@_06KMCC@peimp2?$AA@   004238fc     gt_main.obj
 0002:00000904       ??_C@_0BO@GEIC@list?5imported?5DLLs?5of?5PE?5EXEs?$AA@ 00423904     gt_main.obj
 0002:00000924       ??_C@_05JMFJ@peimp?$AA@    00423924     gt_main.obj
 0002:0000092c       ??_C@_0BI@FKIM@list?5exports?5of?5PE?5EXEs?$AA@ 0042392c     gt_main.obj
 0002:00000944       ??_C@_05GCBP@peexp?$AA@    00423944     gt_main.obj
 0002:0000094c       ??_C@_0BP@HPCJ@list?5data?5directory?5of?5PE?5EXEs?$AA@ 0042394c     gt_main.obj
 0002:0000096c       ??_C@_04OPE@pedd?$AA@      0042396c     gt_main.obj
 0002:00000974       ??_C@_0CF@OBCK@substitution?5for?5?1epd?0?5?1eps?5and?5@ 00423974     gt_main.obj
 0002:0000099c       ??_C@_05ENNC@peall?$AA@    0042399c     gt_main.obj
 0002:000009a4       ??_C@_0BI@DJNC@show?5caching?5statistics?$AA@ 004239a4     gt_main.obj
 0002:000009bc       ??_C@_0L@OBJN@cachestats?$AA@ 004239bc     gt_main.obj
 0002:000009c8       ??_C@_0CE@DLLG@set?5the?5maximum?5buffersize?5in?5by@ 004239c8     gt_main.obj
 0002:000009ec       ??_C@_08JCBB@bufsizeX?$AA@ 004239ec     gt_main.obj
 0002:000009f8       ??_C@_0BJ@OGHD@use?5buffered?5IO?5?$CIslower?$CJ?$AA@ 004239f8     gt_main.obj
 0002:00000a14       ??_C@_03EJCG@bio?$AA@      00423a14     gt_main.obj
 0002:00000a18       ??_C@_0BG@KBFA@show?5this?5help?5screen?$AA@ 00423a18     gt_main.obj
 0002:00000a30       ??_C@_04NADB@0?402?$AA@    00423a30     gt_main.obj
 0002:00000a38       ??_C@_01PKMN@?$DP?$AA@     00423a38     gt_main.obj
 0002:00000a3c       ??_C@_04HKKG@0?403?$AA@    00423a3c     gt_main.obj
 0002:00000a44       ??_C@_04MGFA@0?417?$AA@    00423a44     gt_main.obj
 0002:00000a4c       ??_C@_04CNN@0?421?$AA@     00423a4c     gt_main.obj
 0002:00000a54       ??_C@_04KIEK@0?420?$AA@    00423a54     gt_main.obj
 0002:00000a5c       ??_C@_04GMMH@0?416?$AA@    00423a5c     gt_main.obj
 0002:00000a64       ??_C@_04GMAM@0?413?$AA@    00423a64     gt_main.obj
 0002:00000a6c       ??_C@_0CA@BGGE@Press?5any?5key?5to?5end?5GT?52000?5?5?5?$AA@ 00423a6c     gt_main.obj
 0002:00000a90       ??_C@_0HB@CJOF@?6Caching?5statistics?3?6?5?5?$CFld?5total@ 00423a90     gt_main.obj
 0002:00000b04       ??_C@_0BB@PNEN@flag?3?5no?5footer?6?$AA@ 00423b04     gt_main.obj
 0002:00000b18       ??_C@_0BN@CKHL@?5of?5which?5?$CFd?5may?5be?5damaged?6?$AA@ 00423b18     gt_main.obj
 0002:00000b38       ??_C@_0BD@EMCJ@Found?5?$CFd?5archive?$CFs?$AA@ 00423b38     gt_main.obj
 0002:00000b4c       ??_C@_0CF@OOBH@flag?3?5nTotalNonFlagsParameters?5?$DM@ 00423b4c     gt_main.obj
 0002:00000b74       ??_C@_0DN@LCMF@?6Time?5needed?3?5?$CF?42f?5seconds?5?$CI?$CF?43f@ 00423b74     gt_main.obj
 0002:00000bb8       __real@3f50624dd2f1a9fc    00423bb8     gt_main.obj
 0002:00000bc0       ??_C@_01BJG@?6?$AA@        00423bc0     gt_main.obj
 0002:00000bc4       ??_C@_0BO@MHBO@?5and?5identified?5?$CFd?5?$CI?$DN?5?$CF?43f?$CF?$CF?$CJ?$AA@ 00423bc4     gt_main.obj
 0002:00000be4       ??_C@_0BA@JNEF@Found?5?$CFd?5file?$CFs?$AA@ 00423be4     gt_main.obj
 0002:00000bf4       ??_C@_0DF@OALF@?6?9?9?9?9?9?9?9?9?9?9?9?9?9?9?9?9?9?9?9?9?9?9?9?9?9?9?9?9?9?9?9@ 00423bf4     gt_main.obj
 0002:00000c2c       ??_C@_0DH@NCPP@Cannot?5start?5GTUI2?3?5The?5specifie@ 00423c2c     gt_gtui_starter.obj
 0002:00000c64       ??_C@_0DH@OAPO@Cannot?5start?5GTUI2?3?5The?5specifie@ 00423c64     gt_gtui_starter.obj
 0002:00000ca0       ??_C@_0FH@DIJM@Cannot?5start?5GTUI2?3?5The?5?4exe?5fil@ 00423ca0     gt_gtui_starter.obj
 0002:00000cf8       ??_C@_0DP@MHMH@Cannot?5start?5GTUI2?3?5The?5system?5i@ 00423cf8     gt_gtui_starter.obj
 0002:00000d38       ??_C@_09EFGC@gtui2?4exe?$AA@ 00423d38     gt_gtui_starter.obj
 0002:00000d44       ??_C@_0CA@KBGL@Failed?5to?5clear?5window?5of?5GTUI?6?$AA@ 00423d44     gt_gtui_starter.obj
 0002:00000d74       ___lookuptable             00423d74     libc:output.obj
 0002:00000dd0       ??_C@_1O@POHA@?$AA?$CI?$AAn?$AAu?$AAl?$AAl?$AA?$CJ?$AA?$AA@ 00423dd0     libc:output.obj
 0002:00000de0       ??_C@_06ONKE@?$CInull?$CJ?$AA@ 00423de0     libc:output.obj
 0002:00000e60       __real@8@3fff8000000000000000 00423e60     libc:testfdiv.obj
 0002:00000e68       __real@8@4015800bf60000000000 00423e68     libc:testfdiv.obj
 0002:00000e70       __real@8@4014bffffc0000000000 00423e70     libc:testfdiv.obj
 0002:00000e78       ??_C@_0BK@JEGK@IsProcessorFeaturePresent?$AA@ 00423e78     libc:testfdiv.obj
 0002:00000e94       ??_C@_08OBID@KERNEL32?$AA@ 00423e94     libc:testfdiv.obj
 0002:00000ea0       __real@8@00000000000000000000 00423ea0     libc:cvt.obj
 0002:00000ea8       ??_C@_05OFLO@e?$CL000?$AA@ 00423ea8     libc:cvt.obj
 0002:00000eb0       ??_C@_06MICP@CONIN$?$AA@   00423eb0     libc:initcon.obj
 0002:00000eb8       ??_C@_0BH@PHHF@__GLOBAL_HEAP_SELECTED?$AA@ 00423eb8     libc:heapinit.obj
 0002:00000ed0       ??_C@_0BF@BBGL@__MSVCRT_HEAP_SELECT?$AA@ 00423ed0     libc:heapinit.obj
 0002:00000ee8       ??_C@_0P@GGKG@runtime?5error?5?$AA@ 00423ee8     libc:crt0msg.obj
 0002:00000ef8       ??_C@_02PIMC@?$AN?6?$AA@   00423ef8     libc:crt0msg.obj
 0002:00000efc       ??_C@_0O@DELO@TLOSS?5error?$AN?6?$AA@ 00423efc     libc:crt0msg.obj
 0002:00000f0c       ??_C@_0N@OMLL@SING?5error?$AN?6?$AA@ 00423f0c     libc:crt0msg.obj
 0002:00000f1c       ??_C@_0P@OJAK@DOMAIN?5error?$AN?6?$AA@ 00423f1c     libc:crt0msg.obj
 0002:00000f2c       ??_C@_0CF@EANP@R6028?$AN?6?9?5unable?5to?5initialize?5he@ 00423f2c     libc:crt0msg.obj
 0002:00000f54       ??_C@_0DF@ECGN@R6027?$AN?6?9?5not?5enough?5space?5for?5lo@ 00423f54     libc:crt0msg.obj
 0002:00000f8c       ??_C@_0DF@FKAC@R6026?$AN?6?9?5not?5enough?5space?5for?5st@ 00423f8c     libc:crt0msg.obj
 0002:00000fc4       ??_C@_0CG@DPMN@R6025?$AN?6?9?5pure?5virtual?5function?5c@ 00423fc4     libc:crt0msg.obj
 0002:00000fec       ??_C@_0DF@CKIP@R6024?$AN?6?9?5not?5enough?5space?5for?5_o@ 00423fec     libc:crt0msg.obj
 0002:00001024       ??_C@_0CJ@GGOE@R6019?$AN?6?9?5unable?5to?5open?5console?5@ 00424024     libc:crt0msg.obj
 0002:00001050       ??_C@_0CB@LBOB@R6018?$AN?6?9?5unexpected?5heap?5error?$AN?6@ 00424050     libc:crt0msg.obj
 0002:00001074       ??_C@_0CN@FPEG@R6017?$AN?6?9?5unexpected?5multithread?5@ 00424074     libc:crt0msg.obj
 0002:000010a4       ??_C@_0CM@OBIC@R6016?$AN?6?9?5not?5enough?5space?5for?5th@ 004240a4     libc:crt0msg.obj
 0002:000010d0       ??_C@_0CB@HPAL@?$AN?6abnormal?5program?5termination?$AN?6@ 004240d0     libc:crt0msg.obj
 0002:000010f4       ??_C@_0CM@JOOB@R6009?$AN?6?9?5not?5enough?5space?5for?5en@ 004240f4     libc:crt0msg.obj
 0002:00001120       ??_C@_0CK@OIBL@R6008?$AN?6?9?5not?5enough?5space?5for?5ar@ 00424120     libc:crt0msg.obj
 0002:0000114c       ??_C@_0CF@LKPB@R6002?$AN?6?9?5floating?5point?5not?5load@ 0042414c     libc:crt0msg.obj
 0002:00001174       ??_C@_0CF@JPDF@Microsoft?5Visual?5C?$CL?$CL?5Runtime?5Lib@ 00424174     libc:crt0msg.obj
 0002:0000119c       ??_C@_0BK@DEOK@Runtime?5Error?$CB?6?6Program?3?5?$AA@ 0042419c     libc:crt0msg.obj
 0002:000011b8       ??_C@_03NAME@?4?4?4?$AA@   004241b8     libc:crt0msg.obj
 0002:000011bc       ??_C@_0BH@NNCD@?$DMprogram?5name?5unknown?$DO?$AA@ 004241bc     libc:crt0msg.obj
 0002:000011d4       ??_C@_0BD@NJFP@GetLastActivePopup?$AA@ 004241d4     libc:crtmbox.obj
 0002:000011e8       ??_C@_0BA@GILI@GetActiveWindow?$AA@ 004241e8     libc:crtmbox.obj
 0002:000011f8       ??_C@_0M@PKCK@MessageBoxA?$AA@ 004241f8     libc:crtmbox.obj
 0002:00001204       ??_C@_0L@HKL@user32?4dll?$AA@ 00424204     libc:crtmbox.obj
 0002:00001210       ??_C@_01A@?$AA?$AA@        00424210     libc:a_str.obj
 0002:00001214       ??_C@_13A@?$AA?$AA?$AA?$AA@ 00424214     libc:a_str.obj
 0002:00001240       ??_C@_06PAPI@1?$CDQNAN?$AA@ 00424240     libc:x10fout.obj
 0002:00001248       ??_C@_05BGNL@1?$CDINF?$AA@ 00424248     libc:x10fout.obj
 0002:00001250       ??_C@_05EDPF@1?$CDIND?$AA@ 00424250     libc:x10fout.obj
 0002:00001258       ??_C@_06LKFM@1?$CDSNAN?$AA@ 00424258     libc:x10fout.obj
 0002:00001260       ??_C@_03MAMC@?$CFlf?$AA@   00424260     plib:pstring.obj
 0002:00001264       ??_C@_03MCHI@?$CFlx?$AA@   00424264     plib:pstring.obj
 0002:00001268       ??_C@_0N@MJEF@?$CFs?5?$CI?$CFld?$CJ?3?6?$CFs?$AA@ 00424268     plib:perror.obj
 0002:00001278       ??_C@_0BI@GIAN@A?5Windows?5error?5occured?$AA@ 00424278     plib:perror.obj
 0002:00001290       ??_7?$GT_Sequence@VGT_OutputMember@@@@6B@ 00424290     lib_gt:gt_output.obj
 0002:00001294       ??_7Cursor@?$GT_Sequence@VGT_OutputMember@@@@6B@ 00424294     lib_gt:gt_output.obj
 0002:000012a4       ??_C@_0DB@FJFB@Failed?5to?5send?5data?5to?5specified@ 004242a4     lib_gt:gt_output.obj
 0002:000012d8       ??_C@_0CE@MOAB@Internal?5buffer?5overflow?5at?5?$CFs?3?5@ 004242d8     lib_gt:gt_output.obj
 0002:000012fc       ??_C@_0O@HFKC@gt_output?4cxx?$AA@ 004242fc     lib_gt:gt_output.obj
 0002:0000130c       ??_C@_0BD@GOEG@?5?$FLoffline?5content?$FN?$AA@ 0042430c     lib_gt:gt_output.obj
 0002:00001320       ??_C@_0O@JNID@?5?$FLcompressed?$FN?$AA@ 00424320     lib_gt:gt_output.obj
 0002:00001330       ??_C@_0DJ@HOOH@?6Error?3?5Failed?5to?5retrieve?5attri@ 00424330     lib_gt:gt_output.obj
 0002:0000136c       ??_C@_0DB@ODPA@?9?5next?5level?5at?5?$CFld?1?$CF08Xh?5for?5?$CFl@ 0042436c     lib_gt:gt_output.obj
 0002:000013a0       ??_C@_0BB@IIEM@?9?5?$CFs?5?$CI?$CFld?5bytes?$CJ?$AA@ 004243a0     lib_gt:gt_output.obj
 0002:000013b4       ??_C@_04EKKG@?9?5?$CFs?$AA@ 004243b4     lib_gt:gt_output.obj
 0002:000013bc       ??_C@_05KKAP@zriff?$AA@    004243bc     lib_gt:gt_commandlineflags.obj
 0002:000013c4       ??_C@_05CCMI@zhwnd?$AA@    004243c4     lib_gt:gt_commandlineflags.obj
 0002:000013cc       ??_C@_03DKKM@ftp?$AA@      004243cc     lib_gt:gt_commandlineflags.obj
 0002:000013d0       ??_C@_03DIBG@ftn?$AA@      004243d0     lib_gt:gt_commandlineflags.obj
 0002:000013d4       ??_C@_03JDBH@fte?$AA@      004243d4     lib_gt:gt_commandlineflags.obj
 0002:000013d8       ??_C@_07BJIB@bufsize?$AA@  004243d8     lib_gt:gt_commandlineflags.obj
 0002:000013e0       ??_C@_02NDMB@?5?9?$AA@     004243e0     lib_gt:gt_commandlineflags.obj
 0002:000013e4       ??_C@_0L@FBPO@gt2000?4cfg?$AA@ 004243e4     lib_gt:gt_configfile.obj
 0002:000013f0       ??_C@_02MMAH@rt?$AA@       004243f0     lib_gt:gt_configfile.obj
 0002:000013f8       ??_C@_0EB@KFFC@Software?2Microsoft?2Windows?2Curre@ 004243f8     lib_gt:gt_configfile.obj
 0002:0000143c       ??_C@_07EELO@AppData?$AA@  0042443c     lib_gt:gt_configfile.obj
 0002:00001444       ??_7GT_ConfigFile@@6B@     00424444     lib_gt:gt_configfile.obj
 0002:00001448       ??_C@_0CH@IEPI@Error?5in?5the?5configuration?5file?5@ 00424448     lib_gt:gt_configfile.obj
 0002:00001470       ??_C@_0BO@FGHO@?5?5line?5?$CFd?3?5Invalid?5character?6?$AA@ 00424470     lib_gt:gt_configfile.obj
 0002:00001490       ??_C@_0CH@CNLE@?5?5Config?5file?5?$CIline?5?$CFd?$CJ?3?5Syntax?5@ 00424490     lib_gt:gt_configfile.obj
 0002:000014b8       ??_C@_0CA@GCJF@?5?5line?5?$CFd?3?5Unknown?5switch?5?8?$CFs?8?6?$AA@ 004244b8     lib_gt:gt_configfile.obj
 0002:000014d8       ??_7GT_FileBuffer@@6B@     004244d8     lib_gt:gt_filebuffer.obj
 0002:000014dc       ??_C@_0BI@BHFI@Error?5opening?5?8?$CFs?8?3?5?$CFs?6?$AA@ 004244dc     lib_gt:gt_filebuffer.obj
 0002:000014f4       ??_C@_0CO@PLNL@Failed?5to?5set?5the?5buffer?5of?5the?5@ 004244f4     lib_gt:gt_filebuffer.obj
 0002:00001524       ??_C@_02JKAF@rb?$AA@       00424524     lib_gt:gt_filebuffer.obj
 0002:00001528       ??_C@_0BC@ODN@gt_filebuffer?4cxx?$AA@ 00424528     lib_gt:gt_filebuffer.obj
 0002:0000153c       ??_C@_0CF@NLFE@Trying?5to?5set?5the?5filepointer?5to@ 0042453c     lib_gt:gt_filebuffer.obj
 0002:00001564       ??_C@_0CK@MCDP@Trying?5to?5increase?5the?5filepoint@ 00424564     lib_gt:gt_filebuffer.obj
 0002:00001590       ??_C@_0BJ@MNAG@Failed?5to?5read?5?$CFld?5bytes?$AA@ 00424590     lib_gt:gt_filebuffer.obj
 0002:000015ac       ??_C@_0CE@NLFP@Trying?5to?5read?5?$CFld?5bytes?5before?5@ 004245ac     lib_gt:gt_filebuffer.obj
 0002:000015d0       ??_C@_0CC@GDI@Trying?5to?5read?5?$CFld?5bytes?5over?5EO@ 004245d0     lib_gt:gt_filebuffer.obj
 0002:000015f4       ??_C@_0CE@GKHA@Failed?5to?5read?5C?5like?5string?5at?5@ 004245f4     lib_gt:gt_filebuffer.obj
 0002:00001618       ??_C@_0CJ@IJPD@Failed?5to?5read?5Pascal?5like?5strin@ 00424618     lib_gt:gt_filebuffer.obj
 0002:00001644       ??_C@_0BL@OOLK@GetConsoleScreenBufferInfo?$AA@ 00424644     lib_gt:gt_winconsole.obj
 0002:00001660       ??_C@_0BG@MBLK@stderr?5is?5redirected?6?$AA@ 00424660     lib_gt:gt_winconsole.obj
 0002:00001678       ??_C@_0BF@DINF@stdin?5is?5redirected?6?$AA@ 00424678     lib_gt:gt_winconsole.obj
 0002:00001690       ??_C@_0BG@ENJJ@stdout?5is?5redirected?6?$AA@ 00424690     lib_gt:gt_winconsole.obj
 0002:000016a8       ??_7GT_WindowsConsole@@6B@ 004246a8     lib_gt:gt_winconsole.obj
 0002:000016ac       ??_C@_0BK@FOFF@SetConsoleTextAttribute?52?$AA@ 004246ac     lib_gt:gt_winconsole.obj
 0002:000016c8       ??_C@_0BK@KBOM@SetConsoleTextAttribute?51?$AA@ 004246c8     lib_gt:gt_winconsole.obj
 0002:000016e4       ??_C@_0BP@KOHB@Exception?5in?5?$CFs?5line?5?$CFd?3?6?5?5?$CFs?6?$AA@ 004246e4     lib_gt:gt_exceptions.obj
 0002:00001748       ??_C@_0CL@BEBG@?5?5Header?5is?5now?5too?5large?4?5Skipp@ 00424748     lib_data:gt_exe_analyzer.obj
 0002:00001774       ??_C@_0DD@PGCG@?5?5?5?5Calculated?5new?5size?5of?5heade@ 00424774     lib_data:gt_exe_analyzer.obj
 0002:000017a8       ??_C@_0BN@LJIJ@?5?5Size?5of?5header?5is?5too?5?$CFs?4?6?$AA@ 004247a8     lib_data:gt_exe_analyzer.obj
 0002:000017c8       ??_C@_05PMKF@large?$AA@    004247c8     lib_data:gt_exe_analyzer.obj
 0002:000017d0       ??_C@_05IHCN@small?$AA@    004247d0     lib_data:gt_exe_analyzer.obj
 0002:000017d8       ??_C@_0CF@JHHA@?5?5Found?5COM2EXE?5converter?5from?5?$CC@ 004247d8     lib_data:gt_exe_analyzer.obj
 0002:00001800       ??_C@_0DD@OPMH@?5?5Found?5packer?5?8?$CFs?8?$DL?5version?5in?5@ 00424800     lib_data:gt_exe_analyzer.obj
 0002:00001834       ??_C@_0BF@LKMC@?5?$FLextra?5compression?$FN?$AA@ 00424834     lib_data:gt_exe_analyzer.obj
 0002:0000184c       ??_C@_0BH@BOAD@?5?5Found?5packer?5?8?$CFs?$CFs?8?6?$AA@ 0042484c     lib_data:gt_exe_analyzer.obj
 0002:00001864       ??_C@_0L@NJBM@?$DP?$DP?$DP?5?$CI3?400?$CJ?$AA@ 00424864     lib_data:gt_exe_analyzer.obj
 0002:00001870       ??_C@_0N@FBPJ@3?400?13?401?5PR?$AA@ 00424870     lib_data:gt_exe_analyzer.obj
 0002:00001880       ??_C@_0BF@KHII@?5?5Found?5packer?5?8?$CFs?8?6?$AA@ 00424880     lib_data:gt_exe_analyzer.obj
 0002:00001898       ??_C@_0O@CBFC@?$DP?$DP?$DP?5?$CI3?40x?5PR?$CJ?$AA@ 00424898     lib_data:gt_exe_analyzer.obj
 0002:000018a8       ??_C@_08HPLM@3?405?a?5PR?$AA@ 004248a8     lib_data:gt_exe_analyzer.obj
 0002:000018b4       ??_C@_07JLAG@3?404?5PR?$AA@ 004248b4     lib_data:gt_exe_analyzer.obj
 0002:000018bc       ??_C@_07GBLI@3?403?5PR?$AA@ 004248bc     lib_data:gt_exe_analyzer.obj
 0002:000018c4       ??_C@_07EEOK@3?402?5PR?$AA@ 004248c4     lib_data:gt_exe_analyzer.obj
 0002:000018cc       ??_C@_0N@GIHE@?$DP?$DP?$DP?5?$CI3?40x?5P?$CJ?$AA@ 004248cc     lib_data:gt_exe_analyzer.obj
 0002:000018dc       ??_C@_08CKJC@3?405?a?5PP?$AA@ 004248dc     lib_data:gt_exe_analyzer.obj
 0002:000018e8       ??_C@_08CKFJ@3?405?a?5PU?$AA@ 004248e8     lib_data:gt_exe_analyzer.obj
 0002:000018f4       ??_C@_07CCMN@3?405?a?5P?$AA@ 004248f4     lib_data:gt_exe_analyzer.obj
 0002:000018fc       ??_C@_07MOCI@3?404?5PP?$AA@ 004248fc     lib_data:gt_exe_analyzer.obj
 0002:00001904       ??_C@_07MOOD@3?404?5PU?$AA@ 00424904     lib_data:gt_exe_analyzer.obj
 0002:0000190c       ??_C@_06JINN@3?404?5P?$AA@ 0042490c     lib_data:gt_exe_analyzer.obj
 0002:00001914       ??_C@_07DEJG@3?403?5PP?$AA@ 00424914     lib_data:gt_exe_analyzer.obj
 0002:0000191c       ??_C@_07DEFN@3?403?5PU?$AA@ 0042491c     lib_data:gt_exe_analyzer.obj
 0002:00001924       ??_C@_06CGLM@3?403?5P?$AA@ 00424924     lib_data:gt_exe_analyzer.obj
 0002:0000192c       ??_C@_07BBAP@3?402?5PU?$AA@ 0042492c     lib_data:gt_exe_analyzer.obj
 0002:00001934       ??_C@_06HEKK@3?402?5P?$AA@ 00424934     lib_data:gt_exe_analyzer.obj
 0002:0000193c       ??_C@_07HOPJ@3?401?5PU?$AA@ 0042493c     lib_data:gt_exe_analyzer.obj
 0002:00001944       ??_C@_06ICJB@3?401?5P?$AA@ 00424944     lib_data:gt_exe_analyzer.obj
 0002:0000194c       ??_C@_07FLKL@3?400?5PU?$AA@ 0042494c     lib_data:gt_exe_analyzer.obj
 0002:00001954       ??_C@_06NAIH@3?400?5P?$AA@ 00424954     lib_data:gt_exe_analyzer.obj
 0002:0000195c       ??_C@_0BO@HJGD@?5?5Found?5linker?5?8TLink?5?$CFd?4?$CFd?8?6?$AA@ 0042495c     lib_data:gt_exe_analyzer.obj
 0002:0000197c       ??_C@_0DI@CCJP@Found?5encryptor?5?8Trap?51?42x?8?5?$CIdec@ 0042497c     lib_data:gt_exe_analyzer.obj
 0002:000019b4       ??_C@_04IMNP@?$LEJ?M?$CB?$AA@ 004249b4     lib_data:gt_exe_analyzer.obj
 0002:000019bc       ??_C@_0DJ@CKCN@?5?5Found?5packer?5?8SEA?9AXE?5?$CFs?8?6?5?5?5?5@ 004249bc     lib_data:gt_exe_analyzer.obj
 0002:000019f8       ??_C@_08EJOK@SEA?9AXE?5?$AA@ 004249f8     lib_data:gt_exe_analyzer.obj
 0002:00001a04       ??_C@_0BN@JBPG@?5?5Found?5packer?5?8EXEPack?5?$CFs?8?6?$AA@ 00424a04     lib_data:gt_exe_analyzer.obj
 0002:00001a24       ??_C@_03NMFM@?$DP?$DP?$DP?$AA@ 00424a24     lib_data:gt_exe_analyzer.obj
 0002:00001a28       ??_C@_04CMAE@ID_2?$AA@     00424a28     lib_data:gt_exe_analyzer.obj
 0002:00001a30       ??_C@_04OPOO@4?403?$AA@    00424a30     lib_data:gt_exe_analyzer.obj
 0002:00001a38       ??_C@_04BAFH@4?400?$AA@    00424a38     lib_data:gt_exe_analyzer.obj
 0002:00001a40       ??_C@_0CD@PFNF@?5?5Found?5packer?5?8PKLite?5?$CFd?4?$CF02d?8?$CF@ 00424a40     lib_data:gt_exe_analyzer.obj
 0002:00001a64       ??_C@_0CC@GGMG@?5?5Found?5code?5but?5no?5ID?5of?5PKLite@ 00424a64     lib_data:gt_exe_analyzer.obj
 0002:00001a88       ??_C@_04JNNN@3?465?$AA@    00424a88     lib_data:gt_exe_analyzer.obj
 0002:00001a90       ??_C@_0CC@ODKL@?5?5Found?5ID?5but?5no?5code?5of?5PKLite@ 00424a90     lib_data:gt_exe_analyzer.obj
 0002:00001ab4       ??_C@_0BJ@CPEB@DOS?5COM?5executable?5file?6?$AA@ 00424ab4     lib_data:gt_exe_analyzer.obj
 0002:00001ad0       ??_C@_0BJ@MOBF@?5?5No?5relocation?5entries?6?$AA@ 00424ad0     lib_data:gt_exe_analyzer.obj
 0002:00001aec       ??_C@_0CB@CKNG@?5?5Relocation?5offset?4?4?3?5?$CFd?1?$CF08Xh?6@ 00424aec     lib_data:gt_exe_analyzer.obj
 0002:00001b10       ??_C@_0BL@OABH@?5?5Relocation?5entries?4?3?5?$CFd?6?$AA@ 00424b10     lib_data:gt_exe_analyzer.obj
 0002:00001b2c       ??_C@_0CB@HPEN@?5?5Overlay?5size?4?4?4?4?4?4?4?3?5?$CFd?1?$CF08Xh?6@ 00424b2c     lib_data:gt_exe_analyzer.obj
 0002:00001b50       ??_C@_0CB@GKDB@?5?5Entrypoint?4?4?4?4?4?4?4?4?4?3?5?$CFd?1?$CF08Xh?6@ 00424b50     lib_data:gt_exe_analyzer.obj
 0002:00001b74       ??_C@_0CH@BPCI@?5?5?5?5File?5size?5in?5header?5is?5inval@ 00424b74     lib_data:gt_exe_analyzer.obj
 0002:00001b9c       ??_C@_0CH@HPJE@?5?5File?5size?5in?5header?3?5?$CFd?1?$CF08Xh?5@ 00424b9c     lib_data:gt_exe_analyzer.obj
 0002:00001bc4       ??_C@_0CH@IKIH@?5?5Size?5of?5header?4?4?4?4?4?3?5?$CFd?1?$CF04Xh?5@ 00424bc4     lib_data:gt_exe_analyzer.obj
 0002:00001bec       ??_C@_0BN@NIMI@?5?5Found?5reverse?5?8ZM?8?5header?6?$AA@ 00424bec     lib_data:gt_exe_analyzer.obj
 0002:00001c0c       ??_C@_0BF@DPJE@Is?5a?5DOS?5executable?6?$AA@ 00424c0c     lib_data:gt_exe_analyzer.obj
 0002:00001c24       ??_C@_0CI@MMIK@Is?5a?5DOS?5executable?5at?5offset?5?$CFd@ 00424c24     lib_data:gt_exe_analyzer.obj
 0002:00001c4c       ??_C@_0CB@HNCK@Postscript?5data?5follows?5?$CIType?52?$CJ@ 00424c4c     lib_data:gt_generic.obj
 0002:00001c70       ??_C@_0BH@GPLK@Graphics?5text?5?$CIType?53?$CJ?$AA@ 00424c70     lib_data:gt_generic.obj
 0002:00001c88       ??_C@_0BL@KGLN@Start?5of?5WPG?5data?5?$CIType?52?$CJ?$AA@ 00424c88     lib_data:gt_generic.obj
 0002:00001ca4       ??_C@_0BH@HJBA@Graphics?5text?5?$CIType?52?$CJ?$AA@ 00424ca4     lib_data:gt_generic.obj
 0002:00001cbc       ??_C@_0BB@NKIL@PlanPerfect?5data?$AA@ 00424cbc     lib_data:gt_generic.obj
 0002:00001cd0       ??_C@_0M@KJD@Start?5chart?$AA@ 00424cd0     lib_data:gt_generic.obj
 0002:00001cdc       ??_C@_0N@FKJG@Start?5figure?$AA@ 00424cdc     lib_data:gt_generic.obj
 0002:00001cec       ??_C@_0BA@FCGD@Bitmap?5?$CIType?52?$CJ?$AA@ 00424cec     lib_data:gt_generic.obj
 0002:00001cfc       ??_C@_0BA@GPFD@Curved?5polyline?$AA@ 00424cfc     lib_data:gt_generic.obj
 0002:00001d0c       ??_C@_0BC@ELDN@Output?5attributes?$AA@ 00424d0c     lib_data:gt_generic.obj
 0002:00001d20       ??_C@_0CB@EGNF@Postscript?5data?5follows?5?$CIType?51?$CJ@ 00424d20     lib_data:gt_generic.obj
 0002:00001d44       ??_C@_0BA@DEFF@End?5of?5WPG?5data?$AA@ 00424d44     lib_data:gt_generic.obj
 0002:00001d54       ??_C@_0BL@JNEC@Start?5of?5WPG?5data?5?$CIType?51?$CJ?$AA@ 00424d54     lib_data:gt_generic.obj
 0002:00001d70       ??_C@_09NMHK@Color?5map?$AA@ 00424d70     lib_data:gt_generic.obj
 0002:00001d7c       ??_C@_0BJ@KFLD@Graphics?5text?5attributes?$AA@ 00424d7c     lib_data:gt_generic.obj
 0002:00001d98       ??_C@_0BH@ECOP@Graphics?5text?5?$CIType?51?$CJ?$AA@ 00424d98     lib_data:gt_generic.obj
 0002:00001db0       ??_C@_0BA@GJJM@Bitmap?5?$CIType?51?$CJ?$AA@ 00424db0     lib_data:gt_generic.obj
 0002:00001dc0       ??_C@_08GKAE@Reserved?$AA@ 00424dc0     lib_data:gt_generic.obj
 0002:00001dcc       ??_C@_07FEDM@Ellipse?$AA@  00424dcc     lib_data:gt_generic.obj
 0002:00001dd4       ??_C@_07HDDJ@Polygon?$AA@  00424dd4     lib_data:gt_generic.obj
 0002:00001ddc       ??_C@_09DIIL@Rectangle?$AA@ 00424ddc     lib_data:gt_generic.obj
 0002:00001de8       ??_C@_08MEIJ@Polyline?$AA@ 00424de8     lib_data:gt_generic.obj
 0002:00001df4       ??_C@_04KEDG@Line?$AA@     00424df4     lib_data:gt_generic.obj
 0002:00001dfc       ??_C@_0L@EGML@Polymarker?$AA@ 00424dfc     lib_data:gt_generic.obj
 0002:00001e08       ??_C@_0BC@CKFA@Marker?5attributes?$AA@ 00424e08     lib_data:gt_generic.obj
 0002:00001e1c       ??_C@_0BA@MNDM@Line?5attributes?$AA@ 00424e1c     lib_data:gt_generic.obj
 0002:00001e2c       ??_C@_0BA@PNBL@Fill?5attributes?$AA@ 00424e2c     lib_data:gt_generic.obj
 0002:00001e3c       ??_C@_09OOJM@?$DMunknown?$DO?$AA@ 00424e3c     lib_data:gt_generic.obj
 0002:00001e48       ??_C@_0BA@NJEG@PostScript?5font?$AA@ 00424e48     lib_data:gt_generic.obj
 0002:00001e58       ??_C@_0BH@PNH@hyphenation?5lex?5module?$AA@ 00424e58     lib_data:gt_generic.obj
 0002:00001e70       ??_C@_0BG@LAOA@graphics?5driver?5?$CIWPD?$CJ?$AA@ 00424e70     lib_data:gt_generic.obj
 0002:00001e88       ??_C@_0BF@MBEE@macro?5resource?5?$CIMRS?$CJ?$AA@ 00424e88     lib_data:gt_generic.obj
 0002:00001ea0       ??_C@_0BI@NJDO@hyphenation?5data?5module?$AA@ 00424ea0     lib_data:gt_generic.obj
 0002:00001eb8       ??_C@_0BI@BGDG@hyphenation?5code?5module?$AA@ 00424eb8     lib_data:gt_generic.obj
 0002:00001ed0       ??_C@_0O@KNFA@graphic?5?$CIWPG?$CJ?$AA@ 00424ed0     lib_data:gt_generic.obj
 0002:00001ee0       ??_C@_0BB@FPKD@overlay?5?$CIWP?4FIL?$CJ?$AA@ 00424ee0     lib_data:gt_generic.obj
 0002:00001ef4       ??_C@_0BH@KPOK@display?5resource?5?$CIDRS?$CJ?$AA@ 00424ef4     lib_data:gt_generic.obj
 0002:00001f0c       ??_C@_0BH@PHAG@printer?5resource?5?$CIALL?$CJ?$AA@ 00424f0c     lib_data:gt_generic.obj
 0002:00001f24       ??_C@_0BD@CGEE@prefix?5information?$AA@ 00424f24     lib_data:gt_generic.obj
 0002:00001f38       ??_C@_05IFI@setup?$AA@     00424f38     lib_data:gt_generic.obj
 0002:00001f40       ??_C@_0BH@GEHF@printer?5resource?5?$CIPRS?$CJ?$AA@ 00424f40     lib_data:gt_generic.obj
 0002:00001f58       ??_C@_0N@LFIG@column?5block?$AA@ 00424f58     lib_data:gt_generic.obj
 0002:00001f68       ??_C@_0BC@CFKO@rectangular?5block?$AA@ 00424f68     lib_data:gt_generic.obj
 0002:00001f7c       ??_C@_05PNCJ@block?$AA@    00424f7c     lib_data:gt_generic.obj
 0002:00001f84       ??_C@_09GOPH@thesaurus?$AA@ 00424f84     lib_data:gt_generic.obj
 0002:00001f90       ??_C@_0L@EACF@dictionary?$AA@ 00424f90     lib_data:gt_generic.obj
 0002:00001f9c       ??_C@_08FJIM@document?$AA@ 00424f9c     lib_data:gt_generic.obj
 0002:00001fa8       ??_C@_0BE@IFFD@keyboard?5definition?$AA@ 00424fa8     lib_data:gt_generic.obj
 0002:00001fbc       ??_C@_04MHDN@help?$AA@     00424fbc     lib_data:gt_generic.obj
 0002:00001fc4       ??_C@_05IMD@macro?$AA@     00424fc4     lib_data:gt_generic.obj
 0002:00002024       ??_C@_0BK@PCLN@?5?$FLfailed?5to?5init?5buffer?$CB?$FN?$AA@ 00425024     lib_data:gt_generic.obj
 0002:00002040       ??_C@_09OCMC@unknown?5?$CI?$AA@ 00425040     lib_data:gt_generic.obj
 0002:0000204c       ??_C@_07JKKM@picture?$AA@  0042504c     lib_data:gt_generic.obj
 0002:00002054       ??_C@_09MHFD@numerical?$AA@ 00425054     lib_data:gt_generic.obj
 0002:00002060       ??_C@_04MJKA@memo?$AA@     00425060     lib_data:gt_generic.obj
 0002:00002068       ??_C@_07ONJH@logical?$AA@  00425068     lib_data:gt_generic.obj
 0002:00002070       ??_C@_05PIME@float?$AA@    00425070     lib_data:gt_generic.obj
 0002:00002078       ??_C@_04EGPJ@date?$AA@     00425078     lib_data:gt_generic.obj
 0002:00002080       ??_C@_09IMPP@character?$AA@ 00425080     lib_data:gt_generic.obj
 0002:0000208c       ??_C@_03IBOB@?$CF3d?$AA@   0042508c     lib_data:gt_generic.obj
 0002:00002090       ??_C@_03DMDD@?5?9?5?$AA@   00425090     lib_data:gt_generic.obj
 0002:00002094       ??_C@_04GPCF@?5?5?5?5?$AA@ 00425094     lib_data:gt_generic.obj
 0002:0000209c       ??_C@_0P@PBDO@?5bytes?1record?6?$AA@ 0042509c     lib_data:gt_generic.obj
 0002:000020ac       ??_C@_09EHKG@?5fields?3?5?$AA@ 004250ac     lib_data:gt_generic.obj
 0002:000020b8       ??_C@_0P@GFPG@?5records?5with?5?$AA@ 004250b8     lib_data:gt_generic.obj
 0002:000020c8       ??_C@_03LDCK@?6?5?5?$AA@   004250c8     lib_data:gt_generic.obj
 0002:000020cc       ??_C@_0BB@LNPJ@dBase?5datafile?5v?$AA@ 004250cc     lib_data:gt_generic.obj
 0002:000020e0       ??_C@_06CGGK@?$DMBODY?$DO?$AA@ 004250e0     lib_data:gt_generic.obj
 0002:000020e8       ??_C@_06IOIP@?$DMHEAD?$DO?$AA@ 004250e8     lib_data:gt_generic.obj
 0002:000020f0       ??_C@_06JDEH@?$DMHTML?$DO?$AA@ 004250f0     lib_data:gt_generic.obj
 0002:000020f8       ??_C@_0M@CDFM@?6?5?5Title?3?5?8?$AA@ 004250f8     lib_data:gt_generic.obj
 0002:00002104       ??_C@_08DKIC@?$DM?1TITLE?$DO?$AA@ 00425104     lib_data:gt_generic.obj
 0002:00002110       ??_C@_07EGJD@?$DMTITLE?$DO?$AA@ 00425110     lib_data:gt_generic.obj
 0002:00002118       ??_C@_0CH@JFFH@Hyper?5Text?5Markup?5Language?5?$CIHTML@ 00425118     lib_data:gt_generic.obj
 0002:00002140       ??_C@_0O@PGIC@?5entries?5?4?4?4?6?$AA@ 00425140     lib_data:gt_generic.obj
 0002:00002150       ??_C@_0BK@KDLP@Truncating?5listing?5after?5?$AA@ 00425150     lib_data:gt_generic.obj
 0002:0000216c       ??_C@_07OKKO@?5bytes?$CJ?$AA@ 0042516c     lib_data:gt_generic.obj
 0002:00002174       ??_C@_06OLJP@Data?5?$CI?$AA@ 00425174     lib_data:gt_generic.obj
 0002:0000217c       ??_C@_02KIEA@?$HM?5?$AA@   0042517c     lib_data:gt_generic.obj
 0002:00002180       ??_C@_02IHLC@?5?5?$AA@     00425180     lib_data:gt_generic.obj
 0002:00002184       ??_C@_02HFBK@?3?5?$AA@     00425184     lib_data:gt_generic.obj
 0002:00002188       ??_C@_0BP@IPLM@?6?5?5Playtime?3?5?$CFd?3?$CF02i?0?$CF02i?5min?6?$AA@ 00425188     lib_data:gt_generic.obj
 0002:000021a8       __real@3f91111111111111    004251a8     lib_data:gt_generic.obj
 0002:000021b0       __real@404e000000000000    004251b0     lib_data:gt_generic.obj
 0002:000021b8       ??_C@_0BB@LNNC@?5?$CIerror?5in?5data?$CJ?$AA@ 004251b8     lib_data:gt_generic.obj
 0002:000021cc       ??_C@_0BK@PKKJ@?5?$CIdecompressed?3?5?$CFd?5bytes?$CJ?$AA@ 004251cc     lib_data:gt_generic.obj
 0002:000021e8       __real@4010000000000000    004251e8     lib_data:gt_generic.obj
 0002:000021f0       ??_C@_0M@KANG@?6?5?5Bits?3?5?$CFd?$AA@ 004251f0     lib_data:gt_generic.obj
 0002:000021fc       ??_C@_08MBAJ@?$CFd?5bytes?$AA@ 004251fc     lib_data:gt_generic.obj
 0002:00002208       ??_C@_0CC@JFKA@?$CFd?5bytes?5?$CIdecompressed?3?5?$CFd?5bytes@ 00425208     lib_data:gt_generic.obj
 0002:00002230       __real@4030000000000000    00425230     lib_data:gt_generic.obj
 0002:00002238       ??_C@_0BO@MAEM@found?5error?5in?5data?5structure?$AA@ 00425238     lib_data:gt_generic.obj
 0002:00002258       ??_C@_0DC@JHOH@?6?5?5Channels?3?5?$CFd?6?5?5Sampling?5rate?3@ 00425258     lib_data:gt_generic.obj
 0002:0000228c       ??_C@_0BF@NBCO@?5?$CIcompressed?5?9?5type?5?$AA@ 0042528c     lib_data:gt_generic.obj
 0002:000022a4       ??_C@_0BG@CBFD@Wave?5music?5file?5?$CIWAV?$CJ?$AA@ 004252a4     lib_data:gt_generic.obj
 0002:000022bc       ??_C@_0BD@ODBC@EMU?5SoundFont?5bank?$AA@ 004252bc     lib_data:gt_generic.obj
 0002:000022d0       ??_C@_0BN@IJKN@RIFF?5File?3?5unknown?5type?5?8?$CFs?8?$AA@ 004252d0     lib_data:gt_generic.obj
 0002:000022f0       ??_C@_0CB@CMII@Corel?5Draw?59?5template?5file?5?$CICDT?$CJ@ 004252f0     lib_data:gt_generic.obj
 0002:00002314       ??_C@_0CB@LMML@Corel?5Draw?58?5template?5file?5?$CICDT?$CJ@ 00425314     lib_data:gt_generic.obj
 0002:00002338       ??_C@_0CA@BAJA@Corel?5Draw?59?5graphic?5file?5?$CICDR?$CJ?$AA@ 00425338     lib_data:gt_generic.obj
 0002:00002358       ??_C@_0CA@FDGO@Corel?5Draw?58?5graphic?5file?5?$CICDR?$CJ?$AA@ 00425358     lib_data:gt_generic.obj
 0002:00002378       ??_C@_0CA@IHGE@Corel?5Draw?57?5graphic?5file?5?$CICDR?$CJ?$AA@ 00425378     lib_data:gt_generic.obj
 0002:00002398       ??_C@_0CB@MPBP@Corel?5Draw?57?5template?5file?5?$CICDT?$CJ@ 00425398     lib_data:gt_generic.obj
 0002:000023bc       ??_C@_0CB@FPFM@Corel?5Draw?56?5template?5file?5?$CICDT?$CJ@ 004253bc     lib_data:gt_generic.obj
 0002:000023e0       ??_C@_0BG@HEKL@Animation?5Video?5?$CIAVI?$CJ?$AA@ 004253e0     lib_data:gt_generic.obj
 0002:000023f8       ??_C@_0CA@MEJK@Corel?5Draw?56?5graphic?5file?5?$CICDR?$CJ?$AA@ 004253f8     lib_data:gt_generic.obj
 0002:00002418       ??_C@_06EKIF@GLOBAL?$AA@   00425418     lib_data:gt_generic.obj
 0002:00002420       ??_C@_07JBJC@PROCESS?$AA@  00425420     lib_data:gt_generic.obj
 0002:00002428       ??_C@_08FBFM@BUSINESS?$AA@ 00425428     lib_data:gt_generic.obj
 0002:00002434       ??_C@_0M@BPFA@ENVIRONMENT?$AA@ 00425434     lib_data:gt_generic.obj
 0002:00002440       ??_C@_07CNDI@WORKING?$AA@  00425440     lib_data:gt_generic.obj
 0002:00002448       ??_C@_06JPM@PUBLIC?$AA@    00425448     lib_data:gt_generic.obj
 0002:00002450       ??_C@_09MEAK@PROTECTED?$AA@ 00425450     lib_data:gt_generic.obj
 0002:0000245c       ??_C@_07MLHL@PRIVATE?$AA@  0042545c     lib_data:gt_generic.obj
 0002:00002464       ??_C@_07PAAE@PACKAGE?$AA@  00425464     lib_data:gt_generic.obj
 0002:0000246c       ??_C@_06JJAJ@IMPORT?$AA@   0042546c     lib_data:gt_generic.obj
 0002:00002474       ??_C@_07GCLH@TYPEDEF?$AA@  00425474     lib_data:gt_generic.obj
 0002:0000247c       ??_C@_06MFEF@STRUCT?$AA@   0042547c     lib_data:gt_generic.obj
 0002:00002484       ??_C@_06MJBA@STATIC?$AA@   00425484     lib_data:gt_generic.obj
 0002:0000248c       ??_C@_06EJFL@EXTERN?$AA@   0042548c     lib_data:gt_generic.obj
 0002:00002494       ??_C@_04GAEI@ENUM?$AA@     00425494     lib_data:gt_generic.obj
 0002:0000249c       ??_C@_05NNCA@CLASS?$AA@    0042549c     lib_data:gt_generic.obj
 0002:000024a4       ??_C@_07MOPA@?$CDPRAGMA?$AA@ 004254a4     lib_data:gt_generic.obj
 0002:000024ac       ??_C@_05IFJE@?$CDLINE?$AA@ 004254ac     lib_data:gt_generic.obj
 0002:000024b4       ??_C@_09KEHJ@?$CD?5INCLUDE?$AA@ 004254b4     lib_data:gt_generic.obj
 0002:000024c0       ??_C@_08HDNH@?$CDINCLUDE?$AA@ 004254c0     lib_data:gt_generic.obj
 0002:000024cc       ??_C@_08EGCI@?$CD?5IFNDEF?$AA@ 004254cc     lib_data:gt_generic.obj
 0002:000024d8       ??_C@_07OIDH@?$CDIFNDEF?$AA@ 004254d8     lib_data:gt_generic.obj
 0002:000024e0       ??_C@_07EHNL@?$CD?5IFDEF?$AA@ 004254e0     lib_data:gt_generic.obj
 0002:000024e8       ??_C@_06FIDB@?$CDIFDEF?$AA@ 004254e8     lib_data:gt_generic.obj
 0002:000024f0       ??_C@_04NEII@?$CD?5IF?$AA@ 004254f0     lib_data:gt_generic.obj
 0002:000024f8       ??_C@_03OHAH@?$CDIF?$AA@   004254f8     lib_data:gt_generic.obj
 0002:000024fc       ??_C@_08BJBN@?$CD?5DEFINE?$AA@ 004254fc     lib_data:gt_generic.obj
 0002:00002508       ??_C@_07LHAC@?$CDDEFINE?$AA@ 00425508     lib_data:gt_generic.obj
 0002:00002510       ??_C@_07LHEB@DOMAINS?$AA@  00425510     lib_data:gt_generic.obj
 0002:00002518       ??_C@_0L@HDNC@PREDICATES?$AA@ 00425518     lib_data:gt_generic.obj
 0002:00002524       ??_C@_0CK@KKAK@Error?3?5Failed?5to?5init?5source?5ana@ 00425524     lib_data:gt_generic.obj
 0002:00002550       ??_C@_0P@LLLH@IMPLEMENTATION?$AA@ 00425550     lib_data:gt_generic.obj
 0002:00002560       ??_C@_0L@GBDC@DEFINITION?$AA@ 00425560     lib_data:gt_generic.obj
 0002:0000256c       ??_C@_06PBLN@MODULE?$AA@   0042556c     lib_data:gt_generic.obj
 0002:00002574       ??_C@_03KNCG@VAR?$AA@      00425574     lib_data:gt_generic.obj
 0002:00002578       ??_C@_04PGOJ@USES?$AA@     00425578     lib_data:gt_generic.obj
 0002:00002580       ??_C@_04JHII@TYPE?$AA@     00425580     lib_data:gt_generic.obj
 0002:00002588       ??_C@_08JBAL@FUNCTION?$AA@ 00425588     lib_data:gt_generic.obj
 0002:00002594       ??_C@_09HPKL@PROCEDURE?$AA@ 00425594     lib_data:gt_generic.obj
 0002:000025a0       ??_C@_04OHGB@UNIT?$AA@     004255a0     lib_data:gt_generic.obj
 0002:000025a8       ??_C@_07PBFP@LIBRARY?$AA@  004255a8     lib_data:gt_generic.obj
 0002:000025b0       ??_C@_07NOJH@PROGRAM?$AA@  004255b0     lib_data:gt_generic.obj
 0002:000025b8       ??_C@_0CJ@MGOO@Error?3?5Failed?5to?5init?5source?5ana@ 004255b8     lib_data:gt_generic.obj
 0002:000025e4       ??_C@_0CF@NDAO@Error?3?5failed?5to?5read?5from?5the?5f@ 004255e4     lib_data:gt_generic.obj
 0002:0000260c       ??_C@_0P@HAGC@internal?5error?$AA@ 0042560c     lib_data:gt_generic.obj
 0002:0000261c       ??_C@_0P@GDAH@gt_generic?4cxx?$AA@ 0042561c     lib_data:gt_generic.obj
 0002:0000262c       ??_C@_02BIMI@?8?$CJ?$AA@   0042562c     lib_data:gt_generic.obj
 0002:00002630       ??_C@_0CL@JMMO@ADONIS?5export?5file?1library?5?$CIfirs@ 00425630     lib_data:gt_generic.obj
 0002:0000265c       ??_C@_0BH@NBAF@JavaScript?5source?5code?$AA@ 0042565c     lib_data:gt_generic.obj
 0002:00002674       ??_C@_0BB@GCPG@Java?5source?5code?$AA@ 00425674     lib_data:gt_generic.obj
 0002:00002688       ??_C@_0BC@JIG@C?1C?$CL?$CL?5source?5code?$AA@ 00425688     lib_data:gt_generic.obj
 0002:0000269c       ??_C@_0BD@GFLE@Prolog?5source?5code?$AA@ 0042569c     lib_data:gt_generic.obj
 0002:000026b0       ??_C@_0BN@FJIB@Modula?5implementation?5file?5?8?$AA@ 004256b0     lib_data:gt_generic.obj
 0002:000026d0       ??_C@_0BJ@ELHE@Modula?5definition?5file?5?8?$AA@ 004256d0     lib_data:gt_generic.obj
 0002:000026ec       ??_C@_0BB@HOCE@Modula?5program?5?8?$AA@ 004256ec     lib_data:gt_generic.obj
 0002:00002700       ??_C@_0BD@ENCJ@Pascal?5source?5code?$AA@ 00425700     lib_data:gt_generic.obj
 0002:00002714       ??_C@_0BC@PJDL@Pascal?5function?5?8?$AA@ 00425714     lib_data:gt_generic.obj
 0002:00002728       ??_C@_0BD@CFLG@Pascal?5procedure?5?8?$AA@ 00425728     lib_data:gt_generic.obj
 0002:0000273c       ??_C@_0O@LKDH@Pascal?5unit?5?8?$AA@ 0042573c     lib_data:gt_generic.obj
 0002:0000274c       ??_C@_0BB@IIEE@Pascal?5library?5?8?$AA@ 0042574c     lib_data:gt_generic.obj
 0002:00002760       ??_C@_0BB@GENI@Pascal?5program?5?8?$AA@ 00425760     lib_data:gt_generic.obj
 0002:00002774       ??_C@_0DG@IJFC@Error?3?5failed?5to?5read?5the?5name?5o@ 00425774     lib_data:gt_generic.obj
 0002:000027ac       ??_C@_02LFJB@?8?6?$AA@     004257ac     lib_data:gt_generic.obj
 0002:000027b0       ??_C@_0CN@CKBA@Error?3?5failed?5to?5init?5true?5type?5@ 004257b0     lib_data:gt_generic.obj
 0002:000027e0       ??_C@_0BA@LOFM@Truetype?5font?5?8?$AA@ 004257e0     lib_data:gt_generic.obj
 0002:000027f0       ??_C@_0BC@NNFD@BGI?5device?5driver?$AA@ 004257f0     lib_data:gt_generic.obj
 0002:00002804       ??_C@_04GMIF@Mono?$AA@     00425804     lib_data:gt_generic.obj
 0002:0000280c       ??_C@_0N@PLMC@Two?5channels?$AA@ 0042580c     lib_data:gt_generic.obj
 0002:0000281c       ??_C@_0N@EACB@Joint?5stereo?$AA@ 0042581c     lib_data:gt_generic.obj
 0002:0000282c       ??_C@_06MKLK@Stereo?$AA@   0042582c     lib_data:gt_generic.obj
 0002:00002834       ??_C@_02ELCB@no?$AA@       00425834     lib_data:gt_generic.obj
 0002:00002838       ??_C@_03LGKI@yes?$AA@      00425838     lib_data:gt_generic.obj
 0002:0000283c       ??_C@_0BN@CONN@?5KB?1sec?6?5?5Error?5protection?3?5?$AA@ 0042583c     lib_data:gt_generic.obj
 0002:0000285c       ??_C@_0BC@GCBH@?5file?6?5?5Bitrate?3?5?$AA@ 0042585c     lib_data:gt_generic.obj
 0002:00002870       ??_C@_07ELBP@?5layer?5?$AA@ 00425870     lib_data:gt_generic.obj
 0002:00002878       ??_C@_05CPJM@MPEG?5?$AA@   00425878     lib_data:gt_generic.obj
 0002:00002880       ??_C@_0BJ@EPON@Kodak?5PhotoCD?5image?5file?$AA@ 00425880     lib_data:gt_generic.obj
 0002:0000289c       ??_C@_07BOHK@PCD_IPI?$AA@  0042589c     lib_data:gt_generic.obj
 0002:000028a4       ??_C@_0CF@LNJI@DER?5encoded?5binary?5X?4509?5certifi@ 004258a4     lib_data:gt_generic.obj
 0002:000028cc       ??_C@_0CH@BCGN@?6JPG?5image?5?9?5SOFn?5segment?5is?5not@ 004258cc     lib_data:gt_generic.obj
 0002:000028f4       ??_C@_0BN@CMIB@JPG?5image?5?9?5found?5invalid?5ID?$AA@ 004258f4     lib_data:gt_generic.obj
 0002:00002914       ??_C@_0BD@DBLF@Truecolor?5?$CI32?5bit?$CJ?$AA@ 00425914     lib_data:gt_generic.obj
 0002:00002928       ??_C@_0BD@GCOA@Truecolor?5?$CI24?5bit?$CJ?$AA@ 00425928     lib_data:gt_generic.obj
 0002:0000293c       ??_C@_0L@PJGM@Greyscaled?$AA@ 0042593c     lib_data:gt_generic.obj
 0002:00002948       ??_C@_0L@NAB@JPG?5image?5?$AA@ 00425948     lib_data:gt_generic.obj
 0002:00002954       ??_C@_09IPNN@?5image?5?9?5?$AA@ 00425954     lib_data:gt_generic.obj
 0002:00002960       ??_C@_04JOMI@BMF?5?$AA@    00425960     lib_data:gt_generic.obj
 0002:00002968       ??_C@_08KAJH@PMWLite?5?$AA@ 00425968     lib_data:gt_generic.obj
 0002:00002974       ??_C@_0BM@IPGF@Microsoft?5debug?5information?$AA@ 00425974     lib_data:gt_generic.obj
 0002:00002990       ??_C@_0DF@GDEB@Common?5Object?5File?5Format?5?$CICOFF?$CJ@ 00425990     lib_data:gt_generic.obj
 0002:000029c8       ??_C@_0BJ@JEEM@FPK?5Pascal?5?$CFc?4?$CFc?$CFc?5unit?6?$AA@ 004259c8     lib_data:gt_generic.obj
 0002:000029e4       ??_C@_0BG@CMH@Macromedia?5Flash?5file?$AA@ 004259e4     lib_data:gt_generic.obj
 0002:000029fc       ??_C@_0BH@FEAC@Compiled?5resource?5file?$AA@ 004259fc     lib_data:gt_generic.obj
 0002:00002a14       ??_C@_0BE@CCII@PKCS?5?$CD7?5certificate?$AA@ 00425a14     lib_data:gt_generic.obj
 0002:00002a28       ??_C@_0BF@HGKH@QuickTime?5movie?5file?$AA@ 00425a28     lib_data:gt_generic.obj
 0002:00002a40       ??_C@_0CG@OBML@Symantec?5Internet?5Tools?5Data?5Fil@ 00425a40     lib_data:gt_generic.obj
 0002:00002a68       ??_C@_0BN@MALK@DemoShield?5presentation?5file?$AA@ 00425a68     lib_data:gt_generic.obj
 0002:00002a88       ??_C@_0DA@HBME@OLE2?5document?5?$CIWinword?0?5Excel?0?5S@ 00425a88     lib_data:gt_generic.obj
 0002:00002ab8       ??_C@_0BH@HNCA@Compiled?5Java?5bytecode?$AA@ 00425ab8     lib_data:gt_generic.obj
 0002:00002ad0       ??_C@_0M@NPA@MPEG?5movie?5?$AA@ 00425ad0     lib_data:gt_generic.obj
 0002:00002adc       ??_C@_0BH@EJHA@?5?$FLhigh?5security?5level?$FN?$AA@ 00425adc     lib_data:gt_generic.obj
 0002:00002af4       ??_C@_04LGDF@?$CF02d?$AA@  00425af4     lib_data:gt_generic.obj
 0002:00002afc       ??_C@_08PLGD@Crypt?$CB?5v?$AA@ 00425afc     lib_data:gt_generic.obj
 0002:00002b08       ??_C@_0BD@KMEF@?6?5?5Size?5in?5pixel?3?5?$AA@ 00425b08     lib_data:gt_generic.obj
 0002:00002b1c       ??_C@_0CP@OEFC@Windows?5Metafile?5image?6?6?5?5Coordi@ 00425b1c     lib_data:gt_generic.obj
 0002:00002b4c       ??_C@_0BB@CKG@MS?5C?1C?$CL?$CL?5library?$AA@ 00425b4c     lib_data:gt_generic.obj
 0002:00002b60       ??_C@_0BL@HCNO@Borland?5overlay?5file?5?$CIOVR?$CJ?$AA@ 00425b60     lib_data:gt_generic.obj
 0002:00002b7c       ??_C@_0BN@MIEN@Fractal?5Extreme?5palette?5file?$AA@ 00425b7c     lib_data:gt_generic.obj
 0002:00002b9c       ??_C@_0BP@PHCD@Borland?5Delphi?53?14?5form?5module?$AA@ 00425b9c     lib_data:gt_generic.obj
 0002:00002bbc       ??_C@_09CFG@?6?5?5Size?3?5?$AA@ 00425bbc     lib_data:gt_generic.obj
 0002:00002bc8       ??_C@_0BD@IEMI@Photoshop?52?45?5file?$AA@ 00425bc8     lib_data:gt_generic.obj
 0002:00002bdc       ??_C@_0BM@NDJF@Microsoft?5Quick?5Pascal?5unit?$AA@ 00425bdc     lib_data:gt_generic.obj
 0002:00002bf8       ??_C@_0BL@IJAF@Fractal?5Extreme?5movie?5file?$AA@ 00425bf8     lib_data:gt_generic.obj
 0002:00002c14       ??_C@_0BD@GDNM@Links?5LS?5shot?5file?$AA@ 00425c14     lib_data:gt_generic.obj
 0002:00002c28       ??_C@_0BG@OKCE@MS?5Compress?56?422?5file?$AA@ 00425c28     lib_data:gt_generic.obj
 0002:00002c40       ??_C@_0CB@NOHC@NuMega?5BoundsChecker?5result?5file@ 00425c40     lib_data:gt_generic.obj
 0002:00002c64       ??_C@_0BG@NALF@Borland?5Delphi?54?5unit?$AA@ 00425c64     lib_data:gt_generic.obj
 0002:00002c7c       ??_C@_08BMBJ@16777216?$AA@ 00425c7c     lib_data:gt_generic.obj
 0002:00002c88       ??_C@_0BC@MKHP@?5?$FLnon?5interlaced?$FN?$AA@ 00425c88     lib_data:gt_generic.obj
 0002:00002c9c       ??_C@_0O@KCEJ@?5?$FLinterlaced?$FN?$AA@ 00425c9c     lib_data:gt_generic.obj
 0002:00002cac       ??_C@_0L@JBJP@PiNG?5image?$AA@ 00425cac     lib_data:gt_generic.obj
 0002:00002cb8       ??_C@_0BP@JOOM@Windows?5registry?5file?5?$CIbinary?$CJ?$AA@ 00425cb8     lib_data:gt_generic.obj
 0002:00002cd8       ??_C@_0BC@PDHM@MS?5HTML?9Help?5file?$AA@ 00425cd8     lib_data:gt_generic.obj
 0002:00002cec       ??_C@_0BK@GENC@?5?5File?5has?5no?5entrypoint?6?$AA@ 00425cec     lib_data:gt_generic.obj
 0002:00002d08       ??_C@_0M@MGBK@MIPS?5RS3000?$AA@ 00425d08     lib_data:gt_generic.obj
 0002:00002d14       ??_C@_0M@OOAB@Intel?580860?$AA@ 00425d14     lib_data:gt_generic.obj
 0002:00002d20       ??_C@_0P@PLIO@Motorola?588000?$AA@ 00425d20     lib_data:gt_generic.obj
 0002:00002d30       ??_C@_0P@DKHL@Motorola?568000?$AA@ 00425d30     lib_data:gt_generic.obj
 0002:00002d40       ??_C@_0M@LFFG@Intel?580386?$AA@ 00425d40     lib_data:gt_generic.obj
 0002:00002d4c       ??_C@_05IKFG@SPARC?$AA@    00425d4c     lib_data:gt_generic.obj
 0002:00002d54       ??_C@_0O@JPGL@AT?$CGT?5WE?532100?$AA@ 00425d54     lib_data:gt_generic.obj
 0002:00002d64       ??_C@_0L@HNJD@no?5machine?$AA@ 00425d64     lib_data:gt_generic.obj
 0002:00002d70       ??_C@_0BC@JGIB@?6?5?5Machine?5type?3?5?$AA@ 00425d70     lib_data:gt_generic.obj
 0002:00002d84       ??_C@_0O@CDCN@Little?5Endian?$AA@ 00425d84     lib_data:gt_generic.obj
 0002:00002d94       ??_C@_0L@PMNN@Big?5Endian?$AA@ 00425d94     lib_data:gt_generic.obj
 0002:00002da0       ??_C@_0BI@LCFB@?5file?6?5?5Data?5encoding?3?5?$AA@ 00425da0     lib_data:gt_generic.obj
 0002:00002db8       ??_C@_07CAMD@unknown?$AA@  00425db8     lib_data:gt_generic.obj
 0002:00002dc0       ??_C@_0BD@GMG@processor?5specific?$AA@ 00425dc0     lib_data:gt_generic.obj
 0002:00002dd4       ??_C@_04LHHK@core?$AA@     00425dd4     lib_data:gt_generic.obj
 0002:00002ddc       ??_C@_0O@DPG@shared?5object?$AA@ 00425ddc     lib_data:gt_generic.obj
 0002:00002dec       ??_C@_0L@CCGI@executable?$AA@ 00425dec     lib_data:gt_generic.obj
 0002:00002df8       ??_C@_0BF@ECDK@relocatable?5?$CIobject?$CJ?$AA@ 00425df8     lib_data:gt_generic.obj
 0002:00002e10       ??_C@_07KLCM@invalid?$AA@  00425e10     lib_data:gt_generic.obj
 0002:00002e18       ??_C@_07EIN@32?9bit?5?$AA@ 00425e18     lib_data:gt_generic.obj
 0002:00002e20       ??_C@_07ONIO@64?9bit?5?$AA@ 00425e20     lib_data:gt_generic.obj
 0002:00002e28       ??_C@_0M@IOJF@Unix?1Linux?5?$AA@ 00425e28     lib_data:gt_generic.obj
 0002:00002e34       ??_C@_0BH@CDDN@Turbo?5Vision?5help?5file?$AA@ 00425e34     lib_data:gt_generic.obj
 0002:00002e4c       ??_C@_0BN@JGCF@Portable?5Document?5file?5?$CIPDF?$CJ?$AA@ 00425e4c     lib_data:gt_generic.obj
 0002:00002e6c       ??_C@_0BG@DINF@Borland?5Delphi?53?5unit?$AA@ 00425e6c     lib_data:gt_generic.obj
 0002:00002e84       ??_C@_08JBDK@?$CI0x?$CF02X?$CJ?$AA@ 00425e84     lib_data:gt_generic.obj
 0002:00002e90       ??_C@_0BA@CPGP@?5?5unknown?5type?5?$AA@ 00425e90     lib_data:gt_generic.obj
 0002:00002ea0       ??_C@_08PKCC@?5colors?$CJ?$AA@ 00425ea0     lib_data:gt_generic.obj
 0002:00002eac       ??_C@_02NDAK@?5?$CI?$AA@   00425eac     lib_data:gt_generic.obj
 0002:00002eb0       ??_C@_0L@MMCA@?5?$CIVersion?5?$AA@ 00425eb0     lib_data:gt_generic.obj
 0002:00002ebc       ??_C@_0N@IKJL@?5?$CIencrypted?$CJ?$AA@ 00425ebc     lib_data:gt_generic.obj
 0002:00002ecc       ??_C@_09NIDP@?5?$CI0x?$CF02X?$CJ?$AA@ 00425ecc     lib_data:gt_generic.obj
 0002:00002ed8       ??_C@_05EHLP@?5file?$AA@   00425ed8     lib_data:gt_generic.obj
 0002:00002ee0       ??_C@_0M@JAKC@Wordperfect?$AA@ 00425ee0     lib_data:gt_generic.obj
 0002:00002eec       ??_C@_0BH@PJND@Virtual?5Pascal?5Unit?5v3?$AA@ 00425eec     lib_data:gt_generic.obj
 0002:00002f04       ??_C@_0CG@NOIG@Borland?5precompiled?5header?5file?5@ 00425f04     lib_data:gt_generic.obj
 0002:00002f2c       ??_C@_0BP@MMF@Microsoft?5workspace?5file?5?$CIMDP?$CJ?$AA@ 00425f2c     lib_data:gt_generic.obj
 0002:00002f4c       ??_C@_0CI@OEJJ@Microsoft?5browse?5information?5fil@ 00425f4c     lib_data:gt_generic.obj
 0002:00002f74       ??_C@_0BJ@MCMN@Lotus?5Notes?54?45?5database?$AA@ 00425f74     lib_data:gt_generic.obj
 0002:00002f90       ??_C@_0O@PBEH@IBM?5Help?5file?$AA@ 00425f90     lib_data:gt_generic.obj
 0002:00002fa0       ??_C@_0BI@PODO@MS?5Visual?5C?$CL?$CL?5help?5file?$AA@ 00425fa0     lib_data:gt_generic.obj
 0002:00002fb8       ??_C@_0BB@EJO@BGI?5stroked?5font?$AA@ 00425fb8     lib_data:gt_generic.obj
 0002:00002fcc       ??_C@_0BD@BOLE@Winword?52?5document?$AA@ 00425fcc     lib_data:gt_generic.obj
 0002:00002fe0       ??_C@_0BE@DJCE@Lotus?5123?5worksheet?$AA@ 00425fe0     lib_data:gt_generic.obj
 0002:00002ff4       ??_C@_0BA@LJHI@C?$CL?$CL?5symbol?5file?$AA@ 00425ff4     lib_data:gt_generic.obj
 0002:00003004       ??_C@_0BD@FKKN@Phar?5Lap?5?4EXP?5file?$AA@ 00426004     lib_data:gt_generic.obj
 0002:00003018       ??_C@_09ODOA@?5image?$CIs?$CJ?$AA@ 00426018     lib_data:gt_generic.obj
 0002:00003024       ??_C@_0BA@OMBA@Icon?5file?5with?5?$AA@ 00426024     lib_data:gt_generic.obj
 0002:00003034       ??_C@_0CL@EJFP@Compiled?5installShield?5installat@ 00426034     lib_data:gt_generic.obj
 0002:00003060       ??_C@_0BF@CPK@MS?5Excel?54?5worksheet?$AA@ 00426060     lib_data:gt_generic.obj
 0002:00003078       ??_C@_0M@GDLJ@?5help?5file?6?$AA@ 00426078     lib_data:gt_generic.obj
 0002:00003084       ??_C@_03IIJF@3?4x?$AA@     00426084     lib_data:gt_generic.obj
 0002:00003088       ??_C@_05DHKF@95?198?$AA@   00426088     lib_data:gt_generic.obj
 0002:00003090       ??_C@_08NHBK@Windows?5?$AA@ 00426090     lib_data:gt_generic.obj
 0002:0000309c       ??_C@_0CN@JMIJ@Windows?5mouse?5cursor?5file?1Works?5@ 0042609c     lib_data:gt_generic.obj
 0002:000030cc       ??_C@_0BP@OAHE@MS?5Word?5for?5DOS?1Write?5document?$AA@ 004260cc     lib_data:gt_generic.obj
 0002:000030ec       ??_C@_0BN@LLNL@installShield?5uninstall?5file?$AA@ 004260ec     lib_data:gt_generic.obj
 0002:0000310c       ??_C@_0BB@JCLM@C?$CL?$CL?5library?5file?$AA@ 0042610c     lib_data:gt_generic.obj
 0002:00003120       ??_C@_0BH@HJLF@FPK?5Pascal?5object?5file?$AA@ 00426120     lib_data:gt_generic.obj
 0002:00003138       ??_C@_0BG@ILJG@Windows?5shortcut?5file?$AA@ 00426138     lib_data:gt_generic.obj
 0002:00003150       ??_C@_0CA@DEOJ@Windows?5Enhanced?5Metafile?5image?$AA@ 00426150     lib_data:gt_generic.obj
 0002:00003170       ??_C@_0BH@HAJA@Windows?5PIF?5file?5for?5?8?$AA@ 00426170     lib_data:gt_generic.obj
 0002:00003188       ??_C@_0BA@FLND@MICROSOFT?5PIFEX?$AA@ 00426188     lib_data:gt_generic.obj
 0002:00003198       ??_C@_0CF@OIHC@Microsoft?5Access?5database?5file?5?$CI@ 00426198     lib_data:gt_generic.obj
 0002:000031c0       ??_C@_0BA@FLHA@Standard?5Jet?5DB?$AA@ 004261c0     lib_data:gt_generic.obj
 0002:000031d0       ??_C@_0BM@BMCK@Sony?5PlayStation?5executable?$AA@ 004261d0     lib_data:gt_generic.obj
 0002:000031ec       ??_C@_08IDDJ@PS?9X?5EXE?$AA@ 004261ec     lib_data:gt_generic.obj
 0002:000031f8       ??_C@_0CH@FAJ@Norton?5Utilities?5Disk?5Doctor?5und@ 004261f8     lib_data:gt_generic.obj
 0002:00003220       ??_C@_08NNAC@PNCIUNDO?$AA@ 00426220     lib_data:gt_generic.obj
 0002:0000322c       ??_C@_0BH@OADF@Armadillo?5project?5file?$AA@ 0042622c     lib_data:gt_generic.obj
 0002:00003244       ??_C@_08LIKB@ARMV0006?$AA@ 00426244     lib_data:gt_generic.obj
 0002:00003250       ??_C@_0BG@PEJG@Lotus?5AmiPro?5document?$AA@ 00426250     lib_data:gt_generic.obj
 0002:00003268       ??_C@_08EOIF@?$FLver?$FN?$AN?6?7?$AA@ 00426268     lib_data:gt_generic.obj
 0002:00003274       ??_C@_0BH@OAAC@Lotus?5WordPro?5document?$AA@ 00426274     lib_data:gt_generic.obj
 0002:0000328c       ??_C@_07FCGO@WordPro?$AA@  0042628c     lib_data:gt_generic.obj
 0002:00003294       ??_C@_0BO@OHIF@Microsoft?5profiler?5file?5?$CIPBI?$CJ?$AA@ 00426294     lib_data:gt_generic.obj
 0002:000032b4       ??_C@_07MJIC@MS?9PROF?$AA@ 004262b4     lib_data:gt_generic.obj
 0002:000032bc       ??_C@_0BM@KOD@ARJ?5self?5extracting?5archive?$AA@ 004262bc     lib_data:gt_generic.obj
 0002:000032d8       ??_C@_07NMKB@ARJ_SFX?$AA@  004262d8     lib_data:gt_generic.obj
 0002:000032e0       ??_C@_0CI@OCNI@Microsoft?5precompiled?5header?5fil@ 004262e0     lib_data:gt_generic.obj
 0002:00003308       ??_C@_06DAKE@VCPCH0?$AA@   00426308     lib_data:gt_generic.obj
 0002:00003310       ??_C@_0BI@FPDO@Pax?5Imperia?52?5save?5game?$AA@ 00426310     lib_data:gt_generic.obj
 0002:00003328       ??_C@_06LMP@IImGxP?$AA@    00426328     lib_data:gt_generic.obj
 0002:00003330       ??_C@_0BP@LGPB@IDA?5DLL?5description?5file?5?$CIIDS?$CJ?$AA@ 00426330     lib_data:gt_generic.obj
 0002:00003350       ??_C@_06OMLB@IDAIDS?$AA@   00426350     lib_data:gt_generic.obj
 0002:00003358       ??_C@_06BBOD@GIF89a?$AA@   00426358     lib_data:gt_generic.obj
 0002:00003360       ??_C@_06NDEI@GIF87a?$AA@   00426360     lib_data:gt_generic.obj
 0002:00003368       ??_C@_0BL@CNIK@Jerusalem?5virus?5protection?$AA@ 00426368     lib_data:gt_generic.obj
 0002:00003384       ??_C@_05CLDB@MsDos?$AA@    00426384     lib_data:gt_generic.obj
 0002:0000338c       ??_C@_0CB@PDH@Microsoft?5C?1C?$CL?$CL?5program?5database@ 0042638c     lib_data:gt_generic.obj
 0002:000033b0       ??_C@_0CA@FBHJ@Turbo?5Pascal?5Configuration?5File?$AA@ 004263b0     lib_data:gt_generic.obj
 0002:000033d0       ??_C@_0BK@FNFL@Paint?5Shop?5Pro?5Image?5File?$AA@ 004263d0     lib_data:gt_generic.obj
 0002:000033ec       ??_C@_0BK@PKAH@Microsoft?5Linker?5Database?$AA@ 004263ec     lib_data:gt_generic.obj
 0002:00003408       ??_C@_0BH@OOHH@Turbo?5Pascal?5Help?5File?$AA@ 00426408     lib_data:gt_generic.obj
 0002:00003420       ??_C@_0BH@NMMG@TURBO?5PASCAL?5HELP?5FILE?$AA@ 00426420     lib_data:gt_generic.obj
 0002:00003438       ??_C@_0DC@DLBP@Thunderbyte?5checksum?5?1?5cleaning?5@ 00426438     lib_data:gt_generic.obj
 0002:0000346c       ??_C@_0BF@KLPO@Thunderbyte?5checksum?$AA@ 0042646c     lib_data:gt_generic.obj
 0002:00003484       ??_C@_0BM@NION@Paint?5Shop?5Pro?5Browser?5File?$AA@ 00426484     lib_data:gt_generic.obj
 0002:000034a0       ??_C@_0BA@OBJG@JASC?5BROWS?5FILE?$AA@ 004264a0     lib_data:gt_generic.obj
 0002:000034b0       ??_C@_0BN@IHMN@Internet?5Explorer?5Cache?5File?$AA@ 004264b0     lib_data:gt_generic.obj
 0002:000034d0       ??_C@_0BA@KDMF@Client?5UrlCache?$AA@ 004264d0     lib_data:gt_generic.obj
 0002:000034e0       ??_C@_0BA@BPMO@McAfee?5checksum?$AA@ 004264e0     lib_data:gt_generic.obj
 0002:000034f0       ??_C@_0N@LANK@?$DO?$DO?$DOMcA1ph?$DM?$DM?$DM?$AA@ 004264f0     lib_data:gt_generic.obj
 0002:00003500       ??_C@_0BE@JJOG@ZSoft?5PCX?5image?5?9?9?5?$AA@ 00426500     lib_data:gt_generic.obj
 0002:00003514       ??_C@_0P@PLGE@MAC?5image?5file?$AA@ 00426514     lib_data:gt_generic.obj
 0002:00003524       ??_C@_08LLG@?5seconds?$AA@ 00426524     lib_data:gt_generic.obj
 0002:00003530       __real@3f8d41d41d41d41d    00426530     lib_data:gt_generic.obj
 0002:00003538       ??_C@_04LOLD@?$CF?42f?$AA@ 00426538     lib_data:gt_generic.obj
 0002:00003540       ??_C@_0BB@FPHN@?6?5?5frame?5delay?3?5?$AA@ 00426540     lib_data:gt_generic.obj
 0002:00003554       ??_C@_07DIJF@?5frames?$AA@ 00426554     lib_data:gt_generic.obj
 0002:0000355c       ??_C@_0L@MKMF@?5colors?6?5?5?$AA@ 0042655c     lib_data:gt_generic.obj
 0002:00003568       ??_C@_04BMII@?5?9?9?5?$AA@ 00426568     lib_data:gt_generic.obj
 0002:00003570       ??_C@_0BA@CEBB@?5animation?5file?$AA@ 00426570     lib_data:gt_generic.obj
 0002:00003580       ??_C@_03HGPP@FLC?$AA@      00426580     lib_data:gt_generic.obj
 0002:00003584       ??_C@_03HHGJ@FLI?$AA@      00426584     lib_data:gt_generic.obj
 0002:00003588       ??_C@_05IMOO@?5unit?$AA@   00426588     lib_data:gt_generic.obj
 0002:00003590       ??_C@_08LFPJ@Delphi?51?$AA@ 00426590     lib_data:gt_generic.obj
 0002:0000359c       ??_C@_03DBLH@7?40?$AA@     0042659c     lib_data:gt_generic.obj
 0002:000035a0       ??_C@_03GDKB@6?40?$AA@     004265a0     lib_data:gt_generic.obj
 0002:000035a4       ??_C@_03JFFB@5?45?$AA@     004265a4     lib_data:gt_generic.obj
 0002:000035a8       ??_C@_03JFJK@5?40?$AA@     004265a8     lib_data:gt_generic.obj
 0002:000035ac       ??_C@_03MHIM@4?40?$AA@     004265ac     lib_data:gt_generic.obj
 0002:000035b0       ??_C@_0O@PMDC@Turbo?5Pascal?5?$AA@ 004265b0     lib_data:gt_generic.obj
 0002:000035c0       ??_C@_0BB@MOAE@Perl?5source?5file?$AA@ 004265c0     lib_data:gt_generic.obj
 0002:000035d4       ??_C@_0BD@HBCK@BAT?1CMD?5batch?5file?$AA@ 004265d4     lib_data:gt_generic.obj
 0002:000035e8       ??_C@_08JOLP@ECHO?5OFF?$AA@ 004265e8     lib_data:gt_generic.obj
 0002:000035f4       ??_C@_0BG@DNNO@ibo?5Ablauf?9Profi?5file?$AA@ 004265f4     lib_data:gt_generic.obj
 0002:0000360c       ??_C@_0BB@ICDK@ibo?5Ablauf?9Profi?$AA@ 0042660c     lib_data:gt_generic.obj
 0002:00003620       ??_C@_0BA@HFDJ@?$CD?$CB?1USR?1BIN?1PERL?$AA@ 00426620     lib_data:gt_generic.obj
 0002:00003630       ??_C@_0BG@BJID@?$CD?$CB?1USR?1LOCAL?1BIN?1PERL?$AA@ 00426630     lib_data:gt_generic.obj
 0002:00003648       ??_C@_0BI@MMEK@Virtual?5Card?5File?5?$CIVCF?$CJ?$AA@ 00426648     lib_data:gt_generic.obj
 0002:00003660       ??_C@_0M@COMM@begin?3vcard?$AA@ 00426660     lib_data:gt_generic.obj
 0002:0000366c       ??_C@_0BM@JFDA@Borland?5linker?5mapping?5file?$AA@ 0042666c     lib_data:gt_generic.obj
 0002:00003688       ??_C@_05IMKO@Start?$AA@    00426688     lib_data:gt_generic.obj
 0002:00003690       ??_C@_0BH@JBKA@PGP?5message?5?$CIVersion?3?5?$AA@ 00426690     lib_data:gt_generic.obj
 0002:000036a8       ??_C@_0P@KILI@?9?9?9?9?9BEGIN?5PGP?$AA@ 004266a8     lib_data:gt_generic.obj
 0002:000036b8       ??_C@_0BG@HAKD@Adobe?5Postscript?5file?$AA@ 004266b8     lib_data:gt_generic.obj
 0002:000036d0       ??_C@_0L@CBDG@?$CF?$CBPS?9Adobe?$AA@ 004266d0     lib_data:gt_generic.obj
 0002:000036dc       ??_C@_0BA@INPK@UU?5encoded?5file?$AA@ 004266dc     lib_data:gt_generic.obj
 0002:000036ec       ??_C@_06DEBK@begin?5?$AA@  004266ec     lib_data:gt_generic.obj
 0002:000036f4       ??_C@_0BJ@PLPN@Bourne?5Shell?5Script?5file?$AA@ 004266f4     lib_data:gt_generic.obj
 0002:00003710       ??_C@_09JMOP@?$CD?$CB?1bin?1sh?$AA@ 00426710     lib_data:gt_generic.obj
 0002:0000371c       ??_C@_0BM@CDID@Framemaker?5interchange?5file?$AA@ 0042671c     lib_data:gt_generic.obj
 0002:00003738       ??_C@_08NDIH@?$DMMIFFile?$AA@ 00426738     lib_data:gt_generic.obj
 0002:00003744       ??_C@_0CA@HNEH@Windows?5registry?5file?5?$CItextual?$CJ?$AA@ 00426744     lib_data:gt_generic.obj
 0002:00003764       ??_C@_08MMJJ@REGEDIT4?$AA@ 00426764     lib_data:gt_generic.obj
 0002:00003770       ??_C@_0BB@OBOB@aPatch?5data?5file?$AA@ 00426770     lib_data:gt_generic.obj
 0002:00003784       ??_C@_07JLEE@?$FOTITLE?$FO?$AA@ 00426784     lib_data:gt_generic.obj
 0002:0000378c       ??_C@_0CA@GJKL@RTF?5document?5?$CIrich?5text?5format?$CJ?$AA@ 0042678c     lib_data:gt_generic.obj
 0002:000037ac       ??_C@_06JFC@?$HL?2rtf1?$AA@ 004267ac     lib_data:gt_generic.obj
 0002:000037b4       ??_C@_0BD@MHGI@Microsoft?5map?5file?$AA@ 004267b4     lib_data:gt_generic.obj
 0002:000037c8       ??_C@_0L@FEKC@?5Timestamp?$AA@ 004267c8     lib_data:gt_generic.obj
 0002:000037d4       ??_C@_04FGNA@?$AN?6?$AN?6?$AA@ 004267d4     lib_data:gt_generic.obj
 0002:000037dc       ??_C@_01FIMD@?$FN?$AA@     004267dc     lib_data:gt_generic.obj
 0002:000037e0       ??_C@_07MIGK@?$CKerror?$CK?$AA@ 004267e0     lib_data:gt_generic.obj
 0002:000037e8       ??_C@_07DBEH@?5file?5?$FL?$AA@ 004267e8     lib_data:gt_generic.obj
 0002:000037f0       ??_C@_03HEOI@INI?$AA@      004267f0     lib_data:gt_generic.obj
 0002:000037f4       ??_C@_03HFLF@INF?$AA@      004267f4     lib_data:gt_generic.obj
 0002:000037f8       ??_C@_04OPOM@?4inf?$AA@    004267f8     lib_data:gt_generic.obj
 0002:00003800       ??_C@_07EBOJ@?5style?$CJ?$AA@ 00426800     lib_data:gt_generic.obj
 0002:00003808       ??_C@_03EAFN@DOS?$AA@      00426808     lib_data:gt_generic.obj
 0002:0000380c       ??_C@_04BJIF@UNIX?$AA@     0042680c     lib_data:gt_generic.obj
 0002:00003814       ??_C@_0L@IIPJ@Textfile?5?$CI?$AA@ 00426814     lib_data:gt_generic.obj
 0002:00003820       ??_C@_04OCKL@?4DOK?$AA@    00426820     lib_data:gt_generic.obj
 0002:00003828       ??_C@_04LGBD@?4DOC?$AA@    00426828     lib_data:gt_generic.obj
 0002:00003830       ??_C@_04GABA@?4TXT?$AA@    00426830     lib_data:gt_generic.obj
 0002:00003838       ??_C@_0BE@GKCO@Borland?5object?5file?$AA@ 00426838     lib_data:gt_generic.obj
 0002:0000384c       ??_C@_07OGKA@?5blocks?$AA@ 0042684c     lib_data:gt_generic.obj
 0002:00003854       ??_C@_06BMFM@?5with?5?$AA@ 00426854     lib_data:gt_generic.obj
 0002:0000385c       ??_C@_0BF@ENBM@unknown?5track?5format?$AA@ 0042685c     lib_data:gt_generic.obj
 0002:00003874       ??_C@_0DL@OFIL@One?5or?5more?5sequentially?5indepen@ 00426874     lib_data:gt_generic.obj
 0002:000038b0       ??_C@_0CA@HMIG@One?5or?5more?5simultaneous?5tracks?$AA@ 004268b0     lib_data:gt_generic.obj
 0002:000038d0       ??_C@_0BI@OEEA@One?5multi?9channel?5track?$AA@ 004268d0     lib_data:gt_generic.obj
 0002:000038e8       ??_C@_0BA@FKCD@MIDI?5music?5file?$AA@ 004268e8     lib_data:gt_generic.obj
 0002:000038f8       ??_C@_0P@KPIK@SUN?5sound?5file?$AA@ 004268f8     lib_data:gt_generic.obj
 0002:00003908       ??_C@_07ONCB@?5colors?$AA@ 00426908     lib_data:gt_generic.obj
 0002:00003910       ??_C@_09JDBD@?5pixel?5?9?5?$AA@ 00426910     lib_data:gt_generic.obj
 0002:0000391c       ??_C@_04JJLD@?$CJ?5?9?5?$AA@ 0042691c     lib_data:gt_generic.obj
 0002:00003924       ??_C@_0BA@EBKJ@3?5?9?5OS?12?52?4x?5?$DP?$DP?$AA@ 00426924     lib_data:gt_generic.obj
 0002:00003934       ??_C@_0P@PHEI@4?5?9?5Windows?595?$AA@ 00426934     lib_data:gt_generic.obj
 0002:00003944       ??_C@_0P@LPEC@3?5?9?5Windows?5NT?$AA@ 00426944     lib_data:gt_generic.obj
 0002:00003954       ??_C@_0BA@FIOE@3?5?9?5Windows?53?4x?$AA@ 00426954     lib_data:gt_generic.obj
 0002:00003964       ??_C@_0BL@IFCK@2?5?9?5Windows?52?4x?5?1?5OS?12?51?4x?$AA@ 00426964     lib_data:gt_generic.obj
 0002:00003980       ??_C@_07GHKJ@?5?$CItype?5?$AA@ 00426980     lib_data:gt_generic.obj
 0002:00003988       ??_C@_0CB@ECOG@?5?$CIerror?5initializing?5BMP?5buffer?$CJ@ 00426988     lib_data:gt_generic.obj
 0002:000039ac       ??_C@_0N@PMBJ@Bitmap?5image?$AA@ 004269ac     lib_data:gt_generic.obj
 0002:000039bc       ??_C@_0BE@BKP@Creative?5Voice?5File?$AA@ 004269bc     lib_data:gt_generic.obj
 0002:000039d0       ??_C@_0CP@GJDP@?5?$FLimage?5extension?5block?5incorrec@ 004269d0     lib_data:gt_generic.obj
 0002:00003a00       ??_C@_0BK@HGMK@?5?$FLprocessed?5with?5GIFLITE?$FN?$AA@ 00426a00     lib_data:gt_generic.obj
 0002:00003a1c       ??_C@_07GGFK@GIFLITE?$AA@  00426a1c     lib_data:gt_generic.obj
 0002:00003a24       ??_C@_0BK@DBOC@?5image?5?9?5extension?5block?5?$AA@ 00426a24     lib_data:gt_generic.obj
 0002:00003a40       ??_C@_0CK@EDPM@?5?$FLimage?5descriptor?5incorrect?5ter@ 00426a40     lib_data:gt_generic.obj
 0002:00003a6c       ??_C@_0BC@OPPK@?$FLmultiple?5images?$FN?$AA@ 00426a6c     lib_data:gt_generic.obj
 0002:00003a80       ??_C@_0BA@NPPB@?5?9?5?$FLinterlaced?$FN?$AA@ 00426a80     lib_data:gt_generic.obj
 0002:00003a90       ??_C@_05FECE@GIF89?$AA@    00426a90     lib_data:gt_generic.obj
 0002:00003a98       ??_C@_05PPOO@GIF87?$AA@    00426a98     lib_data:gt_generic.obj
 0002:00003aa0       ??_C@_0CC@ONN@?5?9?5failed?5to?5read?5the?5color?5tabl@ 00426aa0     lib_data:gt_generic.obj
 0002:00003ac4       ??_C@_02DIMO@?$FN?6?$AA@   00426ac4     lib_data:gt_generic.obj
 0002:00003ac8       ??_C@_05MKCL@?$CF02Xh?$AA@ 00426ac8     lib_data:gt_generic.obj
 0002:00003ad0       ??_C@_0BM@FGEN@?5?$FLinvalid?5image?5descriptor?5?$AA@ 00426ad0     lib_data:gt_generic.obj
 0002:00003aec       ??_C@_0BI@LMFK@Seems?5to?5be?5a?5GIF?5image?$AA@ 00426aec     lib_data:gt_generic.obj
 0002:00003b04       ??_C@_0BJ@JFJL@Windows?53?4x?5group?5file?5?8?$AA@ 00426b04     lib_data:gt_generic.obj
 0002:00003b20       ??_C@_09BOIE@IFF?5file?6?$AA@ 00426b20     lib_data:gt_generic.obj
 0002:00003b2c       ??_C@_0CF@JBKE@Uhuru?5Sound?5Software?5Macintosh?5v@ 00426b2c     lib_data:gt_generic.obj
 0002:00003b54       ??_C@_0BE@PGPG@8?9bit?5sampled?5voice?$AA@ 00426b54     lib_data:gt_generic.obj
 0002:00003b68       ??_C@_0L@PEGD@image?5data?$AA@ 00426b68     lib_data:gt_generic.obj
 0002:00003b74       ??_C@_0BC@LOKD@unknown?5type?5?8?$CFs?8?$AA@ 00426b74     lib_data:gt_generic.obj
 0002:00003b88       ??_C@_0M@BPGC@Vector?5font?$AA@ 00426b88     lib_data:gt_generic.obj
 0002:00003b94       ??_C@_0P@LNGO@Formatted?5text?$AA@ 00426b94     lib_data:gt_generic.obj
 0002:00003ba4       ??_C@_0BF@JGAA@Text?5for?5a?5paragraph?$AA@ 00426ba4     lib_data:gt_generic.obj
 0002:00003bbc       ??_C@_0BF@GKKG@Simple?5musical?5score?$AA@ 00426bbc     lib_data:gt_generic.obj
 0002:00003bd4       ??_C@_0BM@LNLP@Document?5footer?5information?$AA@ 00426bd4     lib_data:gt_generic.obj
 0002:00003bf0       ??_C@_0N@BJLG@File?5version?$AA@ 00426bf0     lib_data:gt_generic.obj
 0002:00003c00       ??_C@_0BC@FGNB@Macintosh?5picture?$AA@ 00426c00     lib_data:gt_generic.obj
 0002:00003c14       ??_C@_0O@LHKC@Tab?5positions?$AA@ 00426c14     lib_data:gt_generic.obj
 0002:00003c24       ??_C@_0CD@IDK@Uhuru?5Sound?5Software?5musical?5sco@ 00426c24     lib_data:gt_generic.obj
 0002:00003c48       ??_C@_0M@IHFA@Raster?5font?$AA@ 00426c48     lib_data:gt_generic.obj
 0002:00003c54       ??_C@_0BK@EJML@General?5use?5musical?5score?$AA@ 00426c54     lib_data:gt_generic.obj
 0002:00003c70       ??_C@_0O@EGF@Sampled?5sound?$AA@ 00426c70     lib_data:gt_generic.obj
 0002:00003c80       ??_C@_0BO@PKIF@IFF?5Deep?5?$CI24?9bit?5color?5image?$CJ?$AA@ 00426c80     lib_data:gt_generic.obj
 0002:00003ca0       ??_C@_0CE@GGAH@Deluxe?5Video?5Construction?5Set?5vi@ 00426ca0     lib_data:gt_generic.obj
 0002:00003cc4       ??_C@_0BG@OKB@Annotation?5or?5comment?$AA@ 00426cc4     lib_data:gt_generic.obj
 0002:00003cdc       ??_C@_0BH@FPF@YUV?5image?5data?5?$CIV?9Lab?$CJ?$AA@ 00426cdc     lib_data:gt_generic.obj
 0002:00003cf4       ??_C@_0BN@LPBJ@12?9bit?5color?5image?5?$CIImpulse?$CJ?$AA@ 00426cf4     lib_data:gt_generic.obj
 0002:00003d14       ??_C@_0P@EJLA@Cel?5animations?$AA@ 00426d14     lib_data:gt_generic.obj
 0002:00003d24       ??_C@_0DE@BOIG@InterLeaved?5Bitmap?5?$CIinterleaved?5@ 00426d24     lib_data:gt_generic.obj
 0002:00003d58       ??_C@_0BA@EJHK@Animated?5bitmap?$AA@ 00426d58     lib_data:gt_generic.obj
 0002:00003d68       ??_C@_0BA@PFJD@MIDI?5music?5data?$AA@ 00426d68     lib_data:gt_generic.obj
 0002:00003d78       ??_C@_0BO@DFJP@Audio?5interchange?5file?5format?$AA@ 00426d78     lib_data:gt_generic.obj
 0002:00003d98       ??_C@_0BN@PJEI@Deluxe?5Print?5page?5definition?$AA@ 00426d98     lib_data:gt_generic.obj
 0002:00003db8       ??_C@_0BK@HMMK@Pro?9write?5word?5processing?$AA@ 00426db8     lib_data:gt_generic.obj
 0002:00003dd4       ??_C@_0BF@CNHI@Page?5break?5indicator?$AA@ 00426dd4     lib_data:gt_generic.obj
 0002:00003dec       ??_C@_0CE@OEBG@Turbo3d?5renderung?5data?5?$CI3D?5objec@ 00426dec     lib_data:gt_generic.obj
 0002:00003e10       ??_C@_0BM@MHPE@Document?5header?5information?$AA@ 00426e10     lib_data:gt_generic.obj
 0002:00003e2c       ??_C@_0CI@MNHC@2D?5object?5standard?5format?5?$CIvecto@ 00426e2c     lib_data:gt_generic.obj
 0002:00003e54       ??_C@_0CN@JADA@Amiga?5Contiguous?5Bitmap?5?$CIMS?5Basi@ 00426e54     lib_data:gt_generic.obj
 0002:00003e84       ??_C@_0CB@KBNI@Paragraph?5formatting?5information@ 00426e84     lib_data:gt_generic.obj
 0002:00003ea8       ??_C@_0BN@KMJB@24?9bit?5color?5image?5?$CIImpulse?$CJ?$AA@ 00426ea8     lib_data:gt_generic.obj
 0002:00003ec8       ??_C@_0BA@PHBB@Portable?5bitmap?$AA@ 00426ec8     lib_data:gt_generic.obj
 0002:00003ed8       ??_C@_0BP@IEKP@Document?5formating?5information?$AA@ 00426ed8     lib_data:gt_generic.obj
 0002:00003ef8       ??_C@_0BN@EJNF@Copyright?5notice?5and?5license?$AA@ 00426ef8     lib_data:gt_generic.obj
 0002:00003f18       ??_C@_0CA@JIHK@Super?5smooth?5animation?5?$CIProDAD?$CJ?$AA@ 00426f18     lib_data:gt_generic.obj
 0002:00003f38       ??_C@_0BJ@GPOA@Impulse?5Tracker?5Module?5?8?$AA@ 00426f38     lib_data:gt_generic.obj
 0002:00003f54       ??_C@_0N@NCBH@?5?5Comment?3?5?8?$AA@ 00426f54     lib_data:gt_generic.obj
 0002:00003f64       ??_C@_09IMBJ@?5?5Year?3?5?8?$AA@ 00426f64     lib_data:gt_generic.obj
 0002:00003f70       ??_C@_0L@HCIL@?5?5Album?3?5?8?$AA@ 00426f70     lib_data:gt_generic.obj
 0002:00003f7c       ??_C@_0N@ONLA@?5?5Artitst?3?5?8?$AA@ 00426f7c     lib_data:gt_generic.obj
 0002:00003f8c       ??_C@_0L@KCDN@?5?5Title?3?5?8?$AA@ 00426f8c     lib_data:gt_generic.obj
 0002:00003f98       ??_C@_08LDAN@MP3?5TAG?6?$AA@ 00426f98     lib_data:gt_generic.obj
 0002:00003fa4       ??_C@_0BF@BABD@?5bytes?5are?5missing?$FN?6?$AA@ 00426fa4     lib_data:gt_generic.obj
 0002:00003fbc       ??_C@_0BI@EALH@Seems?5to?5be?5a?5MP3?5tag?5?$FL?$AA@ 00426fbc     lib_data:gt_generic.obj
 0002:00003fd4       ??_C@_0BG@JJAD@?5?5Unknown?5block?5type?5?$AA@ 00426fd4     lib_data:gt_generic.obj
 0002:00003fec       ??_C@_0M@FILJ@?5?5Extended?6?$AA@ 00426fec     lib_data:gt_generic.obj
 0002:00003ff8       ??_C@_0O@LEOJ@?5?5End?5repeat?6?$AA@ 00426ff8     lib_data:gt_generic.obj
 0002:00004008       ??_C@_07DIID@?5times?6?$AA@ 00427008     lib_data:gt_generic.obj
 0002:00004010       ??_C@_09ILOI@?5?5Repeat?5?$AA@ 00427010     lib_data:gt_generic.obj
 0002:0000401c       ??_C@_0BC@JGGH@?5?5Repeat?5endless?6?$AA@ 0042701c     lib_data:gt_generic.obj
 0002:00004030       ??_C@_08LFBG@?5?5ASCII?6?$AA@ 00427030     lib_data:gt_generic.obj
 0002:0000403c       ??_C@_09DOE@?5?5Marker?5?$AA@ 0042703c     lib_data:gt_generic.obj
 0002:00004048       ??_C@_06LGO@?5secs?6?$AA@  00427048     lib_data:gt_generic.obj
 0002:00004050       ??_C@_04IFEM@?$CF?41f?$AA@ 00427050     lib_data:gt_generic.obj
 0002:00004058       ??_C@_0P@GCJB@?5?5Silence?5for?5?$AA@ 00427058     lib_data:gt_generic.obj
 0002:00004068       ??_C@_0BC@GDFP@?5?5Sound?5continue?6?$AA@ 00427068     lib_data:gt_generic.obj
 0002:0000407c       ??_C@_06JOEO@2?5bits?$AA@  0042707c     lib_data:gt_generic.obj
 0002:00004084       ??_C@_08JOMM@2?46?5bits?$AA@ 00427084     lib_data:gt_generic.obj
 0002:00004090       ??_C@_06ODIO@4?5bits?$AA@  00427090     lib_data:gt_generic.obj
 0002:00004098       ??_C@_06BIAP@8?5bits?$AA@  00427098     lib_data:gt_generic.obj
 0002:000040a0       ??_C@_05MAHO@?5Hz?0?5?$AA@ 004270a0     lib_data:gt_generic.obj
 0002:000040a8       ??_C@_0P@DEE@?5?5Sound?5data?3?5?$AA@ 004270a8     lib_data:gt_generic.obj
 0002:000040b8       ??_C@_0BL@MGAP@multi?5DAC?5with?5?$CFd?5channels?$AA@ 004270b8     lib_data:gt_generic.obj
 0002:000040d4       ??_C@_0BM@KLNL@?5?5May?5be?5error?5in?5VOC?5file?6?$AA@ 004270d4     lib_data:gt_generic.obj
 0002:000040f0       ??_C@_0CA@CNDJ@?5VOC?5file?6Listing?5block?5types?3?6?$AA@ 004270f0     lib_data:gt_generic.obj
 0002:00004110       ??_C@_0BA@DBCL@Creative?5Voice?5?$AA@ 00427110     lib_data:gt_generic.obj
 0002:00004120       ??_C@_0BM@OOBA@?5?5Character?5device?5driver?5?8?$AA@ 00427120     lib_data:gt_generic.obj
 0002:0000413c       ??_C@_0M@MPLE@?5device?$CIs?$CJ?6?$AA@ 0042713c     lib_data:gt_generic.obj
 0002:00004148       ??_C@_0BM@OCNO@?5?5Block?5device?5driver?5with?5?$AA@ 00427148     lib_data:gt_generic.obj
 0002:00004164       ??_C@_0BD@KOK@DOS?5Device?5driver?6?$AA@ 00427164     lib_data:gt_generic.obj
 0002:00004178       ??_C@_04BAIL@?4EXE?$AA@    00427178     lib_data:gt_exe_header.obj
 0002:00004180       ??_C@_04KDLI@?4COM?$AA@    00427180     lib_data:gt_exe_header.obj
 0002:00004188       ??_C@_0BD@JALO@Special?5filename?3?5?$AA@ 00427188     lib_data:gt_fixedname.obj
 0002:0000419c       ??_C@_0BE@NABE@Special?5extension?3?5?$AA@ 0042719c     lib_data:gt_fixedname.obj
 0002:000041b0       ??_C@_0P@PNOA@?5?5Open?5with?3?5?8?$AA@ 004271b0     lib_data:gt_fixedname.obj
 0002:000041c0       ??_C@_0BE@GGIG@?2Shell?2Open?2Command?$AA@ 004271c0     lib_data:gt_fixedname.obj
 0002:000041d4       ??_C@_0BN@OGFC@Special?5Windows?5extentsion?3?5?$AA@ 004271d4     lib_data:gt_fixedname.obj
 0002:000041f4       ??_C@_09PLOL@?9?9error?9?9?$AA@ 004271f4     lib_data:gt_compare.obj
 0002:00004200       ??_C@_08NPHI@password?$AA@ 00427200     lib_data:gt_compare.obj
 0002:0000420c       ??_C@_08MNBO@extender?$AA@ 0042720c     lib_data:gt_compare.obj
 0002:00004218       ??_C@_07JJAP@sticker?$AA@  00427218     lib_data:gt_compare.obj
 0002:00004220       ??_C@_09ELOB@protector?$AA@ 00427220     lib_data:gt_compare.obj
 0002:0000422c       ??_C@_09GPBF@converter?$AA@ 0042722c     lib_data:gt_compare.obj
 0002:00004238       ??_C@_06BJLO@linker?$AA@   00427238     lib_data:gt_compare.obj
 0002:00004240       ??_C@_08HHAG@compiler?$AA@ 00427240     lib_data:gt_compare.obj
 0002:0000424c       ??_C@_09NFCL@encrypter?$AA@ 0042724c     lib_data:gt_compare.obj
 0002:00004258       ??_C@_06CDJN@packer?$AA@   00427258     lib_data:gt_compare.obj
 0002:00004260       ??_C@_04KKCM@code?$AA@     00427260     lib_data:gt_compare.obj
 0002:00004268       ??_C@_0BD@ODKJ@?5?5Found?5?$CFs?5?8?$CFs?$CFs?8?6?$AA@ 00427268     lib_data:gt_compare.obj
 0002:0000427c       ??_C@_02CPJP@?5?$DP?$AA@   0042727c     lib_data:gt_compare.obj
 0002:00004280       ??_C@_0CC@JOCK@Unsupported?5macro?5character?5?8?$CFc?8@ 00427280     lib_data:gt_macromanager.obj
 0002:000042e8       ??_7GT_EXE_LE_ObjectTableHandler@@6B@ 004272e8     lib_data:gt_exe_le.obj
 0002:000042ec       ??_C@_0DE@DAHL@?5?5?$CF2d?5?$CF08Xh?5?$CF08Xh?5?$CF08Xh?5?$CF02Xh?5?$CF0@ 004272ec     lib_data:gt_exe_le.obj
 0002:00004320       ??_C@_0FB@IMBF@?5?5?5?$CD?5?5?5PhysOfs?5?5?5?5EndOfs?5?5?5?5?5?5Si@ 00427320     lib_data:gt_exe_le.obj
 0002:00004378       ??_C@_0EB@GIBH@?6?5?5Object?5table?5listing?5?$FL?$CFd?5entr@ 00427378     lib_data:gt_exe_le.obj
 0002:000043bc       ??_C@_0BO@JPBE@?5?5Fixup?5section?5size?3?5?5?5?5?$CFld?6?$AA@ 004273bc     lib_data:gt_exe_le.obj
 0002:000043dc       ??_C@_0CE@GBKP@?5?5Bytes?5on?5last?5page?3?5?5?5?5?$CFld?1?$CF08@ 004273dc     lib_data:gt_exe_le.obj
 0002:00004400       ??_C@_0CE@BNAL@?5?5Memory?5page?5size?3?5?5?5?5?5?5?$CFld?1?$CF08@ 00427400     lib_data:gt_exe_le.obj
 0002:00004424       ??_C@_0CE@CFLF@?5?5Memory?5pages?5from?5top?3?5?$CFld?1?$CF08@ 00427424     lib_data:gt_exe_le.obj
 0002:00004448       ??_C@_0CE@LMGK@?5?5Calculated?5EXE?5size?3?5?5?5?$CFld?1?$CF08@ 00427448     lib_data:gt_exe_le.obj
 0002:0000446c       ??_C@_0BK@DOGI@?5?5?5?5SS?3ESP?5?$DN?5?$CF08Xh?3?$CF08Xh?6?$AA@ 0042746c     lib_data:gt_exe_le.obj
 0002:00004488       ??_C@_0BK@DBAG@?5?5?5?5CS?3EIP?5?$DN?5?$CF08Xh?3?$CF08Xh?6?$AA@ 00427488     lib_data:gt_exe_le.obj
 0002:000044a4       ??_C@_0DA@IKFG@?5?5Entrypoint?3?5?$CFld?1?$CF08Xh?5?$CIbase?5ad@ 004274a4     lib_data:gt_exe_le.obj
 0002:000044d4       ??_C@_09KDKB@?5?5?$DO?5?$CFs?5?$DM?6?$AA@ 004274d4     lib_data:gt_exe_le.obj
 0002:000044e0       ??_C@_0BM@BMKP@LE?5EXE?5at?5offset?5?$CFld?1?$CF08Xh?6?$AA@ 004274e0     lib_data:gt_exe_le.obj
 0002:000044fc       ??_7GT_TableColumn@@6B@    004274fc     lib_data:gt_exe_pe.obj
 0002:00004500       ??_7GT_EXE_PE_BasicAnalyzer@@6B@ 00427500     lib_data:gt_exe_pe.obj
 0002:00004504       ??_C@_0CL@POLP@Error?3?5the?5export?5table?5offset?5i@ 00427504     lib_data:gt_exe_pe.obj
 0002:00004530       ??_C@_0FC@NNFG@Export?5table?5of?5DLL?5?8?$CFs?8?3?6?5?5?$CFld?5@ 00427530     lib_data:gt_exe_pe.obj
 0002:00004584       ??_C@_04EFNI@Name?$AA@     00427584     lib_data:gt_exe_pe.obj
 0002:0000458c       ??_C@_06BGLH@Offset?$AA@   0042758c     lib_data:gt_exe_pe.obj
 0002:00004594       ??_C@_07BCCI@Ordinal?$AA@  00427594     lib_data:gt_exe_pe.obj
 0002:0000459c       ??_7GT_Table@@6B@          0042759c     lib_data:gt_exe_pe.obj
 0002:000045a0       ??_C@_08LKCE@?5?5?5?5?5?$CFs?6?$AA@ 004275a0     lib_data:gt_exe_pe.obj
 0002:000045ac       ??_C@_0BD@JDCL@?5?5?5?5?5Ordinal?5?$CD?$CFld?6?$AA@ 004275ac     lib_data:gt_exe_pe.obj
 0002:000045c0       ??_C@_0M@GHNF@?5?5?$CFd?4?5?$CFs?$CFs?6?$AA@ 004275c0     lib_data:gt_exe_pe.obj
 0002:000045cc       ??_C@_0O@HDPP@?5?$CIforwarded?$CB?$CJ?$AA@ 004275cc     lib_data:gt_exe_pe.obj
 0002:000045dc       ??_C@_0DB@NLCJ@Functions?5from?5the?5following?5DLL@ 004275dc     lib_data:gt_exe_pe.obj
 0002:00004610       ??_C@_0CH@CGJG@32?5bit?5OS?12?5with?5presentation?5ma@ 00427610     lib_data:gt_exe_pe.obj
 0002:00004638       ??_C@_0BB@JOPO@Windows?5NT?12000?6?$AA@ 00427638     lib_data:gt_exe_pe.obj
 0002:0000464c       ??_C@_0CN@OJDE@32?5bit?5Windows?5running?5with?5Wind@ 0042764c     lib_data:gt_exe_pe.obj
 0002:0000467c       ??_C@_0BD@OOLD@Invalid?5?$CI0x?$CF08Xh?$CJ?6?$AA@ 0042767c     lib_data:gt_exe_pe.obj
 0002:00004690       ??_C@_0N@DABM@32?5bit?5OS?12?6?$AA@ 00427690     lib_data:gt_exe_pe.obj
 0002:000046a0       ??_C@_0CH@MJIL@16?5bit?5OS?12?5with?5presentation?5ma@ 004276a0     lib_data:gt_exe_pe.obj
 0002:000046c8       ??_C@_0N@EBPG@16?5bit?5OS?12?6?$AA@ 004276c8     lib_data:gt_exe_pe.obj
 0002:000046d8       ??_C@_0CE@NDAG@16?5bit?5Windows?5running?5with?5MS?9D@ 004276d8     lib_data:gt_exe_pe.obj
 0002:000046fc       ??_C@_0CE@EGKF@32?5bit?5Windows?5running?5with?5MS?9D@ 004276fc     lib_data:gt_exe_pe.obj
 0002:00004720       ??_C@_07HMAL@MS?9DOS?6?$AA@ 00427720     lib_data:gt_exe_pe.obj
 0002:00004728       ??_C@_0BA@NIK@32?5bit?5Windows?6?$AA@ 00427728     lib_data:gt_exe_pe.obj
 0002:00004738       ??_C@_0CC@EOPN@OS?12?5presentation?5manager?532?5bit@ 00427738     lib_data:gt_exe_pe.obj
 0002:0000475c       ??_C@_0CC@EFFG@OS?12?5presentation?5manager?516?5bit@ 0042775c     lib_data:gt_exe_pe.obj
 0002:00004780       ??_C@_0BA@JIP@16?5bit?5Windows?6?$AA@ 00427780     lib_data:gt_exe_pe.obj
 0002:00004790       ??_C@_08MMGE@Unknown?6?$AA@ 00427790     lib_data:gt_exe_pe.obj
 0002:0000479c       ??_C@_0BD@DCNA@?5?5Target?5OS?3?5?5?5?5?5?5?$AA@ 0042779c     lib_data:gt_exe_pe.obj
 0002:000047b0       ??_C@_0CF@OCFK@?5?5Productversion?3?5?$CFd?4?$CF02d?4?$CF02d?5?$CI@ 004277b0     lib_data:gt_exe_pe.obj
 0002:000047d8       ??_C@_0CF@DCOH@?5?5Fileversion?3?5?5?5?5?$CFd?4?$CF02d?4?$CF02d?5?$CI@ 004277d8     lib_data:gt_exe_pe.obj
 0002:00004800       ??_C@_0BH@FDFI@VersionInfo?5resource?3?6?$AA@ 00427800     lib_data:gt_exe_pe.obj
 0002:00004818       ??_C@_0CI@NMKG@Error?5reading?5resource?5directory@ 00427818     lib_data:gt_exe_pe.obj
 0002:00004840       ??_C@_0M@FIGB@?5?5?5?5?5?5?8?$CFs?8?6?$AA@ 00427840     lib_data:gt_exe_pe.obj
 0002:00004850       ??_C@_0EA@LFI@?5?5?5?5?5ID?3?50x?$CF08Xh?5RVA?3?50x?$CF08Xh?$DL?5O@ 00427850     lib_data:gt_exe_pe.obj
 0002:00004890       ??_C@_0CD@OIJK@Error?5reading?5resource?5data?5entr@ 00427890     lib_data:gt_exe_pe.obj
 0002:000048b8       ??_C@_0EB@NNPM@Warning?3?5only?53?5recursion?5levels@ 004278b8     lib_data:gt_exe_pe.obj
 0002:000048fc       ??_C@_07KKPM@?5?5?$CFld?3?6?$AA@ 004278fc     lib_data:gt_exe_pe.obj
 0002:00004904       ??_C@_06JMLE@?5?5?$CFs?3?6?$AA@ 00427904     lib_data:gt_exe_pe.obj
 0002:00004910       ??_C@_0EN@EMP@?5?5Total?5resource?5size?3?5?$CFld?5bytes@ 00427910     lib_data:gt_exe_pe.obj
 0002:00004960       ??_C@_0CI@BHNP@Resources?5at?5offset?5?$CF08Xh?5?$CIRVA?5?$CF@ 00427960     lib_data:gt_exe_pe.obj
 0002:00004988       ??_C@_0DL@KKKP@Warning?3?5more?5then?5?$CFd?5data?5direc@ 00427988     lib_data:gt_exe_pe.obj
 0002:000049c4       ??_7GT_EXE_PE_DataDirectoryHandler@@6B@ 004279c4     lib_data:gt_exe_pe.obj
 0002:000049c8       ??_C@_0CD@MMBF@?$CF23s?5?9?5offset?3?5?$CF08Xh?5?9?5RVA?3?5?$CF08X@ 004279c8     lib_data:gt_exe_pe.obj
 0002:000049ec       ??_7GT_EXE_PE_ResourceAnalyzer@@6B@ 004279ec     lib_data:gt_exe_pe.obj
 0002:000049f0       ??_7GT_EXE_PE_ImportAnalyzer@@6B@ 004279f0     lib_data:gt_exe_pe.obj
 0002:000049f4       ??_7GT_EXE_PE_ExportAnalyzer@@6B@ 004279f4     lib_data:gt_exe_pe.obj
 0002:000049f8       ??_C@_0ED@NMMI@Listing?5of?5all?5used?5data?5directo@ 004279f8     lib_data:gt_exe_pe.obj
 0002:00004a3c       ??_C@_0CP@BFLA@Seems?5like?5?$CFld?5bytes?5of?5the?5file@ 00427a3c     lib_data:gt_exe_pe.obj
 0002:00004a6c       ??_C@_08JJIF@_winzip_?$AA@ 00427a6c     lib_data:gt_exe_pe.obj
 0002:00004a78       ??_C@_09KNHB@Phys?5offs?$AA@ 00427a78     lib_data:gt_exe_pe.obj
 0002:00004a84       ??_C@_09LKAJ@Phys?5size?$AA@ 00427a84     lib_data:gt_exe_pe.obj
 0002:00004a90       ??_C@_06KCKF@?5?5?5RVA?$AA@ 00427a90     lib_data:gt_exe_pe.obj
 0002:00004a98       ??_C@_09JAOE@Virt?5size?$AA@ 00427a98     lib_data:gt_exe_pe.obj
 0002:00004aa4       ??_C@_0DO@JGJA@Sections?5according?5to?5section?5ta@ 00427aa4     lib_data:gt_exe_pe.obj
 0002:00004ae8       ??_C@_0FG@PEPK@?5?5Stack?5reserve?3?5?$CFld?6?5?5Stack?5com@ 00427ae8     lib_data:gt_exe_pe.obj
 0002:00004b40       ??_C@_0BA@GKBF@?5?5?5?5Big?5endian?6?$AA@ 00427b40     lib_data:gt_exe_pe.obj
 0002:00004b50       ??_C@_0CN@JKIP@?5?5?5?5File?5should?5be?5run?5only?5on?5a@ 00427b50     lib_data:gt_exe_pe.obj
 0002:00004b80       ??_C@_0BJ@GOGP@?5?5?5?5Library?5image?5?$CIDLL?$CJ?6?$AA@ 00427b80     lib_data:gt_exe_pe.obj
 0002:00004b9c       ??_C@_0BB@HPMA@?5?5?5?5System?5File?6?$AA@ 00427b9c     lib_data:gt_exe_pe.obj
 0002:00004bb0       ??_C@_0EC@HCKD@?5?5?5?5If?5image?5is?5on?5removeable?5me@ 00427bb0     lib_data:gt_exe_pe.obj
 0002:00004bf4       ??_C@_0DE@HJFJ@?5?5?5?5Debugging?5info?5stripped?5from@ 00427bf4     lib_data:gt_exe_pe.obj
 0002:00004c28       ??_C@_0CP@OKAO@?5?5?5?5Machine?5based?5on?532?9bit?9word@ 00427c28     lib_data:gt_exe_pe.obj
 0002:00004c58       ??_C@_0BD@NFOD@?5?5?5?5Little?5endian?6?$AA@ 00427c58     lib_data:gt_exe_pe.obj
 0002:00004c6c       ??_C@_0CM@KLPM@?5?5?5?5Application?5can?5handle?5?$DO?52GB@ 00427c6c     lib_data:gt_exe_pe.obj
 0002:00004c98       ??_C@_0CD@JIFJ@?5?5?5?5Aggressively?5trim?5working?5se@ 00427c98     lib_data:gt_exe_pe.obj
 0002:00004cbc       ??_C@_0CG@HKPB@?5?5?5?5Local?5symbols?5stripped?5from?5@ 00427cbc     lib_data:gt_exe_pe.obj
 0002:00004ce4       ??_C@_0CF@GGLC@?5?5?5?5Line?5numbers?5stripped?5from?5f@ 00427ce4     lib_data:gt_exe_pe.obj
 0002:00004d0c       ??_C@_0BI@GDCG@?5?5?5?5File?5is?5executable?6?$AA@ 00427d0c     lib_data:gt_exe_pe.obj
 0002:00004d24       ??_C@_0CI@JDDI@?5?5?5?5Relocation?5info?5stripped?5fro@ 00427d24     lib_data:gt_exe_pe.obj
 0002:00004d4c       ??_C@_09LGKO@?5?5Flags?3?6?$AA@ 00427d4c     lib_data:gt_exe_pe.obj
 0002:00004d58       ??_C@_0BL@NHIM@?5?5Linker?5version?3?5?$CFd?4?$CF02i?6?$AA@ 00427d58     lib_data:gt_exe_pe.obj
 0002:00004d74       ??_C@_0O@JHL@gt_exe_pe?4cxx?$AA@ 00427d74     lib_data:gt_exe_pe.obj
 0002:00004d84       ??_C@_0BB@ELHP@?5?5Subsystem?3?5?$CFs?6?$AA@ 00427d84     lib_data:gt_exe_pe.obj
 0002:00004d98       ??_C@_0BM@EDME@EFI?5driver?1runtime?5services?$AA@ 00427d98     lib_data:gt_exe_pe.obj
 0002:00004db4       ??_C@_0BJ@LIDB@EFI?5driver?1boot?5services?$AA@ 00427db4     lib_data:gt_exe_pe.obj
 0002:00004dd0       ??_C@_0BA@NLFB@EFI?5application?$AA@ 00427dd0     lib_data:gt_exe_pe.obj
 0002:00004de0       ??_C@_0L@NODJ@Windows?5CE?$AA@ 00427de0     lib_data:gt_exe_pe.obj
 0002:00004dec       ??_C@_0L@GLDH@Posix?5text?$AA@ 00427dec     lib_data:gt_exe_pe.obj
 0002:00004df8       ??_C@_07MJOI@Console?$AA@  00427df8     lib_data:gt_exe_pe.obj
 0002:00004e00       ??_C@_0M@MC@Windows?5GUI?$AA@ 00427e00     lib_data:gt_exe_pe.obj
 0002:00004e0c       ??_C@_0CA@BNPE@device?5driver?1native?5Windows?5NT?$AA@ 00427e0c     lib_data:gt_exe_pe.obj
 0002:00004e2c       ??_C@_0BN@BPBG@?5?5Required?5OS?3?5?$CFd?4?$CF02i?5?9?5?$CFs?6?$AA@ 00427e2c     lib_data:gt_exe_pe.obj
 0002:00004e4c       ??_C@_0P@MGKA@Win?598?5or?5NT?55?$AA@ 00427e4c     lib_data:gt_exe_pe.obj
 0002:00004e5c       ??_C@_0P@LFBO@Win?595?5or?5NT?54?$AA@ 00427e5c     lib_data:gt_exe_pe.obj
 0002:00004e6c       ??_C@_0M@HMGC@Win?5NT?53?451?$AA@ 00427e6c     lib_data:gt_exe_pe.obj
 0002:00004e78       ??_C@_0BF@MPED@any?5version?5of?5Win32?$AA@ 00427e78     lib_data:gt_exe_pe.obj
 0002:00004e90       ??_C@_0BH@EGDC@version?50?5of?5Win32?5?$DL?9?$CJ?$AA@ 00427e90     lib_data:gt_exe_pe.obj
 0002:00004ea8       ??_C@_0BJ@JAJN@?5?5Required?5CPU?5type?3?5?$CFs?6?$AA@ 00427ea8     lib_data:gt_exe_pe.obj
 0002:00004ec4       ??_C@_0BA@GIEI@MIPS16?5with?5FPU?$AA@ 00427ec4     lib_data:gt_exe_pe.obj
 0002:00004ed4       ??_C@_0O@OICL@MIPS?5with?5FPU?$AA@ 00427ed4     lib_data:gt_exe_pe.obj
 0002:00004ee4       ??_C@_0BF@PFOC@DEC?5Alpha?5AXP?564?9bit?$AA@ 00427ee4     lib_data:gt_exe_pe.obj
 0002:00004efc       ??_C@_0BG@EEMH@Motorola?568000?5series?$AA@ 00427efc     lib_data:gt_exe_pe.obj
 0002:00004f14       ??_C@_06FAJP@MIPS16?$AA@   00427f14     lib_data:gt_exe_pe.obj
 0002:00004f1c       ??_C@_0L@DMJD@Intel?5IA64?$AA@ 00427f1c     lib_data:gt_exe_pe.obj
 0002:00004f28       ??_C@_0BL@NDEN@IBM?5PowerPC?0?5little?5endian?$AA@ 00427f28     lib_data:gt_exe_pe.obj
 0002:00004f44       ??_C@_0M@NBGL@Hitachi?5SH4?$AA@ 00427f44     lib_data:gt_exe_pe.obj
 0002:00004f50       ??_C@_0M@IEIO@Hitachi?5SH3?$AA@ 00427f50     lib_data:gt_exe_pe.obj
 0002:00004f5c       ??_C@_0O@KDLK@DEC?5Alpha?5AXP?$AA@ 00427f5c     lib_data:gt_exe_pe.obj
 0002:00004f6c       ??_C@_0O@MFCF@MIPS?5?$CIR10000?$CJ?$AA@ 00427f6c     lib_data:gt_exe_pe.obj
 0002:00004f7c       ??_C@_0BG@PPGO@MIPS?5Mark?5III?5?$CIR4000?$CJ?$AA@ 00427f7c     lib_data:gt_exe_pe.obj
 0002:00004f94       ??_C@_0BF@JNBP@MIPS?5Mark?5II?5?$CIR6000?$CJ?$AA@ 00427f94     lib_data:gt_exe_pe.obj
 0002:00004fac       ??_C@_0BL@NODG@MIPS?5Mark?5I?5?$CIR2000?0?5R3000?$CJ?$AA@ 00427fac     lib_data:gt_exe_pe.obj
 0002:00004fc8       ??_C@_07FOGL@Pentium?$AA@  00427fc8     lib_data:gt_exe_pe.obj
 0002:00004fd0       ??_C@_05NNBO@80486?$AA@    00427fd0     lib_data:gt_exe_pe.obj
 0002:00004fd8       ??_C@_05GDHP@80386?$AA@    00427fd8     lib_data:gt_exe_pe.obj
 0002:00004fe0       ??_C@_0BA@GKK@CPU?5independent?$AA@ 00427fe0     lib_data:gt_exe_pe.obj
 0002:00004ff0       ??_C@_0FC@DAEC@?5?5Calculated?5PE?5EXE?5size?3?5?$CFld?6?5?5@ 00427ff0     lib_data:gt_exe_pe.obj
 0002:00005044       ??_C@_0DA@PEHP@?5?5?5?5may?5be?5resource?5DLL?5or?5somet@ 00428044     lib_data:gt_exe_pe.obj
 0002:00005074       ??_C@_0CG@MIJJ@?5?5Entrypoint?3?5?$CFld?1?$CF08Xh?5?$CIRVA?3?5?$CF0@ 00428074     lib_data:gt_exe_pe.obj
 0002:0000509c       ??_C@_0BL@LIKA@PE?5?$CFs?5at?5offset?5?$CFld?1?$CF08Xh?6?$AA@ 0042809c     lib_data:gt_exe_pe.obj
 0002:000050b8       ??_C@_03EPLF@EXE?$AA@      004280b8     lib_data:gt_exe_pe.obj
 0002:000050bc       ??_C@_03NDIP@DLL?$AA@      004280bc     lib_data:gt_exe_pe.obj
 0002:000050c0       ??_C@_0CD@DPCM@Error?3?5failed?5to?5read?5data?5at?5?$CFl@ 004280c0     lib_data:gt_exe_pe.obj
 0002:000050e4       ??_C@_0CJ@KF@?5?5Not?5processed?5with?5any?5known?5p@ 004280e4     lib_data:gt_exe_pe.obj
 0002:00005110       ??_C@_09KIFP@unknown?6?6?$AA@ 00428110     lib_data:gt_exe_pe.obj
 0002:0000511c       ??_C@_0BF@PDGG@Borland?5Delphi?53?14?6?6?$AA@ 0042811c     lib_data:gt_exe_pe.obj
 0002:00005134       ??_C@_04MFAJ@CODE?$AA@     00428134     lib_data:gt_exe_pe.obj
 0002:0000513c       ??_C@_05OCG@?5?$CI?$DP?$DP?$CJ?$AA@ 0042813c     lib_data:gt_exe_pe.obj
 0002:00005144       ??_C@_07PBIL@5?40?5SP3?$AA@ 00428144     lib_data:gt_exe_pe.obj
 0002:0000514c       ??_C@_03JCKC@4?42?$AA@     0042814c     lib_data:gt_exe_pe.obj
 0002:00005150       ??_C@_03NDHK@3?41?$AA@     00428150     lib_data:gt_exe_pe.obj
 0002:00005154       ??_C@_0P@IIKA@MS?5Visual?5C?$CL?$CL?5?$AA@ 00428154     lib_data:gt_exe_pe.obj
 0002:00005164       ??_C@_05HCME@?4text?$AA@   00428164     lib_data:gt_exe_pe.obj
 0002:0000516c       ??_C@_0BL@OMJ@?5?5Seems?5to?5be?5compiled?5by?5?$AA@ 0042816c     lib_data:gt_exe_pe.obj
 0002:00005188       ??_C@_0BB@LKAF@Processed?5with?3?6?$AA@ 00428188     lib_data:gt_exe_pe.obj
 0002:0000519c       ??_C@_0CC@NHDN@Entrypoint?5is?5out?5of?5file?5bounds@ 0042819c     lib_data:gt_exe_pe.obj
 0002:00005200       ??_C@_01GJD@?9?$AA@        00428200     lib_data:gt_exe_ne.obj
 0002:00005204       ??_C@_05FEJB@Alloc?$AA@    00428204     lib_data:gt_exe_ne.obj
 0002:0000520c       ??_C@_04BBDK@Size?$AA@     0042820c     lib_data:gt_exe_ne.obj
 0002:00005214       ??_C@_06KCHC@EndPos?$AA@   00428214     lib_data:gt_exe_ne.obj
 0002:0000521c       ??_C@_08ODNC@StartPos?$AA@ 0042821c     lib_data:gt_exe_ne.obj
 0002:00005228       ??_C@_04FCOP@Type?$AA@     00428228     lib_data:gt_exe_ne.obj
 0002:00005230       ??_C@_02GDHA@Nr?$AA@       00428230     lib_data:gt_exe_ne.obj
 0002:00005234       ??_C@_0BK@ILPE@?5?5Segment?5table?5listing?3?6?$AA@ 00428234     lib_data:gt_exe_ne.obj
 0002:00005250       ??_C@_0BI@ILPK@?5?5?5?580x87?5instructions?6?$AA@ 00428250     lib_data:gt_exe_ne.obj
 0002:00005268       ??_C@_0BI@PMEG@?5?5?5?580386?5instructions?6?$AA@ 00428268     lib_data:gt_exe_ne.obj
 0002:00005280       ??_C@_0BI@IGH@?5?5?5?580286?5instructions?6?$AA@ 00428280     lib_data:gt_exe_ne.obj
 0002:00005298       ??_C@_0BH@CFCH@?5?5?5?58086?5instructions?6?$AA@ 00428298     lib_data:gt_exe_ne.obj
 0002:000052b0       ??_C@_0BJ@IGLN@?5?5?5?5Protected?5mode?5only?6?$AA@ 004282b0     lib_data:gt_exe_ne.obj
 0002:000052cc       ??_C@_0CD@IKNC@?5?5?5?5File?5is?5a?5Windows?5applicatio@ 004282cc     lib_data:gt_exe_ne.obj
 0002:000052f0       ??_C@_0CK@LBK@?5?5?5?5File?5is?5a?5dynamic?9link?5libra@ 004282f0     lib_data:gt_exe_ne.obj
 0002:0000531c       ??_C@_0BC@MPLL@?5?5Program?5flags?3?6?$AA@ 0042831c     lib_data:gt_exe_ne.obj
 0002:00005330       ??_C@_0BL@CONI@?5?5Linker?5version?3?5?$CFd?4?$CF02d?6?$AA@ 00428330     lib_data:gt_exe_ne.obj
 0002:0000534c       ??_C@_0O@DKJH@unknown?5?$CI?$CFd?$CJ?6?$AA@ 0042834c     lib_data:gt_exe_ne.obj
 0002:0000535c       ??_C@_0CD@LFEC@Phar?5Lap?5DOS?5Extender?5286?5Window@ 0042835c     lib_data:gt_exe_ne.obj
 0002:00005380       ??_C@_0CA@MJHE@Phar?5Lap?5DOS?5Extender?5286?5OS?12?6?$AA@ 00428380     lib_data:gt_exe_ne.obj
 0002:000053a0       ??_C@_0CK@BLNP@BOSS?5?$CIBorland?5Operating?5System?5S@ 004283a0     lib_data:gt_exe_ne.obj
 0002:000053cc       ??_C@_0N@BLOB@Windows?5386?6?$AA@ 004283cc     lib_data:gt_exe_ne.obj
 0002:000053dc       ??_C@_0BF@MJLC@European?5MS?9DOS?54?4x?6?$AA@ 004283dc     lib_data:gt_exe_ne.obj
 0002:000053f4       ??_C@_0BB@PLOE@Windows?5?$CFd?4?$CF02d?6?$AA@ 004283f4     lib_data:gt_exe_ne.obj
 0002:00005408       ??_C@_0BI@KLHP@?5?5?5?5Has?5fast?9load?5area?6?$AA@ 00428408     lib_data:gt_exe_ne.obj
 0002:00005420       ??_C@_0BM@HGPN@?5?5?5?52?4x?5proportional?5fonts?6?$AA@ 00428420     lib_data:gt_exe_ne.obj
 0002:0000543c       ??_C@_0BI@KPJD@?5?5?5?52?4x?5protected?5mode?6?$AA@ 0042843c     lib_data:gt_exe_ne.obj
 0002:00005454       ??_C@_0BL@GGFF@?5?5?5?5Long?5filename?5support?6?$AA@ 00428454     lib_data:gt_exe_ne.obj
 0002:00005470       ??_C@_05PJOP@OS?12?6?$AA@  00428470     lib_data:gt_exe_ne.obj
 0002:00005478       ??_C@_08MJLG@unknown?6?$AA@ 00428478     lib_data:gt_exe_ne.obj
 0002:00005484       ??_C@_0BM@MMPO@?5?5Target?5operating?5system?3?5?$AA@ 00428484     lib_data:gt_exe_ne.obj
 0002:000054a0       ??_C@_0DA@MDCP@?5?5Absolute?5entry?5point?5table?5off@ 004284a0     lib_data:gt_exe_ne.obj
 0002:000054d0       ??_C@_0DD@NCK@?5?5Absolute?5imported?5names?5table?5@ 004284d0     lib_data:gt_exe_ne.obj
 0002:00005504       ??_C@_0DG@BOJJ@?5?5Absolute?5module?5references?5tab@ 00428504     lib_data:gt_exe_ne.obj
 0002:0000553c       ??_C@_0DD@DKFO@?5?5Absolute?5resident?5names?5table?5@ 0042853c     lib_data:gt_exe_ne.obj
 0002:00005570       ??_C@_0CN@LHPE@?5?5Absolute?5resource?5table?5offset@ 00428570     lib_data:gt_exe_ne.obj
 0002:000055a0       ??_C@_0CM@IAKF@?5?5Absolute?5segment?5table?5offset?3@ 004285a0     lib_data:gt_exe_ne.obj
 0002:000055cc       ??_C@_0DA@PBMC@?5?5File?5has?5a?5selfloader?5?$CImay?5be?5@ 004285cc     lib_data:gt_exe_ne.obj
 0002:000055fc       ??_C@_0CD@OHHI@?5?5Calculated?5file?5size?3?5?$CFld?1?$CF08X@ 004285fc     lib_data:gt_exe_ne.obj
 0002:00005620       ??_C@_0CD@KHAG@?5?5Error?3?5the?5CS?5segment?5is?5empty@ 00428620     lib_data:gt_exe_ne.obj
 0002:00005644       ??_C@_0DB@CFFH@?5?5Error?3?5CS?5is?5greater?5than?5the?5@ 00428644     lib_data:gt_exe_ne.obj
 0002:00005678       ??_C@_0CE@EMMB@?5?5Entrypoint?5is?5out?5of?5file?5boun@ 00428678     lib_data:gt_exe_ne.obj
 0002:0000569c       ??_C@_0BJ@KOEM@?5?5Entrypoint?3?5?$CFld?1?$CF08Xh?6?$AA@ 0042869c     lib_data:gt_exe_ne.obj
 0002:000056b8       ??_C@_0BM@BJNF@NE?5EXE?5at?5offset?5?$CFld?1?$CF08Xh?6?$AA@ 004286b8     lib_data:gt_exe_ne.obj
 0002:00005718       ??_C@_0BN@LMAI@Section?5table?5was?5not?5found?6?$AA@ 00428718     lib_data:gt_exe_pe_sectiontablehdl.obj
 0002:00005738       ??_C@_0CB@GPFJ@Failed?5to?5read?5PE?5section?5table?6@ 00428738     lib_data:gt_exe_pe_sectiontablehdl.obj
 0002:0000575c       ??_7GT_EXE_PE_SectionTableAnalyzer@@6B@ 0042875c     lib_data:gt_exe_pe_sectiontablehdl.obj
 0002:00005760       ??_C@_0BE@GLMI@COM?$CL?5Runtime?5Header?$AA@ 00428760     lib_data:gt_exe_types.obj
 0002:00005774       ??_C@_0BI@DBIF@Delay?5Import?5Descriptor?$AA@ 00428774     lib_data:gt_exe_types.obj
 0002:0000578c       ??_C@_0BF@COCJ@Import?5Address?5Table?$AA@ 0042878c     lib_data:gt_exe_types.obj
 0002:000057a4       ??_C@_0BD@KFDL@Bound?5Import?5Table?$AA@ 004287a4     lib_data:gt_exe_types.obj
 0002:000057b8       ??_C@_0BC@PAHO@Load?5Config?5Table?$AA@ 004287b8     lib_data:gt_exe_types.obj
 0002:000057cc       ??_C@_09KPL@TLS?5Table?$AA@ 004287cc     lib_data:gt_exe_types.obj
 0002:000057d8       ??_C@_0L@INGL@Global?5Ptr?$AA@ 004287d8     lib_data:gt_exe_types.obj
 0002:000057e4       ??_C@_0N@BFCG@Architecture?$AA@ 004287e4     lib_data:gt_exe_types.obj
 0002:000057f4       ??_C@_0L@JHPA@Debug?5data?$AA@ 004287f4     lib_data:gt_exe_types.obj
 0002:00005800       ??_C@_0BG@LNEG@Base?5relocation?5Table?$AA@ 00428800     lib_data:gt_exe_types.obj
 0002:00005818       ??_C@_0BC@FGLM@Certificate?5Table?$AA@ 00428818     lib_data:gt_exe_types.obj
 0002:0000582c       ??_C@_0BA@MIGL@Exception?5Table?$AA@ 0042882c     lib_data:gt_exe_types.obj
 0002:0000583c       ??_C@_0BA@NNKG@Ressource?5Table?$AA@ 0042883c     lib_data:gt_exe_types.obj
 0002:0000584c       ??_C@_0N@DEDF@Import?5Table?$AA@ 0042884c     lib_data:gt_exe_types.obj
 0002:0000585c       ??_C@_0N@EIH@Export?5Table?$AA@ 0042885c     lib_data:gt_exe_types.obj
 0002:0000586c       ??_C@_04JKFK@HTML?$AA@     0042886c     lib_data:gt_exe_types.obj
 0002:00005874       ??_C@_0O@BHA@Animated?5Icon?$AA@ 00428874     lib_data:gt_exe_types.obj
 0002:00005884       ??_C@_0BA@POPF@Animated?5Cursor?$AA@ 00428884     lib_data:gt_exe_types.obj
 0002:00005894       ??_C@_03DCHD@VXD?$AA@      00428894     lib_data:gt_exe_types.obj
 0002:00005898       ??_C@_0M@CEEA@Plug?8n?8Play?$AA@ 00428898     lib_data:gt_exe_types.obj
 0002:000058a4       ??_C@_0P@KGNF@Dialog?5Include?$AA@ 004288a4     lib_data:gt_exe_types.obj
 0002:000058b4       ??_C@_07MNFD@Version?$AA@  004288b4     lib_data:gt_exe_types.obj
 0002:000058bc       ??_C@_0L@IGPE@Group?5Icon?$AA@ 004288bc     lib_data:gt_exe_types.obj
 0002:000058c8       ??_C@_0N@OPID@Group?5Cursor?$AA@ 004288c8     lib_data:gt_exe_types.obj
 0002:000058d8       ??_C@_0O@DEPC@Message?5Table?$AA@ 004288d8     lib_data:gt_exe_types.obj
 0002:000058e8       ??_C@_06LGJH@RCData?$AA@   004288e8     lib_data:gt_exe_types.obj
 0002:000058f0       ??_C@_0M@BGGO@Accelerator?$AA@ 004288f0     lib_data:gt_exe_types.obj
 0002:000058fc       ??_C@_04CLJC@Font?$AA@     004288fc     lib_data:gt_exe_types.obj
 0002:00005904       ??_C@_0P@LACI@Font?5Directory?$AA@ 00428904     lib_data:gt_exe_types.obj
 0002:00005914       ??_C@_06PINC@String?$AA@   00428914     lib_data:gt_exe_types.obj
 0002:0000591c       ??_C@_06FPEO@Dialog?$AA@   0042891c     lib_data:gt_exe_types.obj
 0002:00005924       ??_C@_04PAPL@Menu?$AA@     00428924     lib_data:gt_exe_types.obj
 0002:0000592c       ??_C@_04JNBP@Icon?$AA@     0042892c     lib_data:gt_exe_types.obj
 0002:00005934       ??_C@_06KLJN@Bitmap?$AA@   00428934     lib_data:gt_exe_types.obj
 0002:0000593c       ??_C@_06KIBG@Cursor?$AA@   0042893c     lib_data:gt_exe_types.obj
 0002:00005988       ??_C@_0CD@COHP@?5?5File?5has?5no?5valid?5segment?5tabl@ 00428988     lib_data:gt_exe_ne_segmenthdl.obj
 0002:000059ac       ??_C@_0CK@OBEE@?5?5Failed?5to?5read?5segment?5table?5f@ 004289ac     lib_data:gt_exe_ne_segmenthdl.obj
 0002:000059d8       ??_7GT_EXE_NE_SegmentHandler@@6B@ 004289d8     lib_data:gt_exe_ne_segmenthdl.obj
 0002:000059dc       ??_C@_04IDIA@DATA?$AA@     004289dc     lib_data:gt_exe_ne_segmenthdl.obj
 0002:000059e4       ??_C@_06HCIJ@_last_?$AA@   004289e4     lib_archive:gt_archiver.obj
 0002:000059ec       ??_C@_03FOJF@ZPK?$AA@      004289ec     lib_archive:gt_archiver.obj
 0002:000059f0       ??_C@_03EKGB@ZOO?$AA@      004289f0     lib_archive:gt_archiver.obj
 0002:000059f4       ??_C@_03JFLD@ZIP?$AA@      004289f4     lib_archive:gt_archiver.obj
 0002:000059f8       ??_C@_03NABB@ZET?$AA@      004289f8     lib_archive:gt_archiver.obj
 0002:000059fc       ??_C@_02GONE@YZ?$AA@       004289fc     lib_archive:gt_archiver.obj
 0002:00005a00       ??_C@_02DJIL@YC?$AA@       00428a00     lib_archive:gt_archiver.obj
 0002:00005a04       ??_C@_03PLCO@XPA?$AA@      00428a04     lib_archive:gt_archiver.obj
 0002:00005a08       ??_C@_02COHM@XL?$AA@       00428a08     lib_archive:gt_archiver.obj
 0002:00005a0c       ??_C@_03JICF@XIE?$AA@      00428a0c     lib_archive:gt_archiver.obj
 0002:00005a10       ??_C@_03KOCK@UHA?$AA@      00428a10     lib_archive:gt_archiver.obj
 0002:00005a14       ??_C@_03GMIB@UFA?$AA@      00428a14     lib_archive:gt_archiver.obj
 0002:00005a18       ??_C@_03IBGI@UC2?$AA@      00428a18     lib_archive:gt_archiver.obj
 0002:00005a1c       ??_C@_03JAL@TAR?$AA@       00428a1c     lib_archive:gt_archiver.obj
 0002:00005a20       ??_C@_04PLOB@SZIP?$AA@     00428a20     lib_archive:gt_archiver.obj
 0002:00005a28       ??_C@_07HJCL@Synetic?$AA@  00428a28     lib_archive:gt_archiver.obj
 0002:00005a30       ??_C@_04DINJ@SWAG?$AA@     00428a30     lib_archive:gt_archiver.obj
 0002:00005a38       ??_C@_08IFPI@Stirling?$AA@ 00428a38     lib_archive:gt_archiver.obj
 0002:00005a44       ??_C@_03IJHL@SQZ?$AA@      00428a44     lib_archive:gt_archiver.obj
 0002:00005a48       ??_C@_05DOLK@SQWEZ?$AA@    00428a48     lib_archive:gt_archiver.obj
 0002:00005a50       ??_C@_03HGON@SOF?$AA@      00428a50     lib_archive:gt_archiver.obj
 0002:00005a54       ??_C@_03IEGK@SKY?$AA@      00428a54     lib_archive:gt_archiver.obj
 0002:00005a58       ??_C@_03INAD@SBX?$AA@      00428a58     lib_archive:gt_archiver.obj
 0002:00005a5c       ??_C@_03LHGK@SAR?$AA@      00428a5c     lib_archive:gt_archiver.obj
 0002:00005a60       ??_C@_03DCJK@RNC?$AA@      00428a60     lib_archive:gt_archiver.obj
 0002:00005a64       ??_C@_09BNJN@RKive?5?$CI2?$CJ?$AA@ 00428a64     lib_archive:gt_archiver.obj
 0002:00005a70       ??_C@_09CGGC@RKive?5?$CI1?$CJ?$AA@ 00428a70     lib_archive:gt_archiver.obj
 0002:00005a7c       ??_C@_03OEOK@RAX?$AA@      00428a7c     lib_archive:gt_archiver.obj
 0002:00005a80       ??_C@_03OFHM@RAR?$AA@      00428a80     lib_archive:gt_archiver.obj
 0002:00005a84       ??_C@_07CPEA@old?5RAR?$AA@ 00428a84     lib_archive:gt_archiver.obj
 0002:00005a8c       ??_C@_03HBPF@QFC?$AA@      00428a8c     lib_archive:gt_archiver.obj
 0002:00005a90       ??_C@_01KGCH@Q?$AA@        00428a90     lib_archive:gt_archiver.obj
 0002:00005a94       ??_C@_04PLLD@PPMZ?$AA@     00428a94     lib_archive:gt_archiver.obj
 0002:00005a9c       ??_C@_03LHIB@PHP?$AA@      00428a9c     lib_archive:gt_archiver.obj
 0002:00005aa0       ??_C@_03EBFB@PAR?$AA@      00428aa0     lib_archive:gt_archiver.obj
 0002:00005aa4       ??_C@_06LLNJ@oPAQue?$AA@   00428aa4     lib_archive:gt_archiver.obj
 0002:00005aac       ??_C@_08HENK@IBM?5Pack?$AA@ 00428aac     lib_archive:gt_archiver.obj
 0002:00005ab8       ??_C@_04LCLM@Nero?$AA@     00428ab8     lib_archive:gt_archiver.obj
 0002:00005ac0       ??_C@_03KONJ@MSC?$AA@      00428ac0     lib_archive:gt_archiver.obj
 0002:00005ac4       ??_C@_03OKMC@MAR?$AA@      00428ac4     lib_archive:gt_archiver.obj
 0002:00005ac8       ??_C@_03KBNF@LZO?$AA@      00428ac8     lib_archive:gt_archiver.obj
 0002:00005acc       ??_C@_03PEDA@LZH?$AA@      00428acc     lib_archive:gt_archiver.obj
 0002:00005ad0       ??_C@_03KBP@LZA?$AA@       00428ad0     lib_archive:gt_archiver.obj
 0002:00005ad4       ??_C@_08JHGP@Links?5LS?$AA@ 00428ad4     lib_archive:gt_archiver.obj
 0002:00005ae0       ??_C@_03KFKN@LIM?$AA@      00428ae0     lib_archive:gt_archiver.obj
 0002:00005ae4       ??_C@_02LFHO@LG?$AA@       00428ae4     lib_archive:gt_archiver.obj
 0002:00005ae8       ??_C@_03GBC@JRC?$AA@       00428ae8     lib_archive:gt_archiver.obj
 0002:00005aec       ??_C@_03FEKD@JAR?$AA@      00428aec     lib_archive:gt_archiver.obj
 0002:00005af0       ??_C@_03OGID@ISC?$AA@      00428af0     lib_archive:gt_archiver.obj
 0002:00005af4       ??_C@_03NMAO@INS?$AA@      00428af4     lib_archive:gt_archiver.obj
 0002:00005af8       ??_C@_03BIEI@IMP?$AA@      00428af8     lib_archive:gt_archiver.obj
 0002:00005afc       ??_C@_04KLNL@Inno?$AA@     00428afc     lib_archive:gt_archiver.obj
 0002:00005b04       ??_C@_09LFAP@Hyper?52?46?$AA@ 00428b04     lib_archive:gt_archiver.obj
 0002:00005b10       ??_C@_09EKLG@Hyper?52?45?$AA@ 00428b10     lib_archive:gt_archiver.obj
 0002:00005b1c       ??_C@_03JLLB@HQX?$AA@      00428b1c     lib_archive:gt_archiver.obj
 0002:00005b20       ??_C@_03NKEE@HPA?$AA@      00428b20     lib_archive:gt_archiver.obj
 0002:00005b24       ??_C@_03KFKA@HAP?$AA@      00428b24     lib_archive:gt_archiver.obj
 0002:00005b28       ??_C@_02BAKG@HA?$AA@       00428b28     lib_archive:gt_archiver.obj
 0002:00005b2c       ??_C@_04LMDK@GZip?$AA@     00428b2c     lib_archive:gt_archiver.obj
 0002:00005b34       ??_C@_06FBOJ@FINISH?$AA@   00428b34     lib_archive:gt_archiver.obj
 0002:00005b3c       ??_C@_03GIKF@ESP?$AA@      00428b3c     lib_archive:gt_archiver.obj
 0002:00005b40       ??_C@_03IBFC@ELI?$AA@      00428b40     lib_archive:gt_archiver.obj
 0002:00005b44       ??_C@_03DGNA@DWC?$AA@      00428b44     lib_archive:gt_archiver.obj
 0002:00005b48       ??_C@_03CKL@DPA?$AA@       00428b48     lib_archive:gt_archiver.obj
 0002:00005b4c       ??_C@_04HJMF@CPAC?$AA@     00428b4c     lib_archive:gt_archiver.obj
 0002:00005b54       ??_C@_06HJBB@COMP16?$AA@   00428b54     lib_archive:gt_archiver.obj
 0002:00005b5c       ??_C@_03CKJ@COD?$AA@       00428b5c     lib_archive:gt_archiver.obj
 0002:00005b60       ??_C@_03GBEG@CHZ?$AA@      00428b60     lib_archive:gt_archiver.obj
 0002:00005b64       ??_C@_03DPHA@CAB?$AA@      00428b64     lib_archive:gt_archiver.obj
 0002:00005b68       ??_C@_02IKNG@BZ?$AA@       00428b68     lib_archive:gt_archiver.obj
 0002:00005b6c       ??_C@_03NEHO@BSN?$AA@      00428b6c     lib_archive:gt_archiver.obj
 0002:00005b70       ??_C@_03NFCD@BSA?$AA@      00428b70     lib_archive:gt_archiver.obj
 0002:00005b74       ??_C@_03HEMK@BS2?$AA@      00428b74     lib_archive:gt_archiver.obj
 0002:00005b78       ??_C@_03FAHE@BOA?$AA@      00428b78     lib_archive:gt_archiver.obj
 0002:00005b7c       ??_C@_03DPDD@BLI?$AA@      00428b7c     lib_archive:gt_archiver.obj
 0002:00005b80       ??_C@_03HANE@BIX?$AA@      00428b80     lib_archive:gt_archiver.obj
 0002:00005b84       ??_C@_03CDND@ASD?$AA@      00428b84     lib_archive:gt_archiver.obj
 0002:00005b88       ??_C@_03JEJA@AR7?$AA@      00428b88     lib_archive:gt_archiver.obj
 0002:00005b8c       ??_C@_03GCON@ARX?$AA@      00428b8c     lib_archive:gt_archiver.obj
 0002:00005b90       ??_C@_03MJOM@ARS?$AA@      00428b90     lib_archive:gt_archiver.obj
 0002:00005b94       ??_C@_03JMMC@ARQ?$AA@      00428b94     lib_archive:gt_archiver.obj
 0002:00005b98       ??_C@_03DECE@ARK?$AA@      00428b98     lib_archive:gt_archiver.obj
 0002:00005b9c       ??_C@_03JOLD@ARJ?$AA@      00428b9c     lib_archive:gt_archiver.obj
 0002:00005ba0       ??_C@_03GBAK@ARI?$AA@      00428ba0     lib_archive:gt_archiver.obj
 0002:00005ba4       ??_C@_03MKMA@ARG?$AA@      00428ba4     lib_archive:gt_archiver.obj
 0002:00005ba8       ??_C@_03GAJM@ARC?$AA@      00428ba8     lib_archive:gt_archiver.obj
 0002:00005bac       ??_C@_03HEGI@AMG?$AA@      00428bac     lib_archive:gt_archiver.obj
 0002:00005bb0       ??_C@_04NOK@AKT9?$AA@      00428bb0     lib_archive:gt_archiver.obj
 0002:00005bb8       ??_C@_04KHHN@AKT8?$AA@     00428bb8     lib_archive:gt_archiver.obj
 0002:00005bc0       ??_C@_04KGCA@AKT7?$AA@     00428bc0     lib_archive:gt_archiver.obj
 0002:00005bc8       ??_C@_03NAON@AIN?$AA@      00428bc8     lib_archive:gt_archiver.obj
 0002:00005bcc       ??_C@_03ODON@ACE?$AA@      00428bcc     lib_archive:gt_archiver.obj
 0002:00005bd0       ??_C@_03KNAF@777?$AA@      00428bd0     lib_archive:gt_archiver.obj
 0002:00005bd4       ??_C@_06BACP@_none_?$AA@   00428bd4     lib_archive:gt_archiver.obj
 0002:00005c20       ??_C@_05BGJG@?9sw1?9?$AA@  00428c20     lib_archive:gt_archiver.obj
 0002:00005c28       ??_C@_05GKFI@HLSQZ?$AA@    00428c28     lib_archive:gt_archiver.obj
 0002:00005c30       ??_C@_07EBIJ@PHILIPP?$AA@  00428c30     lib_archive:gt_archiver.obj
 0002:00005c38       ??_C@_05BAAH@?9ah0?9?$AA@  00428c38     lib_archive:gt_archiver.obj
 0002:00005c40       ??_C@_07KLEN@ChfLZ_2?$AA@  00428c40     lib_archive:gt_archiver.obj
 0002:00005c48       ??_C@_07DMPF@JRchive?$AA@  00428c48     lib_archive:gt_archiver.obj
 0002:00005c50       ??_C@_05NIJH@?$BKJar?$BL?$AA@ 00428c50     lib_archive:gt_archiver.obj
 0002:00005c58       ??_C@_07EMNP@idska32?$AA@  00428c58     lib_archive:gt_archiver.obj
 0002:00005c60       ??_C@_0BK@MBA@?$CIThis?5file?5must?5be?5conver?$AA@ 00428c60     lib_archive:gt_archiver.obj
 0002:00005c7c       ??_C@_0L@NCFE@Dirk?5Paehl?$AA@ 00428c7c     lib_archive:gt_archiver.obj
 0002:00005c88       ??_C@_07JDGG@DSIGDCC?$AA@  00428c88     lib_archive:gt_archiver.obj
 0002:00005c90       ??_C@_0BA@OCEF@Blink?5by?5D?4T?4S?4?$AA@ 00428c90     lib_archive:gt_archiver.obj
 0002:00005ca0       ??_C@_05JMCH@?9lh1?9?$AA@  00428ca0     lib_archive:gt_archiver.obj
 0002:00005ca8       ??_C@_0P@OILA@?$AN?$CIC?$CJ?5STEPANYUK?$AA@ 00428ca8     lib_archive:gt_archiver.obj
 0002:00005cb8       ??_C@_07NKLG@?$CK?$CKACE?$CK?$CK?$AA@ 00428cb8     lib_archive:gt_archiver.obj
 0002:00005cc0       ??_C@_05CHGH@ustar?$AA@    00428cc0     lib_archive:gt_archiver.obj
 0002:00005cc8       ??_C@_0CA@DHFM@?5at?5?$CIrelative?$CJ?5offset?5?$CFd?1?$CF04Xh?6?$AA@ 00428cc8     lib_archive:gt_archiver.obj
 0002:00005ce8       ??_C@_0BB@LIBI@Found?5?$CFs?5archive?$AA@ 00428ce8     lib_archive:gt_archiver.obj
 0002:00005cfc       ??_C@_0BL@MBAC@No?5lister?5is?5implemented?6?6?$AA@ 00428cfc     lib_archive:gt_archiver.obj
 0002:00005d18       ??_7GT_ZOOArchiveLister@@6B@ 00428d18     lib_archive:gt_archiver.obj
 0002:00005d28       ??_7GT_ZIPArchiveLister@@6B@ 00428d28     lib_archive:gt_archiver.obj
 0002:00005d38       ??_7GT_ZETArchiveLister@@6B@ 00428d38     lib_archive:gt_archiver.obj
 0002:00005d48       ??_7GT_YCArchiveLister@@6B@ 00428d48     lib_archive:gt_archiver.obj
 0002:00005d58       ??_7GT_TARArchiveLister@@6B@ 00428d58     lib_archive:gt_archiver.obj
 0002:00005d68       ??_7GT_SYNArchiveLister@@6B@ 00428d68     lib_archive:gt_archiver.obj
 0002:00005d78       ??_7GT_STIArchiveLister@@6B@ 00428d78     lib_archive:gt_archiver.obj
 0002:00005d88       ??_7GT_RARArchiveLister@@6B@ 00428d88     lib_archive:gt_archiver.obj
 0002:00005d98       ??_7GT_PPZArchiveLister@@6B@ 00428d98     lib_archive:gt_archiver.obj
 0002:00005da8       ??_7GT_PAQArchiveLister@@6B@ 00428da8     lib_archive:gt_archiver.obj
 0002:00005db8       ??_7GT_NEROArchiveLister@@6B@ 00428db8     lib_archive:gt_archiver.obj
 0002:00005dc8       ??_7GT_LZOArchiveLister@@6B@ 00428dc8     lib_archive:gt_archiver.obj
 0002:00005dd8       ??_7GT_LZHArchiveLister@@6B@ 00428dd8     lib_archive:gt_archiver.obj
 0002:00005de8       ??_7GT_LGArchiveLister@@6B@ 00428de8     lib_archive:gt_archiver.obj
 0002:00005df8       ??_7GT_ISCArchiveLister@@6B@ 00428df8     lib_archive:gt_archiver.obj
 0002:00005e08       ??_7GT_INSArchiveLister@@6B@ 00428e08     lib_archive:gt_archiver.obj
 0002:00005e18       ??_7GT_IDSKAArchiveLister@@6B@ 00428e18     lib_archive:gt_archiver.obj
 0002:00005e28       ??_7GT_HAArchiveLister@@6B@ 00428e28     lib_archive:gt_archiver.obj
 0002:00005e38       ??_7GT_GZArchiveLister@@6B@ 00428e38     lib_archive:gt_archiver.obj
 0002:00005e48       ??_7GT_DPAArchiveLister@@6B@ 00428e48     lib_archive:gt_archiver.obj
 0002:00005e58       ??_7GT_CABArchiveLister@@6B@ 00428e58     lib_archive:gt_archiver.obj
 0002:00005e68       ??_7GT_BLIArchiveLister@@6B@ 00428e68     lib_archive:gt_archiver.obj
 0002:00005e78       ??_7GT_ASDArchiveLister@@6B@ 00428e78     lib_archive:gt_archiver.obj
 0002:00005e88       ??_7GT_ARXArchiveLister@@6B@ 00428e88     lib_archive:gt_archiver.obj
 0002:00005e98       ??_7GT_ARQArchiveLister@@6B@ 00428e98     lib_archive:gt_archiver.obj
 0002:00005ea8       ??_7GT_ARJArchiveLister@@6B@ 00428ea8     lib_archive:gt_archiver.obj
 0002:00005eb8       ??_7GT_ARGArchiveLister@@6B@ 00428eb8     lib_archive:gt_archiver.obj
 0002:00005ec8       ??_7GT_ARCArchiveLister@@6B@ 00428ec8     lib_archive:gt_archiver.obj
 0002:00005ed8       ??_7GT_AKT9ArchiveLister@@6B@ 00428ed8     lib_archive:gt_archiver.obj
 0002:00005ee8       ??_7GT_AKT7ArchiveLister@@6B@ 00428ee8     lib_archive:gt_archiver.obj
 0002:00005ef8       ??_7GT_AMGArchiveLister@@6B@ 00428ef8     lib_archive:gt_archiver.obj
 0002:00005f08       ??_7GT_AINArchiveLister@@6B@ 00428f08     lib_archive:gt_archiver.obj
 0002:00005f18       ??_7GT_ACEArchiveLister@@6B@ 00428f18     lib_archive:gt_archiver.obj
 0002:00005f28       ??_7GT_777ArchiveLister@@6B@ 00428f28     lib_archive:gt_archiver.obj
 0002:00005f38       ??_7GT_BasicArchiveLister@@6B@ 00428f38     lib_archive:gt_archiver.obj
 0002:00005f48       ??_C@_0CK@CIAI@?5Original?5?5?5?5Packed?5?5?5Perc?4?5?5?5?$CFs@ 00428f48     lib_archive:gt_archiver.obj
 0002:00005f74       ??_C@_0L@EPCC@?5?5?5?5?5Date?5?$AA@ 00428f74     lib_archive:gt_archiver.obj
 0002:00005f80       ??_C@_0BN@MKKN@?5?$CF8i?5?5?$CF8i?5?5?$CF5?41f?$CF?$CF?5?5?$CFs?5?$CFs?$CFs?6?$AA@ 00428f80     lib_archive:gt_archiver.obj
 0002:00005fa0       ??_C@_0L@PNFB@invalid?5?5?5?$AA@ 00428fa0     lib_archive:gt_archiver.obj
 0002:00005fb0       __real@0000000000000000    00428fb0     lib_archive:gt_archiver.obj
 0002:00005fb8       ??_C@_0M@KBAG@?5?$FLpassword?$FN?$AA@ 00428fb8     lib_archive:gt_archiver.obj
 0002:00005fc4       ??_C@_0BL@JPLL@?5?$CF8i?5?5?$CF8i?5?5?$CF5?41f?$CF?$CF?5?5?$CFs?5?$CFs?6?$AA@ 00428fc4     lib_archive:gt_archiver.obj
 0002:00005fe0       ??_C@_0L@LJKB@?5?5?5?5?5?5?5?5?5?5?$AA@ 00428fe0     lib_archive:gt_archiver.obj
 0002:00005fec       ??_C@_0BA@MFDD@gt_archiver?4cxx?$AA@ 00428fec     lib_archive:gt_archiver.obj
 0002:00005ffc       ??_C@_0CI@DII@Warning?3?5the?5archive?5may?5be?5inco@ 00428ffc     lib_archive:gt_archiver.obj
 0002:00006024       ??_C@_0DN@BJGI@Error?3?5found?5unexpected?5value?5?$CIi@ 00429024     lib_archive:gt_archiver.obj
 0002:00006064       ??_C@_0CI@DMHK@Error?3?5found?5unexpected?5end?5of?5a@ 00429064     lib_archive:gt_archiver.obj
 0002:0000608c       ??_C@_08KFGC@?$CFd?5files?$AA@ 0042908c     lib_archive:gt_archiver.obj
 0002:00006098       ??_C@_06DMBJ@1?5file?$AA@  00429098     lib_archive:gt_archiver.obj
 0002:000060a0       ??_C@_0CJ@DIHC@This?5type?5of?5archive?5cannot?5be?5l@ 004290a0     lib_archive:gt_archiver.obj
 0002:000060cc       ??_C@_0BM@OJP@?$FLcontinued?5on?5next?5volume?$FN?6?$AA@ 004290cc     lib_archive:gt_archiver.obj
 0002:000060e8       ??_C@_0BO@OPCO@?$FLcontinued?5from?5last?5volume?$FN?6?$AA@ 004290e8     lib_archive:gt_archiver.obj
 0002:00006108       ??_C@_0N@HBNL@?5?$FLdirectory?$FN?$AA@ 00429108     lib_archive:gt_archiver.obj
 0002:00006118       ??_C@_0CA@DJIM@Error?3?5failed?5to?5read?5filename?6?$AA@ 00429118     lib_archive:gt_archiver.obj
 0002:00006138       ??_C@_0BL@GLGO@?5?5Archive?5version?3?5?$CFd?4?$CFd?6?6?$AA@ 00429138     lib_archive:gt_archiver.obj
 0002:00006154       ??_C@_0BH@DIHG@?5?5?$CFd?5files?5in?5archive?6?$AA@ 00429154     lib_archive:gt_archiver.obj
 0002:0000616c       ??_C@_0CF@LDHJ@Error?3?5failed?5to?5read?5global?5hea@ 0042916c     lib_archive:gt_archiver.obj
 0002:00006194       ??_C@_0BM@FFFA@?5?5?$CFd?5bytes?5archive?5comment?6?$AA@ 00429194     lib_archive:gt_archiver.obj
 0002:000061b0       ??_C@_0BK@PILJ@?5?5Archive?5version?3?5?$CFd?4?$CFd?6?$AA@ 004291b0     lib_archive:gt_archiver.obj
 0002:000061cc       ??_C@_0BP@PDBE@Unknown?5compression?5method?5?$CFd?6?$AA@ 004291cc     lib_archive:gt_archiver.obj
 0002:000061ec       ??_C@_0N@LBLN@?5?5?$FLcomment?$FN?6?$AA@ 004291ec     lib_archive:gt_archiver.obj
 0002:000061fc       ??_C@_0CE@PPDD@Cannot?5find?5end?5of?5archive?5comme@ 004291fc     lib_archive:gt_archiver.obj
 0002:00006220       ??_C@_0CA@HAML@?5?5Original?5archive?5name?3?5?8?$CFs?8?6?6?$AA@ 00429220     lib_archive:gt_archiver.obj
 0002:00006240       ??_C@_0N@MFNL@unknown?3?5?$CFd?6?$AA@ 00429240     lib_archive:gt_archiver.obj
 0002:00006250       ??_C@_0O@FNBI@3?403?5?9?53?408a?6?$AA@ 00429250     lib_archive:gt_archiver.obj
 0002:00006260       ??_C@_06GBKO@3?400a?6?$AA@ 00429260     lib_archive:gt_archiver.obj
 0002:00006268       ??_C@_05KNI@ARJZ?6?$AA@    00429268     lib_archive:gt_archiver.obj
 0002:00006270       ??_C@_0O@JGLC@2?463?5?9?52?475a?6?$AA@ 00429270     lib_archive:gt_archiver.obj
 0002:00006280       ??_C@_05FHL@2?462?6?$AA@   00429280     lib_archive:gt_archiver.obj
 0002:00006288       ??_C@_0N@HLOB@2?455?5?9?52?460?6?$AA@ 00429288     lib_archive:gt_archiver.obj
 0002:00006298       ??_C@_0BD@IMOI@2?442?$CIc?$CJ?5?9?52?450?$CIa?$CJ?6?$AA@ 00429298     lib_archive:gt_archiver.obj
 0002:000062ac       ??_C@_05JKKJ@2?441?6?$AA@  004292ac     lib_archive:gt_archiver.obj
 0002:000062b4       ??_C@_05JBJM@2?439?6?$AA@  004292b4     lib_archive:gt_archiver.obj
 0002:000062bc       ??_C@_05DCGC@2?430?6?$AA@  004292bc     lib_archive:gt_archiver.obj
 0002:000062c4       ??_C@_05HGNO@2?421?6?$AA@  004292c4     lib_archive:gt_archiver.obj
 0002:000062cc       ??_C@_0M@MDF@prior?52?421?6?$AA@ 004292cc     lib_archive:gt_archiver.obj
 0002:000062d8       ??_C@_0BE@7?5?5Archive?5version?3?5?$AA@ 004292d8     lib_archive:gt_archiver.obj
 0002:000062ec       ??_C@_0CG@FELE@Error?3?5failed?5to?5read?5archive?5he@ 004292ec     lib_archive:gt_archiver.obj
 0002:00006314       ??_C@_0L@JIFH@gt_arq?4hxx?$AA@ 00429314     lib_archive:gt_archiver.obj
 0002:00006320       ??_C@_0BN@NMD@Error?3?5Unsupported?5version?4?6?$AA@ 00429320     lib_archive:gt_archiver.obj
 0002:00006340       ??_C@_0BJ@KFFD@Archive?5version?5?$CFd?4?$CF02i?6?$AA@ 00429340     lib_archive:gt_archiver.obj
 0002:0000635c       ??_C@_0BM@BMEH@?5?5Archive?5version?3?5?$CFd?4?$CF02d?6?$AA@ 0042935c     lib_archive:gt_archiver.obj
 0002:00006378       ??_C@_0DH@KDHB@Seems?5like?5the?5archive?5was?5rippe@ 00429378     lib_archive:gt_archiver.obj
 0002:000063b0       ??_7GT_IMPArchiveLister@@6B@ 004293b0     lib_archive:gt_archiver.obj
 0002:000063c0       ??_C@_0BD@LCML@Unknown?5method?5?$CFd?6?$AA@ 004293c0     lib_archive:gt_archiver.obj
 0002:000063d4       ??_C@_0CC@HMCB@LZ77?5multimedia?5is?5not?5supported@ 004293d4     lib_archive:gt_archiver.obj
 0002:000063f8       ??_C@_0CM@INJ@Burrows?9Wheeler?5Transform?5is?5not@ 004293f8     lib_archive:gt_archiver.obj
 0002:00006424       ??_C@_0BI@KHC@?5?5archive?5is?5encrypted?6?$AA@ 00429424     lib_archive:gt_archiver.obj
 0002:0000643c       ??_C@_0CC@FHCJ@?5?5this?5is?5a?5multi?5volume?5archive@ 0042943c     lib_archive:gt_archiver.obj
 0002:00006460       ??_C@_0BN@HFDF@?5?5archive?5comment?5was?5found?6?$AA@ 00429460     lib_archive:gt_archiver.obj
 0002:00006480       ??_C@_0CA@BKDH@?5?5CRC16?5check?5on?5header?5failed?6?$AA@ 00429480     lib_archive:gt_archiver.obj
 0002:000064a0       ??_C@_04ENNO@?5?9?$DO?5?$AA@ 004294a0     lib_archive:gt_archiver.obj
 0002:000064a8       ??_C@_0CJ@NNFF@?5?5Cannot?5list?5the?5names?5of?5this?5@ 004294a8     lib_archive:gt_archiver.obj
 0002:000064d4       ??_C@_0BM@HGEB@?5?5Unknown?5header?5format?5?$CFd?6?$AA@ 004294d4     lib_archive:gt_archiver.obj
 0002:000064f0       ??_C@_0CB@IPKM@Error?3?5found?5unknown?5token?5?8?$CFs?8?6@ 004294f0     lib_archive:gt_archiver.obj
 0002:00006514       ??_C@_05GPAB@total?$AA@    00429514     lib_archive:gt_archiver.obj
 0002:0000651c       ??_C@_0BI@HGJO@Archive?5version?3?5?$CFd?4?$CFd?6?$AA@ 0042951c     lib_archive:gt_archiver.obj
 0002:00006534       ??_C@_0CJ@OEAG@?$FLunknown?5token?5type?5?$CF02Xh?5for?5?$CFd@ 00429534     lib_archive:gt_archiver.obj
 0002:00006560       ??_C@_0BD@EDNB@?$FLrecovery?5record?$FN?6?$AA@ 00429560     lib_archive:gt_archiver.obj
 0002:00006574       ??_C@_0BA@EJKM@?$FLfile?5comment?$FN?6?$AA@ 00429574     lib_archive:gt_archiver.obj
 0002:00006584       ??_C@_0BD@FHCJ@?$FLarchive?5comment?$FN?6?$AA@ 00429584     lib_archive:gt_archiver.obj
 0002:00006598       ??_C@_0L@PFCJ@?$FLDisk?5?$CFd?$FN?6?$AA@ 00429598     lib_archive:gt_archiver.obj
 0002:000065a4       ??_7?$GT_Sequence@VPString@@@@6B@ 004295a4     lib_archive:gt_archiver.obj
 0002:000065a8       ??_C@_0DA@HGCN@The?5date?5displayed?5is?5invalid?5?$CIi@ 004295a8     lib_archive:gt_archiver.obj
 0002:000065d8       ??_C@_0DF@NMCL@Error?3?5?$CFd?5file?$CIs?$CJ?5are?5too?5much?5i@ 004295d8     lib_archive:gt_archiver.obj
 0002:00006610       ??_C@_0DA@FAEF@Error?3?5?$CFd?5file?$CIs?$CJ?5are?5not?5in?5the@ 00429610     lib_archive:gt_archiver.obj
 0002:00006640       ??_C@_03HHKO@?$CFs?6?$AA@  00429640     lib_archive:gt_archiver.obj
 0002:00006644       ??_C@_0BF@NPHB@Archive?5version?3?5?$CFd?6?$AA@ 00429644     lib_archive:gt_archiver.obj
 0002:00006660       ??_7type_info@@6B@         00429660     libc:typinfo.obj
 0002:000066b4       ??_C@_0BG@JPLP@Illegal?5byte?5sequence?$AA@ 004296b4     libc:syserr.obj
 0002:000066cc       ??_C@_0BE@FLBN@Directory?5not?5empty?$AA@ 004296cc     libc:syserr.obj
 0002:000066e0       ??_C@_0BJ@KAFL@Function?5not?5implemented?$AA@ 004296e0     libc:syserr.obj
 0002:000066fc       ??_C@_0BD@CEML@No?5locks?5available?$AA@ 004296fc     libc:syserr.obj
 0002:00006710       ??_C@_0BC@GADJ@Filename?5too?5long?$AA@ 00429710     libc:syserr.obj
 0002:00006724       ??_C@_0BK@FNFN@Resource?5deadlock?5avoided?$AA@ 00429724     libc:syserr.obj
 0002:00006740       ??_C@_0BB@EALI@Result?5too?5large?$AA@ 00429740     libc:syserr.obj
 0002:00006754       ??_C@_0N@FIAN@Domain?5error?$AA@ 00429754     libc:syserr.obj
 0002:00006764       ??_C@_0M@CLKF@Broken?5pipe?$AA@ 00429764     libc:syserr.obj
 0002:00006770       ??_C@_0P@OFDM@Too?5many?5links?$AA@ 00429770     libc:syserr.obj
 0002:00006780       ??_C@_0BG@OHDM@Read?9only?5file?5system?$AA@ 00429780     libc:syserr.obj
 0002:00006798       ??_C@_0N@NGPA@Invalid?5seek?$AA@ 00429798     libc:syserr.obj
 0002:000067a8       ??_C@_0BI@DMFE@No?5space?5left?5on?5device?$AA@ 004297a8     libc:syserr.obj
 0002:000067c0       ??_C@_0P@OPNK@File?5too?5large?$AA@ 004297c0     libc:syserr.obj
 0002:000067d0       ??_C@_0CE@BADJ@Inappropriate?5I?1O?5control?5operat@ 004297d0     libc:syserr.obj
 0002:000067f4       ??_C@_0BE@COOK@Too?5many?5open?5files?$AA@ 004297f4     libc:syserr.obj
 0002:00006808       ??_C@_0BO@ELHF@Too?5many?5open?5files?5in?5system?$AA@ 00429808     libc:syserr.obj
 0002:00006828       ??_C@_0BB@IHAB@Invalid?5argument?$AA@ 00429828     libc:syserr.obj
 0002:0000683c       ??_C@_0P@NDNC@Is?5a?5directory?$AA@ 0042983c     libc:syserr.obj
 0002:0000684c       ??_C@_0BA@JMMO@Not?5a?5directory?$AA@ 0042984c     libc:syserr.obj
 0002:0000685c       ??_C@_0P@GFAI@No?5such?5device?$AA@ 0042985c     libc:syserr.obj
 0002:0000686c       ??_C@_0O@KHHM@Improper?5link?$AA@ 0042986c     libc:syserr.obj
 0002:0000687c       ??_C@_0M@EPHJ@File?5exists?$AA@ 0042987c     libc:syserr.obj
 0002:00006888       ??_C@_0BA@LPOH@Resource?5device?$AA@ 00429888     libc:syserr.obj
 0002:00006898       ??_C@_0O@NOFB@Unknown?5error?$AA@ 00429898     libc:syserr.obj
 0002:000068a8       ??_C@_0M@MLJM@Bad?5address?$AA@ 004298a8     libc:syserr.obj
 0002:000068b4       ??_C@_0BC@DJON@Permission?5denied?$AA@ 004298b4     libc:syserr.obj
 0002:000068c8       ??_C@_0BB@KDDC@Not?5enough?5space?$AA@ 004298c8     libc:syserr.obj
 0002:000068dc       ??_C@_0CB@BBBH@Resource?5temporarily?5unavailable@ 004298dc     libc:syserr.obj
 0002:00006900       ??_C@_0BD@ODIH@No?5child?5processes?$AA@ 00429900     libc:syserr.obj
 0002:00006914       ??_C@_0BE@CDDH@Bad?5file?5descriptor?$AA@ 00429914     libc:syserr.obj
 0002:00006928       ??_C@_0BC@BICL@Exec?5format?5error?$AA@ 00429928     libc:syserr.obj
 0002:0000693c       ??_C@_0BC@IGMC@Arg?5list?5too?5long?$AA@ 0042993c     libc:syserr.obj
 0002:00006950       ??_C@_0BK@HLB@No?5such?5device?5or?5address?$AA@ 00429950     libc:syserr.obj
 0002:0000696c       ??_C@_0BD@MPKK@Input?1output?5error?$AA@ 0042996c     libc:syserr.obj
 0002:00006980       ??_C@_0BK@ODCM@Interrupted?5function?5call?$AA@ 00429980     libc:syserr.obj
 0002:0000699c       ??_C@_0BA@BPKN@No?5such?5process?$AA@ 0042999c     libc:syserr.obj
 0002:000069ac       ??_C@_0BK@IEMO@No?5such?5file?5or?5directory?$AA@ 004299ac     libc:syserr.obj
 0002:000069c8       ??_C@_0BI@IIAE@Operation?5not?5permitted?$AA@ 004299c8     libc:syserr.obj
 0002:000069e0       ??_C@_08KKBH@No?5error?$AA@ 004299e0     libc:syserr.obj
 0002:00006a00       ??_C@_04NCKB@?$CF08s?$AA@  00429a00     plib:pheader.obj
 0002:00006a08       ??_C@_0LF@PLM@?$CB?$CB?$CB?$CB?$CB?$CB?$CB?$CB?$CB?$CB?$CB?$CB?$CB?$CB?$CB?$CB?$CB?$CB?$CB?$CB?$CB?$CB?$CB?$CB?$CB?$CB?$CB?$CB?$CB?$CB?$CB?$CB@ 00429a08     lib_gt:gt_error.obj
 0002:00006ac0       ??_C@_01FCOA@?5?$AA@       00429ac0     lib_gt:gt_outputtable.obj
 0002:00006ac4       ??_C@_03IOFJ@?$CFXh?$AA@   00429ac4     lib_gt:gt_outputtable.obj
 0002:00006ac8       ??_C@_07HEBB@?$CF?$CF0?$CFdXh?$AA@ 00429ac8     lib_gt:gt_outputtable.obj
 0002:00006ad0       ??_C@_02MECO@?$CFd?$AA@    00429ad0     lib_gt:gt_outputtable.obj
 0002:00006ad4       ??_C@_05BOPK@?$CF?$CF?$CFdd?$AA@ 00429ad4     lib_gt:gt_outputtable.obj
 0002:00006adc       ??_C@_06IMOF@?$CF?$CF0?$CFdd?$AA@ 00429adc     lib_gt:gt_outputtable.obj
 0002:00006ae4       ??_C@_06LPNL@?$CF?$CF?9?$CFds?$AA@ 00429ae4     lib_gt:gt_outputtable.obj
 0002:00006aec       ??_C@_0P@MMOD@?$CF02d?4?$CF02d?4?$CF02d?$AA@ 00429aec     lib_gt:gt_time.obj
 0002:00006afc       ??_C@_0P@LLBM@?$CF02d?4?$CF02d?4?$CF04d?$AA@ 00429afc     lib_gt:gt_time.obj
 0002:00006b10       ??_R1A@?0A@A@type_info@@8  00429b10     libc:typinfo.obj
 0002:00006b28       ??_R2type_info@@8          00429b28     libc:typinfo.obj
 0002:00006b30       ??_R3type_info@@8          00429b30     libc:typinfo.obj
 0002:00006b40       ??_R4type_info@@6B@        00429b40     libc:typinfo.obj
 0002:00006da0       __CT??_R0?AVGT_Exception@@@8??0GT_Exception@@QAE@ABV0@@Z60 00429da0     lib_gt:gt_filebuffer.obj
 0002:00006dbc       __CTA1?AVGT_Exception@@    00429dbc     lib_gt:gt_filebuffer.obj
 0002:00006dc4       __TI1?AVGT_Exception@@     00429dc4     lib_gt:gt_filebuffer.obj
 0002:00007c00       __IMPORT_DESCRIPTOR_KERNEL32 0042ac00     kernel32:KERNEL32.dll
 0002:00007c14       __IMPORT_DESCRIPTOR_USER32 0042ac14     user32:USER32.dll
 0002:00007c28       __IMPORT_DESCRIPTOR_gtdata 0042ac28     gtdata:gtdata.dll
 0002:00007c3c       __IMPORT_DESCRIPTOR_ADVAPI32 0042ac3c     advapi32:ADVAPI32.dll
 0002:00007c50       __NULL_IMPORT_DESCRIPTOR   0042ac50     kernel32:KERNEL32.dll
 0003:00000000       ___xc_a                    0042c000     libc:crt0init.obj
 0003:00000018       ___xc_z                    0042c018     libc:crt0init.obj
 0003:0000001c       ___xi_a                    0042c01c     libc:crt0init.obj
 0003:00000034       ___xi_z                    0042c034     libc:crt0init.obj
 0003:00000038       ___xp_a                    0042c038     libc:crt0init.obj
 0003:00000044       ___xp_z                    0042c044     libc:crt0init.obj
 0003:00000048       ___xt_a                    0042c048     libc:crt0init.obj
 0003:00000050       ___xt_z                    0042c050     libc:crt0init.obj
 0003:00000060       ?GT_VERSION@@3PBDB         0042c060     gt_main.obj
 0003:00000070       __iob                      0042c070     libc:_file.obj
 0003:000002f0       __fltused                  0042c2f0     libc:fpinit.obj
 0003:000002f4       __ldused                   0042c2f4     libc:fpinit.obj
 0003:000002f8       __FPinit                   0042c2f8     libc:fpinit.obj
 0003:000002fc       __FPmtinit                 0042c2fc     libc:fpinit.obj
 0003:00000300       __FPmtterm                 0042c300     libc:fpinit.obj
 0003:00000304       __NLG_Destination          0042c304     libc:exsup.obj
 0003:0000065c       __aexit_rtn                0042c65c     libc:crt0.obj
 0003:00000660       ___app_type                0042c660     libc:crt0.obj
 0003:00000664       ___nullstring              0042c664     libc:output.obj
 0003:00000668       ___wnullstring             0042c668     libc:output.obj
 0003:00000670       ___badioinfo               0042c670     libc:ioinit.obj
 0003:00000680       ?__pUnexpected@@3P6AXXZA   0042c680     libc:hooks.obj
 0003:00000684       ?__pInconsistency@@3P6AXXZA 0042c684     libc:hooks.obj
 0003:00000688       __cfltcvt_tab              0042c688     libc:cmiscdat.obj
 0003:000006a0       __coninpfh                 0042c6a0     libc:initcon.obj
 0003:000006a4       __confh                    0042c6a4     libc:initcon.obj
 0003:000006b0       __XcptActTab               0042c6b0     libc:winxfltr.obj
 0003:00000728       __First_FPE_Indx           0042c728     libc:winxfltr.obj
 0003:0000072c       __Num_FPE                  0042c72c     libc:winxfltr.obj
 0003:00000730       __XcptActTabCount          0042c730     libc:winxfltr.obj
 0003:00000734       __fpecode                  0042c734     libc:winxfltr.obj
 0003:00000738       __amblksiz                 0042c738     libc:heapinit.obj
 0003:000007d0       __pctype                   0042c7d0     libc:ctype.obj
 0003:000007d4       __pwctype                  0042c7d4     libc:ctype.obj
 0003:000007d8       __ctype                    0042c7d8     libc:ctype.obj
 0003:000009e0       ___old_small_block_heap    0042c9e0     libc:sbheap.obj
 0003:00002a04       ___old_sbh_threshold       0042ea04     libc:sbheap.obj
 0003:00002a10       ___mb_cur_max              0042ea10     libc:nlsdata1.obj
 0003:00002a14       ___decimal_point           0042ea14     libc:nlsdata1.obj
 0003:00002a18       ___decimal_point_length    0042ea18     libc:nlsdata1.obj
 0003:00002cb8       __pow10pos                 0042ecb8     libc:constpow.obj
 0003:00002e18       __pow10neg                 0042ee18     libc:constpow.obj
 0003:00002f74       ?nBlockSize@PString@@0HA   0042ef74     plib:pstring.obj
 0003:00002f80       ?_BOOL_FLAGS@@3PAUGT_FlagBool@@A 0042ef80     lib_gt:gt_commandlineflags.obj
 0003:00003130       ?_ULONG_FLAGS@@3PAUGT_FlagNumber@@A 0042f130     lib_gt:gt_commandlineflags.obj
 0003:00003190       ?m_nByte@GT_FileBuffer@@0EA 0042f190     lib_gt:gt_filebuffer.obj
 0003:00003194       ??_R0?AVGT_Exception@@@8   0042f194     lib_gt:gt_filebuffer.obj
 0003:000031b0       ?GT_WordPerfect_Types@@3PAPBDA 0042f1b0     lib_data:gt_generic.obj
 0003:00003210       ?GT_WPG_Types@@3PAPBDA     0042f210     lib_data:gt_generic.obj
 0003:000032a8       ?GT_EXE_PE_RESTYPE@@3PAPBDA 0042f2a8     lib_data:gt_exe_types.obj
 0003:00003308       ?GT_EXE_PE_DATADIRECTORY_NAMES@@3PAPBDA 0042f308     lib_data:gt_exe_types.obj
 0003:00003348       ?GTArchive_Info@@3PAUGTArchive_InfoEntry@@A 0042f348     lib_archive:gt_archiver.obj
 0003:00003640       ??_R0?AVtype_info@@@8      0042f640     libc:typinfo.obj
 0003:00003658       ?__pMyUnhandledExceptionFilter@@3PAXA 0042f658     libc:throw.obj
 0003:00003660       __sys_errlist              0042f660     libc:syserr.obj
 0003:00003710       __sys_nerr                 0042f710     libc:syserr.obj
 0003:00003718       ?aAlloverTimer@@3VPTimer@@A 0042f718     gt_main.obj
 0003:00003724       ?aFileTimer@@3VPTimer@@A   0042f724     gt_main.obj
 0003:00003730       ?sConsoleTitle@@3PADA      0042f730     gt_main.obj
 0003:00003b30       ?nTotalFilesFound@@3JA     0042fb30     gt_main.obj
 0003:00003b34       ?nTotalFilesIdentified@@3JA 0042fb34     gt_main.obj
 0003:00003b38       _bFound                    0042fb38     gt_gtui_starter.obj
 0003:00003b3c       __cflush                   0042fb3c     libc:_file.obj
 0003:00003b40       ___fastflag                0042fb40     libc:fpinit.obj
 0003:00003b44       __adjust_fdiv              0042fb44     libc:fpinit.obj
 0003:00003b48       __aenvptr                  0042fb48     libc:crt0.obj
 0003:00003b4c       __wenvptr                  0042fb4c     libc:crt0.obj
 0003:00003b50       ___error_mode              0042fb50     libc:crt0.obj
 0003:00003b54       __stdbuf                   0042fb54     libc:_sftbuf.obj
 0003:00003b5c       _errno                     0042fb5c     libc:crt0dat.obj
 0003:00003b60       __doserrno                 0042fb60     libc:crt0dat.obj
 0003:00003b64       __umaskval                 0042fb64     libc:crt0dat.obj
 0003:00003b68       __osver                    0042fb68     libc:crt0dat.obj
 0003:00003b6c       __winver                   0042fb6c     libc:crt0dat.obj
 0003:00003b70       __winmajor                 0042fb70     libc:crt0dat.obj
 0003:00003b74       __winminor                 0042fb74     libc:crt0dat.obj
 0003:00003b78       ___argc                    0042fb78     libc:crt0dat.obj
 0003:00003b7c       ___argv                    0042fb7c     libc:crt0dat.obj
 0003:00003b80       ___wargv                   0042fb80     libc:crt0dat.obj
 0003:00003b84       __environ                  0042fb84     libc:crt0dat.obj
 0003:00003b88       ___initenv                 0042fb88     libc:crt0dat.obj
 0003:00003b8c       __wenviron                 0042fb8c     libc:crt0dat.obj
 0003:00003b90       ___winitenv                0042fb90     libc:crt0dat.obj
 0003:00003b94       __pgmptr                   0042fb94     libc:crt0dat.obj
 0003:00003b98       __wpgmptr                  0042fb98     libc:crt0dat.obj
 0003:00003b9c       __exitflag                 0042fb9c     libc:crt0dat.obj
 0003:00003ba0       __C_Termination_Done       0042fba0     libc:crt0dat.obj
 0003:00003ba4       __C_Exit_Done              0042fba4     libc:crt0dat.obj
 0003:00003ba8       ?_pCurrentException@@3PAUEHExceptionRecord@@A 0042fba8     libc:frame.obj
 0003:00003bac       ?_pCurrentExContext@@3PAU_CONTEXT@@A 0042fbac     libc:frame.obj
 0003:00003bb0       ?__pSETranslator@@3P6AXIPAU_EXCEPTION_POINTERS@@@ZA 0042fbb0     libc:hooks.obj
 0003:00003bb4       ?__pTerminate@@3P6AXXZA    0042fbb4     libc:hooks.obj
 0003:00003bc8       __pxcptinfoptrs            0042fbc8     libc:winxfltr.obj
 0003:00003cd4       __adbgmsg                  0042fcd4     libc:crt0msg.obj
 0003:00003cd8       ?_pnhHeap@@3P6AHI@ZA       0042fcd8     libc:handler.obj
 0003:00003cdc       __newmode                  0042fcdc     libc:_newmode.obj
 0003:00003d28       ___lc_handle               0042fd28     libc:nlsdata2.obj
 0003:00003d40       ___lc_codepage             0042fd40     libc:nlsdata2.obj
 0003:00003d44       ___lc_collate_cp           0042fd44     libc:nlsdata2.obj
 0003:00006664       ?gbNotReadLocalConfigFile@@3HA 00432664     lib_gt:gt_commandlineflags.obj
 0003:00006668       ?gbNotScanFileExtension@@3HA 00432668     lib_gt:gt_commandlineflags.obj
 0003:0000666c       ?gbPE_Imports@@3HA         0043266c     lib_gt:gt_commandlineflags.obj
 0003:00006670       ?gbHelp@@3HA               00432670     lib_gt:gt_commandlineflags.obj
 0003:00006674       ?gbCacheStats@@3HA         00432674     lib_gt:gt_commandlineflags.obj
 0003:00006678       ?gbNoArchives@@3HA         00432678     lib_gt:gt_commandlineflags.obj
 0003:0000667c       ?gnCodeToleranceEXE@@3KA   0043267c     lib_gt:gt_commandlineflags.obj
 0003:00006680       ?gnCodeTolerancePE@@3KA    00432680     lib_gt:gt_commandlineflags.obj
 0003:00006684       ?gbPE_SectionTable@@3HA    00432684     lib_gt:gt_commandlineflags.obj
 0003:00006688       ?gnCodeToleranceNE@@3KA    00432688     lib_gt:gt_commandlineflags.obj
 0003:0000668c       ?gbNotListUnknown@@3HA     0043268c     lib_gt:gt_commandlineflags.obj
 0003:00006690       ?gbPE_All@@3HA             00432690     lib_gt:gt_commandlineflags.obj
 0003:00006694       ?gbListMode@@3HA           00432694     lib_gt:gt_commandlineflags.obj
 0003:00006698       ?gnNumberOfRIFFEntries@@3KA 00432698     lib_gt:gt_commandlineflags.obj
 0003:0000669c       ?gbPE_Exports@@3HA         0043269c     lib_gt:gt_commandlineflags.obj
 0003:000066a0       ?gbNotListIdentified@@3HA  004326a0     lib_gt:gt_commandlineflags.obj
 0003:000066a4       ?gbPE_RessourceStrings@@3HA 004326a4     lib_gt:gt_commandlineflags.obj
 0003:000066a8       ?gbFooter@@3HA             004326a8     lib_gt:gt_commandlineflags.obj
 0003:000066ac       ?gbGTUI2@@3HA              004326ac     lib_gt:gt_commandlineflags.obj
 0003:000066b0       ?gbNotReadGlobalConfigFile@@3HA 004326b0     lib_gt:gt_commandlineflags.obj
 0003:000066b4       ?gbPE_ImportFunctions@@3HA 004326b4     lib_gt:gt_commandlineflags.obj
 0003:000066b8       ?gbNoLogo@@3HA             004326b8     lib_gt:gt_commandlineflags.obj
 0003:000066bc       ?gbWaitAfterLastFile@@3HA  004326bc     lib_gt:gt_commandlineflags.obj
 0003:000066c0       ?gbBufferedIO@@3HA         004326c0     lib_gt:gt_commandlineflags.obj
 0003:000066c4       ?gbXWPG@@3HA               004326c4     lib_gt:gt_commandlineflags.obj
 0003:000066c8       ?gbPE_DataDirectory@@3HA   004326c8     lib_gt:gt_commandlineflags.obj
 0003:000066cc       ?gbPE_Version@@3HA         004326cc     lib_gt:gt_commandlineflags.obj
 0003:000066d0       ?gbPE_Ressources@@3HA      004326d0     lib_gt:gt_commandlineflags.obj
 0003:000066d4       ?gbScanSubfolder@@3HA      004326d4     lib_gt:gt_commandlineflags.obj
 0003:000066d8       ?gnHWND@@3KA               004326d8     lib_gt:gt_commandlineflags.obj
 0003:000066dc       ?gbNotScanFileName@@3HA    004326dc     lib_gt:gt_commandlineflags.obj
 0003:000066e0       ?gnMaxBufferSize@@3KA      004326e0     lib_gt:gt_commandlineflags.obj
 0003:000066e4       ?gbNoColor@@3HA            004326e4     lib_gt:gt_commandlineflags.obj
 0003:000076f0       ?nFileBuffer_CacheHits@@3JA 004336f0     lib_gt:gt_filebuffer.obj
 0003:000076f4       ?nFileBuffer_PartialCacheHits@@3JA 004336f4     lib_gt:gt_filebuffer.obj
 0003:000076f8       ?nFileBuffer_CacheMisses@@3JA 004336f8     lib_gt:gt_filebuffer.obj
 0003:000076fc       ?aCSBI@@3U_CONSOLE_SCREEN_BUFFER_INFO@@A 004336fc     lib_gt:gt_winconsole.obj
 0003:00008798       ?sTemp@@3PADA              00434798     lib_archive:gt_archiver.obj
 0003:000089e0       ?nTotalArchives@GT_ArchiveAnalyzer@@2JA 004349e0     lib_archive:gt_archiver.obj
 0003:000089e4       ?nDamagedArchives@GT_ArchiveAnalyzer@@2JA 004349e4     lib_archive:gt_archiver.obj
 0003:00008a18       __fmode                    00434a18     libc:txtmode.obj
 0003:00008a1c       __commode                  00434a1c     libc:ncommode.obj
 0003:00008a28       ___mbcodepage              00434a28     <common>
 0003:00008a30       ___mbulinfo                00434a30     <common>
 0003:00008a3c       ___ismbcodepage            00434a3c     <common>
 0003:00008a40       __mbcasemap                00434a40     <common>
 0003:00008b40       __mbctype                  00434b40     <common>
 0003:00008c44       ___mblcid                  00434c44     <common>
 0003:00008c48       ___sbh_sizeHeaderList      00434c48     <common>
 0003:00008c4c       ___sbh_indGroupDefer       00434c4c     <common>
 0003:00008c50       ___sbh_pHeaderScan         00434c50     <common>
 0003:00008c54       ___sbh_pHeaderDefer        00434c54     <common>
 0003:00008c58       ___sbh_cntHeaderList       00434c58     <common>
 0003:00008c5c       ___sbh_pHeaderList         00434c5c     <common>
 0003:00008c60       ___sbh_threshold           00434c60     <common>
 0003:00008c64       __crtheap                  00434c64     <common>
 0003:00008c68       ___active_heap             00434c68     <common>
 0003:00008c6c       ___env_initialized         00434c6c     <common>
 0003:00008c70       ___mbctype_initialized     00434c70     <common>
 0003:00008c74       ___onexitend               00434c74     <common>
 0003:00008c78       ___onexitbegin             00434c78     <common>
 0003:00008c80       ___pioinfo                 00434c80     <common>
 0003:00008d80       __nhandle                  00434d80     <common>
 0003:00008d84       __acmdln                   00434d84     <common>
 0003:00008d88       ___piob                    00434d88     <common>
 0003:00008da0       __bufin                    00434da0     <common>
 0003:00009da0       __nstream                  00435da0     <common>

 entry point at        0001:00001f4b

 Static symbols

 0001:000016a0       _GT_EnumWindowsProc@8      004026a0 f   gt_gtui_starter.obj
 0001:00000000       _$E6                       00401000 f   gt_main.obj
 0001:00000020       _$E9                       00401020 f   gt_main.obj
 0001:000004d0       ?HandlerRoutine@@YGHK@Z    004014d0 f   gt_main.obj
 0001:00000510       ?GlobalListFile@@YGHPBDJ@Z 00401510 f   gt_main.obj
 0001:000009d0       ?CheckFilename@@YGHPAVGT_FileBuffer@@@Z 004019d0 f   gt_main.obj
 0001:00000c10       ?GlobalScanDirectory@@YGHPBD0@Z 00401c10 f   gt_main.obj
 0001:00000f70       ?_UpdateConsoleTitle@@YIXXZ 00401f70 f   gt_main.obj
 0001:00000fd0       ?GlobalShowSyntax@@YGXPBD@Z 00401fd0 f   gt_main.obj
 0001:000013c0       ?GlobalCleanUp@@YGXH@Z     004023c0 f   gt_main.obj
 0001:00003304       ?ArrayUnwindFilter@@YAHPAU_EXCEPTION_POINTERS@@@Z 00404304 f   libc:frame.obj
 0001:0001e8b3       _xtoa                      0041f8b3 f   libc:xtoa.obj
 0001:00008165       _strncnt                   00409165 f   libc:a_map.obj
 0001:00007db3       _siglookup                 00408db3 f   libc:winsig.obj
 0001:0000751c       _strtoxl                   0040851c f   libc:strtol.obj
 0001:00007240       LeadUp1                    00408240 f   libc:memcpy.obj
 0001:0000726c       LeadUp2                    0040826c f   libc:memcpy.obj
 0001:00007290       LeadUp3                    00408290 f   libc:memcpy.obj
 0001:0000730f       UnwindUp0                  0040830f f   libc:memcpy.obj
 0001:000072fc       UnwindUp1                  004082fc f   libc:memcpy.obj
 0001:000072f4       UnwindUp2                  004082f4 f   libc:memcpy.obj
 0001:000072ec       UnwindUp3                  004082ec f   libc:memcpy.obj
 0001:000072e4       UnwindUp4                  004082e4 f   libc:memcpy.obj
 0001:000072dc       UnwindUp5                  004082dc f   libc:memcpy.obj
 0001:000072d4       UnwindUp6                  004082d4 f   libc:memcpy.obj
 0001:000072cc       UnwindUp7                  004082cc f   libc:memcpy.obj
 0001:00007328       TrailUp0                   00408328 f   libc:memcpy.obj
 0001:00007330       TrailUp1                   00408330 f   libc:memcpy.obj
 0001:0000733c       TrailUp2                   0040833c f   libc:memcpy.obj
 0001:00007350       TrailUp3                   00408350 f   libc:memcpy.obj
 0001:000073c8       LeadDown1                  004083c8 f   libc:memcpy.obj
 0001:000073e8       LeadDown2                  004083e8 f   libc:memcpy.obj
 0001:00007410       LeadDown3                  00408410 f   libc:memcpy.obj
 0001:00007464       UnwindDown7                00408464 f   libc:memcpy.obj
 0001:0000746c       UnwindDown6                0040846c f   libc:memcpy.obj
 0001:00007474       UnwindDown5                00408474 f   libc:memcpy.obj
 0001:0000747c       UnwindDown4                0040847c f   libc:memcpy.obj
 0001:00007484       UnwindDown3                00408484 f   libc:memcpy.obj
 0001:0000748c       UnwindDown2                0040848c f   libc:memcpy.obj
 0001:00007494       UnwindDown1                00408494 f   libc:memcpy.obj
 0001:000074a7       UnwindDown0                004084a7 f   libc:memcpy.obj
 0001:000074c0       TrailDown0                 004084c0 f   libc:memcpy.obj
 0001:000074c8       TrailDown1                 004084c8 f   libc:memcpy.obj
 0001:000074d8       TrailDown2                 004084d8 f   libc:memcpy.obj
 0001:000074ec       TrailDown3                 004084ec f   libc:memcpy.obj
 0001:00006f83       _getSystemCP               00407f83 f   libc:mbctype.obj
 0001:00006fcd       _CPtoLCID                  00407fcd f   libc:mbctype.obj
 0001:00007000       _setSBCS                   00408000 f   libc:mbctype.obj
 0001:00007029       _setSBUpLow                00408029 f   libc:mbctype.obj
 0001:00006517       __abstract_cw              00407517 f   libc:ieee87.obj
 0001:000065a9       __hw_cw                    004075a9 f   libc:ieee87.obj
 0001:000061f0       LeadUp1                    004071f0 f   libc:memmove.obj
 0001:0000621c       LeadUp2                    0040721c f   libc:memmove.obj
 0001:00006240       LeadUp3                    00407240 f   libc:memmove.obj
 0001:000062bf       UnwindUp0                  004072bf f   libc:memmove.obj
 0001:000062ac       UnwindUp1                  004072ac f   libc:memmove.obj
 0001:000062a4       UnwindUp2                  004072a4 f   libc:memmove.obj
 0001:0000629c       UnwindUp3                  0040729c f   libc:memmove.obj
 0001:00006294       UnwindUp4                  00407294 f   libc:memmove.obj
 0001:0000628c       UnwindUp5                  0040728c f   libc:memmove.obj
 0001:00006284       UnwindUp6                  00407284 f   libc:memmove.obj
 0001:0000627c       UnwindUp7                  0040727c f   libc:memmove.obj
 0001:000062d8       TrailUp0                   004072d8 f   libc:memmove.obj
 0001:000062e0       TrailUp1                   004072e0 f   libc:memmove.obj
 0001:000062ec       TrailUp2                   004072ec f   libc:memmove.obj
 0001:00006300       TrailUp3                   00407300 f   libc:memmove.obj
 0001:00006378       LeadDown1                  00407378 f   libc:memmove.obj
 0001:00006398       LeadDown2                  00407398 f   libc:memmove.obj
 0001:000063c0       LeadDown3                  004073c0 f   libc:memmove.obj
 0001:00006414       UnwindDown7                00407414 f   libc:memmove.obj
 0001:0000641c       UnwindDown6                0040741c f   libc:memmove.obj
 0001:00006424       UnwindDown5                00407424 f   libc:memmove.obj
 0001:0000642c       UnwindDown4                0040742c f   libc:memmove.obj
 0001:00006434       UnwindDown3                00407434 f   libc:memmove.obj
 0001:0000643c       UnwindDown2                0040743c f   libc:memmove.obj
 0001:00006444       UnwindDown1                00407444 f   libc:memmove.obj
 0001:00006457       UnwindDown0                00407457 f   libc:memmove.obj
 0001:00006470       TrailDown0                 00407470 f   libc:memmove.obj
 0001:00006478       TrailDown1                 00407478 f   libc:memmove.obj
 0001:00006488       TrailDown2                 00407488 f   libc:memmove.obj
 0001:0000649c       TrailDown3                 0040749c f   libc:memmove.obj
 0001:00004095       _parse_cmdline             00405095 f   libc:stdargv.obj
 0001:00003f00       _xcptlookup                00404f00 f   libc:winxfltr.obj
 0001:00003c0c       __cftoe_g                  00404c0c f   libc:cvt.obj
 0001:00003c33       __cftof_g                  00404c33 f   libc:cvt.obj
 0001:00003ca7       __shift                    00404ca7 f   libc:cvt.obj
 0001:00002fba       ?FindHandler@@YAXPAUEHExceptionRecord@@PAUEHRegistrationNode@@PAU_CONTEXT@@PAXPBU_s_FuncInfo@@EH1@Z 00403fba f   libc:frame.obj
 0001:00003161       ?FindHandlerForForeignException@@YAXPAUEHExceptionRecord@@PAUEHRegistrationNode@@PAU_CONTEXT@@PAXPBU_s_FuncInfo@@HH1@Z 00404161 f   libc:frame.obj
 0001:00003209       ?TypeMatch@@YAHPBU_s_HandlerType@@PBU_s_CatchableType@@PBU_s_ThrowInfo@@@Z 00404209 f   libc:frame.obj
 0001:00003304       ?FrameUnwindFilter@@YAHPAU_EXCEPTION_POINTERS@@@Z 00404304 f   libc:frame.obj
 0001:0000331a       ?CatchIt@@YAXPAUEHExceptionRecord@@PAUEHRegistrationNode@@PAU_CONTEXT@@PAXPBU_s_FuncInfo@@PBU_s_HandlerType@@PBU_s_CatchableType@@PBU_s_TryBlockMapEntry@@H1E@Z 0040431a f   libc:frame.obj
 0001:00003395       ?CallCatchBlock@@YAPAXPAUEHExceptionRecord@@PAUEHRegistrationNode@@PAU_CONTEXT@@PBU_s_FuncInfo@@PAXHK@Z 00404395 f   libc:frame.obj
 0001:000034a1       ?ExFilterRethrow@@YAHPAU_EXCEPTION_POINTERS@@@Z 004044a1 f   libc:frame.obj
 0001:000034cb       ?BuildCatchObject@@YAXPAUEHExceptionRecord@@PAUEHRegistrationNode@@PBU_s_HandlerType@@PBU_s_CatchableType@@@Z 004044cb f   libc:frame.obj
 0001:000036f6       ?AdjustPointer@@YAPAXPAXABUPMD@@@Z 004046f6 f   libc:frame.obj
 0001:00002eb2       _flsall                    00403eb2 f   libc:fflush.obj
 0001:00002d5f       _doexit                    00403d5f f   libc:crt0dat.obj
 0001:00002df8       __initterm                 00403df8 f   libc:crt0dat.obj
 0001:000028c9       _write_char                004038c9 f   libc:output.obj
 0001:000028fe       _write_multi_char          004038fe f   libc:output.obj
 0001:0000292f       _write_string              0040392f f   libc:output.obj
 0001:00002967       _get_int_arg               00403967 f   libc:output.obj
 0001:00002974       _get_int64_arg             00403974 f   libc:output.obj
 0001:00002984       _get_short_arg             00403984 f   libc:output.obj
 0001:0000204f       _fast_error_exit           0040304f f   libc:crt0.obj
 0001:00001e8b       __getextendedkeycode       00402e8b f   libc:getch.obj
 0001:00001ca8       _gu_return                 00402ca8 f   libc:exsup.obj
 0001:00001cb0       __unwind_handler           00402cb0 f   libc:exsup.obj
 0001:00001a74       ?CatchGuardHandler@@YA?AW4_EXCEPTION_DISPOSITION@@PAUEHExceptionRecord@@PAUCatchGuardRN@@PAX2@Z 00402a74 f   libc:trnsctrl.obj
 0001:00001b4d       ?TranslatorGuardHandler@@YA?AW4_EXCEPTION_DISPOSITION@@PAUEHExceptionRecord@@PAUTranslatorGuardRN@@PAX2@Z 00402b4d f   libc:trnsctrl.obj
 0001:000099b0       _$E6                       0040a9b0 f   lib_gt:gt_output.obj
 0001:000099d0       _$E4                       0040a9d0 f   lib_gt:gt_output.obj
 0001:000099e0       _$E11                      0040a9e0 f   lib_gt:gt_output.obj
 0001:00009a10       _$E9                       0040aa10 f   lib_gt:gt_output.obj
 0001:00009cb0       ?_report2hwnd@@YGXPBDPAPAD@Z 0040acb0 f   lib_gt:gt_output.obj
 0001:00009d70       ?_out_string@@YGXAAVPString@@@Z 0040ad70 f   lib_gt:gt_output.obj
 0001:00009ed0       ?_out_append@@YGXPBDHW4GT_Color@@@Z 0040aed0 f   lib_gt:gt_output.obj
 0001:0000a670       _$E14                      0040b670 f   lib_gt:gt_output.obj
 0001:0000d4f0       _$E6                       0040e4f0 f   lib_data:gt_generic.obj
 0001:0000d510       _$E4                       0040e510 f   lib_data:gt_generic.obj
 0001:00012a90       ?GetInfo_GIF@@YIXPAVGT_FileBuffer@@AAVPString@@@Z 00413a90 f   lib_data:gt_generic.obj
 0001:00012e70       ?GetInfo_GRP@@YIXPAVGT_FileBuffer@@AAVPString@@@Z 00413e70 f   lib_data:gt_generic.obj
 0001:00012f40       ?GetInfo_HeadText@@YIXPAVGT_FileBuffer@@AAVPString@@@Z 00413f40 f   lib_data:gt_generic.obj
 0001:00013000       ?GetInfo_IFF@@YIXPAVGT_FileBuffer@@AAVPString@@@Z 00414000 f   lib_data:gt_generic.obj
 0001:000130d0       ?_SubIFF@@YIPBDPBJ@Z       004140d0 f   lib_data:gt_generic.obj
 0001:000133d0       ?GetInfo_ImpulseTracker@@YIXPAVGT_FileBuffer@@AAVPString@@@Z 004143d0 f   lib_data:gt_generic.obj
 0001:000134a0       ?GetInfo_MP3TAG@@YI?AVPString@@PAVGT_FileBuffer@@@Z 004144a0 f   lib_data:gt_generic.obj
 0001:00013790       ?GetInfo_VOC@@YIXPAVGT_FileBuffer@@AAVPString@@@Z 00414790 f   lib_data:gt_generic.obj
 0001:0000c5e0       ?_PKLite@@YIXPAU_EXEEntry@@PAEPAVGT_FileBuffer@@@Z 0040d5e0 f   lib_data:gt_exe_analyzer.obj
 0001:0000c740       ?_WWPack300PR@@YIXPAU_EXEEntry@@PAEPAVGT_FileBuffer@@@Z 0040d740 f   lib_data:gt_exe_analyzer.obj
 0001:0000c770       ?_WWPack30xPR@@YIXPAU_EXEEntry@@PAEPAVGT_FileBuffer@@@Z 0040d770 f   lib_data:gt_exe_analyzer.obj
 0001:0000c850       ?_WWPack30xP@@YIXPAU_EXEEntry@@PAEPAVGT_FileBuffer@@@Z 0040d850 f   lib_data:gt_exe_analyzer.obj

 167 bytes saved through ICF

