 gt2

 Timestamp is 3a2fafd5 (Thu Dec 07 16:42:13 2000)

 Preferred load address is 00400000

 Start         Length     Name                   Class
 0001:00000000 00020200H .text                   CODE
 0001:00020200 000011c5H .text$x                 CODE
 0002:00000000 00000198H .idata$5                DATA
 0002:00000198 000062f3H .rdata                  DATA
 0002:00006490 00000044H .rdata$r                DATA
 0002:000064d4 0000154cH .xdata$x                DATA
 0002:00007a20 00000050H .idata$2                DATA
 0002:00007a70 00000014H .idata$3                DATA
 0002:00007a84 00000198H .idata$4                DATA
 0002:00007c1c 00000728H .idata$6                DATA
 0002:00008344 00000000H .edata                  DATA
 0003:00000000 00000004H .CRT$XCA                DATA
 0003:00000004 00000014H .CRT$XCU                DATA
 0003:00000018 00000004H .CRT$XCZ                DATA
 0003:0000001c 00000004H .CRT$XIA                DATA
 0003:00000020 00000010H .CRT$XIC                DATA
 0003:00000030 00000004H .CRT$XIY                DATA
 0003:00000034 00000004H .CRT$XIZ                DATA
 0003:00000038 00000004H .CRT$XPA                DATA
 0003:0000003c 00000008H .CRT$XPX                DATA
 0003:00000044 00000004H .CRT$XPZ                DATA
 0003:00000048 00000004H .CRT$XTA                DATA
 0003:0000004c 00000004H .CRT$XTB                DATA
 0003:00000050 00000004H .CRT$XTZ                DATA
 0003:00000060 000037fcH .data                   DATA
 0003:00003860 000063c4H .bss                    DATA

  Address         Publics by Value              Rva+Base     Lib:Object

 0001:00000020       _main                      00401020 f   gt_main.obj
 0001:00000670       ?resize@PHeap@@UAIXH@Z     00401670 f i gt_main.obj
 0001:00000680       ??_EPHeap@@UAEPAXI@Z       00401680 f i gt_main.obj
 0001:00000680       ??_GPHeap@@UAEPAXI@Z       00401680 f i gt_main.obj
 0001:00000ca0       ??1PString@@UAE@XZ         00401ca0 f i gt_main.obj
 0001:00000ca0       ??1PExtendedHeap@@UAE@XZ   00401ca0 f i gt_main.obj
 0001:00000ed0       @StartGTUI2@0              00401ed0 f   gt_gtui_starter.obj
 0001:00001050       _strchr                    00402050 f   libc:strchr.obj
 0001:00001056       ___from_strstr_to_strchr   00402056 f   libc:strchr.obj
 0001:0000110c       _fprintf                   0040210c f   libc:fprintf.obj
 0001:0000113e       ___initstdio               0040213e f   libc:_file.obj
 0001:000011e3       ___endstdio                004021e3 f   libc:_file.obj
 0001:000011f7       ?_JumpToContinuation@@YGXPAXPAUEHRegistrationNode@@@Z 004021f7 f   libc:trnsctrl.obj
 0001:0000122b       ?_CallMemberFunction0@@YGXPAX0@Z 0040222b f   libc:trnsctrl.obj
 0001:0000122b       ?_CallMemberFunction1@@YGXPAX00@Z 0040222b f   libc:trnsctrl.obj
 0001:00001232       ?_CallMemberFunction2@@YGXPAX00H@Z 00402232 f   libc:trnsctrl.obj
 0001:00001239       ?_UnwindNestedFrames@@YGXPAUEHRegistrationNode@@PAUEHExceptionRecord@@@Z 00402239 f   libc:trnsctrl.obj
 0001:00001288       ___CxxFrameHandler         00402288 f   libc:trnsctrl.obj
 0001:000012be       ?_CallCatchBlock2@@YAPAXPAUEHRegistrationNode@@PBU_s_FuncInfo@@PAXHK@Z 004022be f   libc:trnsctrl.obj
 0001:00001337       ?_CallSETranslator@@YAHPAUEHExceptionRecord@@PAUEHRegistrationNode@@PAX2PBU_s_FuncInfo@@H1@Z 00402337 f   libc:trnsctrl.obj
 0001:00001460       ?_GetRangeOfTrysToCheck@@YAPBU_s_TryBlockMapEntry@@PBU_s_FuncInfo@@HHPAI1@Z 00402460 f   libc:trnsctrl.obj
 0001:000014dc       __global_unwind2           004024dc f   libc:exsup.obj
 0001:0000151e       __local_unwind2            0040251e f   libc:exsup.obj
 0001:00001576       __NLG_Return2              00402576 f   libc:exsup.obj
 0001:00001586       __abnormal_termination     00402586 f   libc:exsup.obj
 0001:000015a9       __NLG_Notify1              004025a9 f   libc:exsup.obj
 0001:000015b2       __NLG_Notify               004025b2 f   libc:exsup.obj
 0001:000015c5       __NLG_Dispatch             004025c5 f   libc:exsup.obj
 0001:000015ca       ??3@YAXPAX@Z               004025ca f   libc:delete.obj
 0001:000015d5       _printf                    004025d5 f   libc:printf.obj
 0001:00001606       __getch                    00402606 f   libc:getch.obj
 0001:00001797       __fpmath                   00402797 f   libc:fpinit.obj
 0001:000017ae       __fpclear                  004027ae f   libc:fpinit.obj
 0001:000017af       __cfltcvt_init             004027af f   libc:fpinit.obj
 0001:000017e7       _mainCRTStartup            004027e7 f   libc:crt0.obj
 0001:000018c6       __amsg_exit                004028c6 f   libc:crt0.obj
 0001:0000190f       __stbuf                    0040290f f   libc:_sftbuf.obj
 0001:0000199c       __ftbuf                    0040299c f   libc:_sftbuf.obj
 0001:000019d9       __output                   004029d9 f   libc:output.obj
 0001:000021e3       __ioinit                   004031e3 f   libc:ioinit.obj
 0001:0000238e       _calloc                    0040338e f   libc:calloc.obj
 0001:0000243f       __fcloseall                0040343f f   libc:closeall.obj
 0001:00002497       __cinit                    00403497 f   libc:crt0dat.obj
 0001:000024c4       _exit                      004034c4 f   libc:crt0dat.obj
 0001:000024d5       __exit                     004034d5 f   libc:crt0dat.obj
 0001:00002599       _fflush                    00403599 f   libc:fflush.obj
 0001:000025d4       __flush                    004035d4 f   libc:fflush.obj
 0001:00002630       __flushall                 00403630 f   libc:fflush.obj
 0001:000026a6       ___InternalCxxFrameHandler 004036a6 f   libc:frame.obj
 0001:000029ed       ___FrameUnwindToState      004039ed f   libc:frame.obj
 0001:00002e16       ?_DestructExceptionObject@@YAXPAUEHExceptionRecord@@E@Z 00403e16 f   libc:frame.obj
 0001:00002ea0       __CallSettingFrame@12      00403ea0 f   libc:lowhelpr.obj
 0001:00002ec7       __NLG_Return               00403ec7 f   libc:lowhelpr.obj
 0001:00002eec       ?terminate@@YAXXZ          00403eec f   libc:hooks.obj
 0001:00002f42       ?_inconsistency@@YAXXZ     00403f42 f   libc:hooks.obj
 0001:00002f98       _free                      00403f98 f   libc:free.obj
 0001:00003001       ___initconin               00404001 f   libc:initcon.obj
 0001:00003020       ___termcon                 00404020 f   libc:initcon.obj
 0001:00003050       __alloca_probe             00404050 f   libc:chkstk.obj
 0001:00003050       __chkstk                   00404050 f   libc:chkstk.obj
 0001:0000307f       __setdefaultprecision      0040407f f   libc:fp8.obj
 0001:00003091       __ms_p5_test_fdiv          00404091 f   libc:testfdiv.obj
 0001:000030cf       __ms_p5_mp_test_fdiv       004040cf f   libc:testfdiv.obj
 0001:000030f8       __forcdecpt                004040f8 f   libc:cvt.obj
 0001:00003152       __cropzeros                00404152 f   libc:cvt.obj
 0001:000031a0       __positive                 004041a0 f   libc:cvt.obj
 0001:000031b8       __fassign                  004041b8 f   libc:cvt.obj
 0001:000031f6       __cftoe                    004041f6 f   libc:cvt.obj
 0001:000032fa       __cftof                    004042fa f   libc:cvt.obj
 0001:000033d8       __cftog                    004043d8 f   libc:cvt.obj
 0001:000034bd       __cfltcvt                  004044bd f   libc:cvt.obj
 0001:00003533       __XcptFilter               00404533 f   libc:winxfltr.obj
 0001:000036b7       __setenvp                  004046b7 f   libc:stdenvp.obj
 0001:00003770       __setargv                  00404770 f   libc:stdargv.obj
 0001:000039bd       ___crtGetEnvironmentStringsA 004049bd f   libc:a_env.obj
 0001:00003aef       __GetLinkerVersion         00404aef f   libc:heapinit.obj
 0001:00003b1c       ___heap_select             00404b1c f   libc:heapinit.obj
 0001:00003c64       __heap_init                00404c64 f   libc:heapinit.obj
 0001:00003ccc       __except_handler3          00404ccc f   libc:exsup3.obj
 0001:00003d89       __seh_longjmp_unwind@4     00404d89 f   libc:exsup3.obj
 0001:00003da4       __FF_MSGBANNER             00404da4 f   libc:crt0msg.obj
 0001:00003ddd       __NMSG_WRITE               00404ddd f   libc:crt0msg.obj
 0001:00003f30       _malloc                    00404f30 f   libc:malloc.obj
 0001:00003f42       __nh_malloc                00404f42 f   libc:malloc.obj
 0001:00003f6e       __heap_alloc               00404f6e f   libc:malloc.obj
 0001:00003fe2       __isatty                   00404fe2 f   libc:isatty.obj
 0001:00004010       _strlen                    00405010 f   libc:strlen.obj
 0001:0000408b       _wctomb                    0040508b f   libc:wctomb.obj
 0001:00004100       __aulldiv                  00405100 f   libc:ulldiv.obj
 0001:00004170       __aullrem                  00405170 f   libc:ullrem.obj
 0001:000041e5       __flsbuf                   004051e5 f   libc:_flsbuf.obj
 0001:00004300       _memset                    00405300 f   libc:memset.obj
 0001:00004358       __callnewh                 00405358 f   libc:handler.obj
 0001:00004373       ___sbh_heap_init           00405373 f   libc:sbheap.obj
 0001:000043bb       ___sbh_find_block          004053bb f   libc:sbheap.obj
 0001:000043e6       ___sbh_free_block          004053e6 f   libc:sbheap.obj
 0001:0000470f       ___sbh_alloc_block         0040570f f   libc:sbheap.obj
 0001:00004a18       ___sbh_alloc_new_region    00405a18 f   libc:sbheap.obj
 0001:00004ac9       ___sbh_alloc_new_group     00405ac9 f   libc:sbheap.obj
 0001:00004bc4       ___sbh_resize_block        00405bc4 f   libc:sbheap.obj
 0001:00004eba       ___old_sbh_new_region      00405eba f   libc:sbheap.obj
 0001:00004ffe       ___old_sbh_release_region  00405ffe f   libc:sbheap.obj
 0001:00005054       ___old_sbh_decommit_pages  00406054 f   libc:sbheap.obj
 0001:00005116       ___old_sbh_find_block      00406116 f   libc:sbheap.obj
 0001:0000516d       ___old_sbh_free_block      0040616d f   libc:sbheap.obj
 0001:000051b2       ___old_sbh_alloc_block     004061b2 f   libc:sbheap.obj
 0001:000053ba       ___old_sbh_alloc_block_from_page 004063ba f   libc:sbheap.obj
 0001:000054de       ___old_sbh_resize_block    004064de f   libc:sbheap.obj
 0001:00005587       _fclose                    00406587 f   libc:fclose.obj
 0001:000055dd       __commit                   004065dd f   libc:commit.obj
 0001:00005634       __write                    00406634 f   libc:write.obj
 0001:000057e1       ?__CxxUnhandledExceptionFilter@@YGJPAU_EXCEPTION_POINTERS@@@Z 004067e1 f   libc:unhandld.obj
 0001:00005827       ?__CxxSetUnhandledExceptionFilter@@YAXXZ 00406827 f   libc:unhandld.obj
 0001:00005838       ?__CxxRestoreUnhandledExceptionFilter@@YAXXZ 00406838 f   libc:unhandld.obj
 0001:00005845       ?_ValidateRead@@YAHPBXI@Z  00406845 f   libc:validate.obj
 0001:00005861       ?_ValidateWrite@@YAHPAXI@Z 00406861 f   libc:validate.obj
 0001:0000587d       ?_ValidateExecute@@YAHP6GHXZ@Z 0040687d f   libc:validate.obj
 0001:000058a0       _strcmp                    004068a0 f   libc:strcmp.obj
 0001:00005930       _memmove                   00406930 f   libc:memmove.obj
 0001:00005c65       _abort                     00406c65 f   libc:abort.obj
 0001:00005c7c       __control87                00406c7c f   libc:ieee87.obj
 0001:00005cb1       __controlfp                00406cb1 f   libc:ieee87.obj
 0001:00005de2       __isctype                  00406de2 f   libc:isctype.obj
 0001:00005e57       _tolower                   00406e57 f   libc:tolower.obj
 0001:00005f22       __ZeroTail                 00406f22 f   libc:intrncvt.obj
 0001:00005f6b       __IncMan                   00406f6b f   libc:intrncvt.obj
 0001:00005fc1       __RoundMan                 00406fc1 f   libc:intrncvt.obj
 0001:0000604d       __CopyMan                  0040704d f   libc:intrncvt.obj
 0001:00006068       __FillZeroMan              00407068 f   libc:intrncvt.obj
 0001:00006074       __IsZeroMan                00407074 f   libc:intrncvt.obj
 0001:0000608f       __ShrMan                   0040708f f   libc:intrncvt.obj
 0001:0000611c       __ld12cvt                  0040711c f   libc:intrncvt.obj
 0001:00006288       __ld12tod                  00407288 f   libc:intrncvt.obj
 0001:0000629e       __ld12tof                  0040729e f   libc:intrncvt.obj
 0001:000062b4       __atodbl                   004072b4 f   libc:intrncvt.obj
 0001:000062e1       __atoflt                   004072e1 f   libc:intrncvt.obj
 0001:00006310       _strcpy                    00407310 f   libc:strcat.obj
 0001:00006320       _strcat                    00407320 f   libc:strcat.obj
 0001:00006400       __fptostr                  00407400 f   libc:_fptostr.obj
 0001:00006477       __fltout                   00407477 f   libc:cfout.obj
 0001:000064db       ___dtold                   004074db f   libc:cfout.obj
 0001:00006591       __fptrap                   00407591 f   libc:crt0fp.obj
 0001:0000659a       __setmbcp                  0040759a f   libc:mbctype.obj
 0001:0000695e       ___initmbctable            0040795e f   libc:mbctype.obj
 0001:00006980       _memcpy                    00407980 f   libc:memcpy.obj
 0001:00006cb5       _strtol                    00407cb5 f   libc:strtol.obj
 0001:00006ee0       _strstr                    00407ee0 f   libc:strstr.obj
 0001:00006f60       _strncmp                   00407f60 f   libc:strncmp.obj
 0001:00006f98       ___crtMessageBoxA          00407f98 f   libc:crtmbox.obj
 0001:00007030       _strncpy                   00408030 f   libc:strncpy.obj
 0001:0000712e       __lseek                    0040812e f   libc:lseek.obj
 0001:000071c8       __getbuf                   004081c8 f   libc:_getbuf.obj
 0001:0000720c       __close                    0040820c f   libc:close.obj
 0001:000072bf       __freebuf                  004082bf f   libc:_freebuf.obj
 0001:000072ea       __alloc_osfhnd             004082ea f   libc:osfinfo.obj
 0001:0000737f       __set_osfhnd               0040837f f   libc:osfinfo.obj
 0001:000073f6       __free_osfhnd              004083f6 f   libc:osfinfo.obj
 0001:00007470       __get_osfhandle            00408470 f   libc:osfinfo.obj
 0001:000074ad       __dosmaperr                004084ad f   libc:dosmap.obj
 0001:00007514       _raise                     00408514 f   libc:winsig.obj
 0001:00007686       ___crtGetStringTypeA       00408686 f   libc:a_str.obj
 0001:000077cf       ___crtLCMapStringA         004087cf f   libc:a_map.obj
 0001:000079f3       ___addl                    004089f3 f   libc:mantold.obj
 0001:00007a14       ___add_12                  00408a14 f   libc:mantold.obj
 0001:00007a72       ___shl_12                  00408a72 f   libc:mantold.obj
 0001:00007aa0       ___shr_12                  00408aa0 f   libc:mantold.obj
 0001:00007acd       ___mtold12                 00408acd f   libc:mantold.obj
 0001:00007b94       ___strgtold12              00408b94 f   libc:strgtold.obj
 0001:00008065       _$I10_OUTPUT               00409065 f   libc:x10fout.obj
 0001:000082f8       _toupper                   004092f8 f   libc:toupper.obj
 0001:000083c4       ___ld12mul                 004093c4 f   libc:tenpow.obj
 0001:000085e4       ___multtenpow12            004095e4 f   libc:tenpow.obj
 0001:00008660       ??0PTimer@@QAE@XZ          00409660 f   plib:ptimer.obj
 0001:00008670       ?Start@PTimer@@QAEXXZ      00409670 f   plib:ptimer.obj
 0001:00008690       ?Stop@PTimer@@QAEXXZ       00409690 f   plib:ptimer.obj
 0001:000086b0       ?GetSeconds@PTimer@@QBENXZ 004096b0 f   plib:ptimer.obj
 0001:000086c0       ?clear@PHeap@@UAIXXZ       004096c0 f   plib:pdynamicheap.obj
 0001:000086e0       ?_resize@PHeap@@IAIXH@Z    004096e0 f   plib:pdynamicheap.obj
 0001:00008700       ?clear@PExtendedHeap@@UAIXXZ 00409700 f   plib:pdynamicheap.obj
 0001:00008720       ?resize@PExtendedHeap@@UAIXH@Z 00409720 f   plib:pdynamicheap.obj
 0001:00008760       ?set@PExtendedHeap@@QAIXPBDHH@Z 00409760 f   plib:pdynamicheap.obj
 0001:000087a0       ??0PString@@QAE@PBD@Z      004097a0 f   plib:pstring.obj
 0001:00008830       ??0PString@@QAE@PBDH@Z     00409830 f   plib:pstring.obj
 0001:000088c0       ??0PString@@QAE@ABV0@@Z    004098c0 f   plib:pstring.obj
 0001:00008940       ?buf@PString@@QBIPADXZ     00409940 f   plib:pstring.obj
 0001:00008950       ?at@PString@@QAIAADF@Z     00409950 f   plib:pstring.obj
 0001:00008960       ?alloc@PString@@QAIXH@Z    00409960 f   plib:pstring.obj
 0001:00008980       ??_GPString@@UAEPAXI@Z     00409980 f i plib:pstring.obj
 0001:00008980       ??_GPExtendedHeap@@UAEPAXI@Z 00409980 f i plib:pstring.obj
 0001:00008980       ??_EPExtendedHeap@@UAEPAXI@Z 00409980 f i plib:pstring.obj
 0001:00008980       ??_EPString@@UAEPAXI@Z     00409980 f i plib:pstring.obj
 0001:000089a0       ?checkalloc@PString@@QAIXXZ 004099a0 f   plib:pstring.obj
 0001:000089e0       ?del_last@PString@@QAIXH@Z 004099e0 f   plib:pstring.obj
 0001:00008a00       ?keep_first@PString@@QAIXH@Z 00409a00 f   plib:pstring.obj
 0001:00008a20       ?replace_all@PString@@QAIHHH@Z 00409a20 f   plib:pstring.obj
 0001:00008a60       ?search@PString@@QAIHD@Z   00409a60 f   plib:pstring.obj
 0001:00008a90       ??4PString@@QAEAAV0@PBD@Z  00409a90 f   plib:pstring.obj
 0001:00008af0       ??4PString@@QAEAAV0@ABV0@@Z 00409af0 f   plib:pstring.obj
 0001:00008b30       ??YPString@@QAEXD@Z        00409b30 f   plib:pstring.obj
 0001:00008b70       ??YPString@@QAEXPBD@Z      00409b70 f   plib:pstring.obj
 0001:00008bc0       ??YPString@@QAEXABV0@@Z    00409bc0 f   plib:pstring.obj
 0001:00008c00       ??YPString@@QAEXH@Z        00409c00 f   plib:pstring.obj
 0001:00008c60       ??YPString@@QAEXJ@Z        00409c60 f   plib:pstring.obj
 0001:00008cc0       ??YPString@@QAEXK@Z        00409cc0 f   plib:pstring.obj
 0001:00008d20       ?append_format@PString@@QAAXPBDZZ 00409d20 f   plib:pstring.obj
 0001:00008d70       ?append@PString@@QAIXNPBD@Z 00409d70 f   plib:pstring.obj
 0001:00008dd0       ?append@PString@@QAIXHPBD@Z 00409dd0 f   plib:pstring.obj
 0001:00008e20       ?PError_ShowErrorMessage@@YAXPBDZZ 00409e20 f   plib:perror.obj
 0001:00008e70       ?PError_ShowWin32Error@@YIXPBD@Z 00409e70 f   plib:perror.obj
 0001:00008ee0       ?PError_ShowWin32Error@@YIXKPBD@Z 00409ee0 f   plib:perror.obj
 0001:00008f50       ??_GPFileSearch@@UAEPAXI@Z 00409f50 f i plib:pfilesearch.obj
 0001:00008f50       ??_EPFileSearch@@UAEPAXI@Z 00409f50 f i plib:pfilesearch.obj
 0001:00008fa0       ??0PFileSearch@@QAE@PBD@Z  00409fa0 f   plib:pfilesearch.obj
 0001:00008ff0       ??1PFileSearch@@UAE@XZ     00409ff0 f   plib:pfilesearch.obj
 0001:00009020       ?FindFirst@PFileSearch@@QAEXPBD@Z 0040a020 f   plib:pfilesearch.obj
 0001:00009080       ?FindNext@PFileSearch@@QAEXXZ 0040a080 f   plib:pfilesearch.obj
 0001:000090b0       ?FindClose@PFileSearch@@QAEXXZ 0040a0b0 f   plib:pfilesearch.obj
 0001:000090e0       ?GetFilename@PFileSearch@@QBEPBDXZ 0040a0e0 f   plib:pfilesearch.obj
 0001:00009110       ?IsValidDirectory@PFileSearch@@QBE?AW4P_BOOL@@XZ 0040a110 f   plib:pfilesearch.obj
 0001:00009150       ?IsValidFile@PFileSearch@@QBE?AW4P_BOOL@@XZ 0040a150 f   plib:pfilesearch.obj
 0001:00009210       ??0PExtendedHeap@@QAE@H@Z  0040a210 f i lib_gt:gt_output.obj
 0001:000092b0       ?out_flush@@YIXXZ          0040a2b0 f   lib_gt:gt_output.obj
 0001:00009420       ?GetType@OUTString@@UAE?AW4OUTType@@XZ 0040a420 f i lib_gt:gt_output.obj
 0001:00009430       ?Execute@OUTString@@UAEXXZ 0040a430 f i lib_gt:gt_output.obj
 0001:00009570       ??1OUTString@@QAE@XZ       0040a570 f i lib_gt:gt_output.obj
 0001:00009570       ??1?$GT_Entry@VPString@@@@QAE@XZ 0040a570 f i lib_gt:gt_output.obj
 0001:00009580       ?out_append@@YIXPBDW4GT_Color@@@Z 0040a580 f   lib_gt:gt_output.obj
 0001:000097b0       ?GetType@OUTColor@@UAE?AW4OUTType@@XZ 0040a7b0 f i lib_gt:gt_output.obj
 0001:000097c0       ?Execute@OUTColor@@UAEXXZ  0040a7c0 f i lib_gt:gt_output.obj
 0001:000097e0       ?GetType@OUTDefColor@@UAE?AW4OUTType@@XZ 0040a7e0 f i lib_gt:gt_output.obj
 0001:000097f0       ?Execute@OUTDefColor@@UAEXXZ 0040a7f0 f i lib_gt:gt_output.obj
 0001:00009810       ?out_append@@YIXABVPString@@W4GT_Color@@@Z 0040a810 f   lib_gt:gt_output.obj
 0001:00009a40       ?out_format@@YAXPBDZZ      0040aa40 f   lib_gt:gt_output.obj
 0001:00009bd0       ?out_color_format@@YAXW4GT_Color@@PBDZZ 0040abd0 f   lib_gt:gt_output.obj
 0001:00009e30       ?out_color@@YIXW4GT_Color@@@Z 0040ae30 f   lib_gt:gt_output.obj
 0001:00009ef0       ?out_defcolor@@YIXXZ       0040aef0 f   lib_gt:gt_output.obj
 0001:00009fa0       ??_G?$GT_Sequence@PAVOUTMember@@@@UAEPAXI@Z 0040afa0 f i lib_gt:gt_output.obj
 0001:00009fa0       ??_E?$GT_Sequence@PAVOUTMember@@@@UAEPAXI@Z 0040afa0 f i lib_gt:gt_output.obj
 0001:00009ff0       ?addFirst@?$GT_Sequence@PAVOUTMember@@@@QAEXABQAVOUTMember@@@Z 0040aff0 f i lib_gt:gt_output.obj
 0001:0000a040       ?addLast@?$GT_Sequence@PAVOUTMember@@@@QAEXABQAVOUTMember@@@Z 0040b040 f i lib_gt:gt_output.obj
 0001:0000a090       ?GT_Flags_Init@@YIXHPAPAD@Z 0040b090 f   lib_gt:gt_commandlineflags.obj
 0001:0000a0d0       ?GT_Flags_Parse@@YIXXZ     0040b0d0 f   lib_gt:gt_commandlineflags.obj
 0001:0000a110       ?GT_Flags_SetFlag@@YI?AW4P_BOOL@@PBD@Z 0040b110 f   lib_gt:gt_commandlineflags.obj
 0001:0000a190       ?GT_Flags_OptimizeFlags@@YIXXZ 0040b190 f   lib_gt:gt_commandlineflags.obj
 0001:0000a230       ?GT_Flags_GetAsString@@YI?AVPString@@XZ 0040b230 f   lib_gt:gt_commandlineflags.obj
 0001:0000a340       ??0GT_ConfigFile@@QAE@XZ   0040b340 f   lib_gt:gt_configfile.obj
 0001:0000a4c0       ??_GGT_ConfigFile@@UAEPAXI@Z 0040b4c0 f i lib_gt:gt_configfile.obj
 0001:0000a4c0       ??_EGT_ConfigFile@@UAEPAXI@Z 0040b4c0 f i lib_gt:gt_configfile.obj
 0001:0000a500       ??1GT_ConfigFile@@UAE@XZ   0040b500 f   lib_gt:gt_configfile.obj
 0001:0000a530       ?Read@GT_ConfigFile@@QAE?AW4P_BOOL@@XZ 0040b530 f   lib_gt:gt_configfile.obj
 0001:0000a670       ??0GT_FileBuffer@@QAE@PBDJP6IX0J@ZJ@Z 0040b670 f   lib_gt:gt_filebuffer.obj
 0001:0000a6d0       ??_EGT_FileBuffer@@UAEPAXI@Z 0040b6d0 f i lib_gt:gt_filebuffer.obj
 0001:0000a6d0       ??_GGT_FileBuffer@@UAEPAXI@Z 0040b6d0 f i lib_gt:gt_filebuffer.obj
 0001:0000a6f0       ?_Open@GT_FileBuffer@@AAE?AW4P_BOOL@@XZ 0040b6f0 f   lib_gt:gt_filebuffer.obj
 0001:0000a7d0       ?Init@GT_FileBuffer@@QAE?AW4P_BOOL@@XZ 0040b7d0 f   lib_gt:gt_filebuffer.obj
 0001:0000a880       ??1GT_FileBuffer@@UAE@XZ   0040b880 f   lib_gt:gt_filebuffer.obj
 0001:0000a910       ?_DetermineIfText@GT_FileBuffer@@AAEXXZ 0040b910 f   lib_gt:gt_filebuffer.obj
 0001:0000a9b0       ?ShowInfo@GT_FileBuffer@@QAEXXZ 0040b9b0 f   lib_gt:gt_filebuffer.obj
 0001:0000aa90       ?SetActFilePos@GT_FileBuffer@@QAEXJ@Z 0040ba90 f   lib_gt:gt_filebuffer.obj
 0001:0000aad0       ??1GT_FileException@@QAE@XZ 0040bad0 f i lib_gt:gt_filebuffer.obj
 0001:0000ab40       ??0GT_FileException@@QAE@ABV0@@Z 0040bb40 f i lib_gt:gt_filebuffer.obj
 0001:0000abd0       ??0GT_Exception@@QAE@ABV0@@Z 0040bbd0 f i lib_gt:gt_filebuffer.obj
 0001:0000ac60       ??0PThrowable@@QAE@ABV0@@Z 0040bc60 f i lib_gt:gt_filebuffer.obj
 0001:0000acc0       ??1PThrowable@@QAE@XZ      0040bcc0 f i lib_gt:gt_filebuffer.obj
 0001:0000ad20       ?DecActFilePos@GT_FileBuffer@@QAEXJ@Z 0040bd20 f   lib_gt:gt_filebuffer.obj
 0001:0000add0       ?IncActFilePos@GT_FileBuffer@@QAEXJ@Z 0040bdd0 f   lib_gt:gt_filebuffer.obj
 0001:0000ae20       ?GetFileNameExtension@GT_FileBuffer@@QBEPBDXZ 0040be20 f   lib_gt:gt_filebuffer.obj
 0001:0000ae40       ?CallListProc@GT_FileBuffer@@QBEXJ@Z 0040be40 f   lib_gt:gt_filebuffer.obj
 0001:0000ae70       ??AGT_FileBuffer@@QBEEH@Z  0040be70 f   lib_gt:gt_filebuffer.obj
 0001:0000af30       ?GetByte@GT_FileBuffer@@QAEEH@Z 0040bf30 f   lib_gt:gt_filebuffer.obj
 0001:0000b040       ?GetWord@GT_FileBuffer@@QAEGH@Z 0040c040 f   lib_gt:gt_filebuffer.obj
 0001:0000b160       ?GetTriple@GT_FileBuffer@@QAE?AW4P_BOOL@@HAAJ@Z 0040c160 f   lib_gt:gt_filebuffer.obj
 0001:0000b270       ?GetTriple@GT_FileBuffer@@QAEJH@Z 0040c270 f   lib_gt:gt_filebuffer.obj
 0001:0000b2c0       ?GetLong@GT_FileBuffer@@QAE?AW4P_BOOL@@HAAJ@Z 0040c2c0 f   lib_gt:gt_filebuffer.obj
 0001:0000b3d0       ?GetLong@GT_FileBuffer@@QAEJH@Z 0040c3d0 f   lib_gt:gt_filebuffer.obj
 0001:0000b420       ?GetBufferX@GT_FileBuffer@@QAEXHPAXH@Z 0040c420 f   lib_gt:gt_filebuffer.obj
 0001:0000b590       ??1GT_BufferException@@QAE@XZ 0040c590 f i lib_gt:gt_filebuffer.obj
 0001:0000b600       ??0GT_BufferException@@QAE@ABV0@@Z 0040c600 f i lib_gt:gt_filebuffer.obj
 0001:0000b690       ?GetBuffer@GT_FileBuffer@@QAE?AW4P_BOOL@@HPAXH@Z 0040c690 f   lib_gt:gt_filebuffer.obj
 0001:0000b790       ?GetString@GT_FileBuffer@@QAE?AW4P_BOOL@@HAAVPString@@H@Z 0040c790 f   lib_gt:gt_filebuffer.obj
 0001:0000b7d0       ?GetCString@GT_FileBuffer@@QAEXAAVPString@@HH@Z 0040c7d0 f   lib_gt:gt_filebuffer.obj
 0001:0000b850       ?GetPascalString@GT_FileBuffer@@QAEXAAVPString@@H@Z 0040c850 f   lib_gt:gt_filebuffer.obj
 0001:0000b9e0       ?GetUntil@GT_FileBuffer@@QAE?AW4P_BOOL@@JEPAXHAAH@Z 0040c9e0 f   lib_gt:gt_filebuffer.obj
 0001:0000ba60       ?SkipUntil@GT_FileBuffer@@QAE?AW4P_BOOL@@HE@Z 0040ca60 f   lib_gt:gt_filebuffer.obj
 0001:0000bb10       ?Find@GT_FileBuffer@@QAEHEHH@Z 0040cb10 f   lib_gt:gt_filebuffer.obj
 0001:0000bb40       ?iFind@GT_FileBuffer@@QAEHPBDHH@Z 0040cb40 f   lib_gt:gt_filebuffer.obj
 0001:0000bc90       ?Compare@GT_FileBuffer@@QAE?AW4P_BOOL@@HHE@Z 0040cc90 f   lib_gt:gt_filebuffer.obj
 0001:0000bcd0       ?Compare@GT_FileBuffer@@QAE?AW4P_BOOL@@HHPBD@Z 0040ccd0 f   lib_gt:gt_filebuffer.obj
 0001:0000bd10       ?iCompare@GT_FileBuffer@@QAE?AW4P_BOOL@@HHPBD@Z 0040cd10 f   lib_gt:gt_filebuffer.obj
 0001:0000bd50       ??0GT_WindowsConsole@@QAE@XZ 0040cd50 f   lib_gt:gt_winconsole.obj
 0001:0000bde0       ??_GGT_WindowsConsole@@UAEPAXI@Z 0040cde0 f i lib_gt:gt_winconsole.obj
 0001:0000bde0       ??_EGT_WindowsConsole@@UAEPAXI@Z 0040cde0 f i lib_gt:gt_winconsole.obj
 0001:0000be30       ??1GT_WindowsConsole@@UAE@XZ 0040ce30 f   lib_gt:gt_winconsole.obj
 0001:0000be60       ?SetTextColor@GT_WindowsConsole@@QBEXW4GT_Color@@@Z 0040ce60 f   lib_gt:gt_winconsole.obj
 0001:0000bf50       ?RestoreOriginalColor@GT_WindowsConsole@@QBEXXZ 0040cf50 f   lib_gt:gt_winconsole.obj
 0001:0000bf80       ?GT_Error_ShowInternalError@@YIXPBD0H@Z 0040cf80 f   lib_gt:gt_error.obj
 0001:0000c010       ??0GT_Exception@@IAE@PBDW4GT_ExceptionType@@0J@Z 0040d010 f   lib_gt:gt_exceptions.obj
 0001:0000c0e0       ?GetText@GT_Exception@@UBE?AVPString@@XZ 0040d0e0 f   lib_gt:gt_exceptions.obj
 0001:0000c200       ??0GT_BufferException@@QAE@W4GT_ExceptionType@@PBDJ@Z 0040d200 f   lib_gt:gt_exceptions.obj
 0001:0000c230       ??0GT_FileException@@QAE@W4GT_ExceptionType@@PBDJ@Z 0040d230 f   lib_gt:gt_exceptions.obj
 0001:0000c260       ??0GT_EXEHeader@@QAE@PAVGT_FileBuffer@@@Z 0040d260 f   lib_exe:gt_exeanalyzer.obj
 0001:0000c300       ?IsValidEXE@GT_EXEHeader@@QBE?AW4P_BOOL@@XZ 0040d300 f   lib_exe:gt_exeanalyzer.obj
 0001:0000c320       ?IsValidCOM@GT_EXEHeader@@QBE?AW4P_BOOL@@XZ 0040d320 f   lib_exe:gt_exeanalyzer.obj
 0001:0000c380       ??0GT_EXEAnalyzer@@QAE@PAVGT_FileBuffer@@@Z 0040d380 f   lib_exe:gt_exeanalyzer.obj
 0001:0000c400       ?Check_EXT_EXE@GT_EXEAnalyzer@@AAE?AW4P_BOOL@@JW42@@Z 0040d400 f   lib_exe:gt_exeanalyzer.obj
 0001:0000c760       ?Check_EXE_Generic@GT_EXEAnalyzer@@AAE?AW4P_BOOL@@J@Z 0040d760 f   lib_exe:gt_exeanalyzer.obj
 0001:0000ca30       ?CheckStartupCode@GT_EXEAnalyzer@@AAE?AW4P_BOOL@@W42@@Z 0040da30 f   lib_exe:gt_exeanalyzer.obj
 0001:0000cd70       ?ListCOM@GT_EXEAnalyzer@@QAEXXZ 0040dd70 f   lib_exe:gt_exeanalyzer.obj
 0001:0000cd90       ?ListEXE@GT_EXEAnalyzer@@QAEXXZ 0040dd90 f   lib_exe:gt_exeanalyzer.obj
 0001:0000cfd0       ?_ListNEEXEs@GT_EXEAnalyzer@@AAEXXZ 0040dfd0 f   lib_exe:gt_exeanalyzer.obj
 0001:0000d150       ??1GT_EXE_LE_Lister@@QAE@XZ 0040e150 f i lib_exe:gt_exeanalyzer.obj
 0001:0000d160       ??0GT_Compare@@QAE@PAEEHPAVGT_FileBuffer@@P6IXPAU_EXEEntry@@01@Z@Z 0040e160 f   lib_exe:gt_compare.obj
 0001:0000d190       ?ExplicitMatches@GT_Compare@@QAE?AW4GT_CompareError@@PAEH@Z 0040e190 f   lib_exe:gt_compare.obj
 0001:0000d200       ?Matches@GT_Compare@@QAE?AW4GT_CompareError@@PAU_EXEEntry@@@Z 0040e200 f   lib_exe:gt_compare.obj
 0001:0000d2d0       ??0GT_EXE_PE_Lister@@QAE@JPAVGT_FileBuffer@@@Z 0040e2d0 f   lib_exe:gt_macromanager.obj
 0001:0000d2d0       ??0GT_MacroManager@@QAE@PAVGT_FileBuffer@@PAVGT_EXE_PE_SectionTableAnalyzer@@@Z 0040e2d0 f   lib_exe:gt_macromanager.obj
 0001:0000d2f0       ?GetMacroPos@GT_MacroManager@@QAE?AW4P_BOOL@@AAJPBDW42@@Z 0040e2f0 f   lib_exe:gt_macromanager.obj
 0001:0000d4b0       ?GetLongCallPos@GT_MacroManager@@QAE?AW4P_BOOL@@AAJJ@Z 0040e4b0 f   lib_exe:gt_macromanager.obj
 0001:0000d510       ?GetJumpPos@GT_MacroManager@@QAE?AW4P_BOOL@@AAJH@Z 0040e510 f   lib_exe:gt_macromanager.obj
 0001:0000d660       ?Get32BitRVAJumpPos@GT_MacroManager@@QAE?AW4P_BOOL@@AAJH@Z 0040e660 f   lib_exe:gt_macromanager.obj
 0001:0000d6f0       ??_EGT_EXE_LE_ObjectTableHandler@@UAEPAXI@Z 0040e6f0 f i lib_exe:gt_exe_le.obj
 0001:0000d6f0       ??_GGT_EXE_LE_ObjectTableHandler@@UAEPAXI@Z 0040e6f0 f i lib_exe:gt_exe_le.obj
 0001:0000d730       ??1GT_EXE_LE_ObjectTableHandler@@UAE@XZ 0040e730 f   lib_exe:gt_exe_le.obj
 0001:0000d750       ?GetRealAddrOfObject@GT_EXE_LE_ObjectTableHandler@@QBEJH@Z 0040e750 f   lib_exe:gt_exe_le.obj
 0001:0000d780       ?GetSizeOfObject@GT_EXE_LE_ObjectTableHandler@@QBEJH@Z 0040e780 f   lib_exe:gt_exe_le.obj
 0001:0000d7e0       ??0GT_EXE_LE_Lister@@QAE@PAVGT_FileBuffer@@J@Z 0040e7e0 f   lib_exe:gt_exe_le.obj
 0001:0000d870       ?Execute@GT_EXE_LE_Lister@@QAEXXZ 0040e870 f   lib_exe:gt_exe_le.obj
 0001:0000db10       ?List@GT_EXE_PE_ExportAnalyzer@@UAEXXZ 0040eb10 f   lib_exe:gt_exe_pe.obj
 0001:0000dea0       ?_ListLookupTable@GT_EXE_PE_ImportAnalyzer@@AAEXJ@Z 0040eea0 f   lib_exe:gt_exe_pe.obj
 0001:0000e000       ?List@GT_EXE_PE_ImportAnalyzer@@UAEXXZ 0040f000 f   lib_exe:gt_exe_pe.obj
 0001:0000e1b0       ?_ListVersionInfo@GT_EXE_PE_ResourceAnalyzer@@AAEXPAE@Z 0040f1b0 f   lib_exe:gt_exe_pe.obj
 0001:0000e350       ?_ListTable@GT_EXE_PE_ResourceAnalyzer@@AAEXJ@Z 0040f350 f   lib_exe:gt_exe_pe.obj
 0001:0000e400       ?_ListEntry@GT_EXE_PE_ResourceAnalyzer@@AAEXJ@Z 0040f400 f   lib_exe:gt_exe_pe.obj
 0001:0000e6a0       ?List@GT_EXE_PE_ResourceAnalyzer@@UAEXXZ 0040f6a0 f   lib_exe:gt_exe_pe.obj
 0001:0000e7b0       ??_GGT_EXE_PE_DataDirectoryHandler@@UAEPAXI@Z 0040f7b0 f i lib_exe:gt_exe_pe.obj
 0001:0000e7b0       ??_EGT_EXE_PE_DataDirectoryHandler@@UAEPAXI@Z 0040f7b0 f i lib_exe:gt_exe_pe.obj
 0001:0000e7f0       ??1GT_EXE_PE_DataDirectoryHandler@@UAE@XZ 0040f7f0 f   lib_exe:gt_exe_pe.obj
 0001:0000e810       ?CheckDataDirectory@GT_EXE_PE_Lister@@AAEXPAVGT_EXE_PE_SectionTableAnalyzer@@@Z 0040f810 f   lib_exe:gt_exe_pe.obj
 0001:0000ea70       ?Execute@GT_EXE_PE_Lister@@QAEXXZ 0040fa70 f   lib_exe:gt_exe_pe.obj
 0001:0000f040       ?Check_EXT_PE@GT_EXE_PE_Lister@@AAE?AW4P_BOOL@@JPAVGT_EXE_PE_SectionTableAnalyzer@@@Z 00410040 f   lib_exe:gt_exe_pe.obj
 0001:0000f130       ?CheckForCode@GT_EXE_PE_Lister@@AAEXJPAVGT_EXE_PE_SectionTableAnalyzer@@@Z 00410130 f   lib_exe:gt_exe_pe.obj
 0001:0000f3a0       ?GetAbsoluteSegmentTableOffset@GT_EXE_NE_HeaderHdl@@QBEJXZ 004103a0 f   lib_exe:gt_exe_ne.obj
 0001:0000f3b0       ?GetSectorSize@GT_EXE_NE_HeaderHdl@@QBEJXZ 004103b0 f   lib_exe:gt_exe_ne.obj
 0001:0000f3c0       ?HasSelfLoader@GT_EXE_NE_HeaderHdl@@QBE?AW4P_BOOL@@XZ 004103c0 f   lib_exe:gt_exe_ne.obj
 0001:0000f3e0       ?GetpHeader@GT_EXE_NE_HeaderHdl@@QBEPBU_GT_EXE_NE_Header@@XZ 004103e0 f   lib_exe:gt_exe_ne.obj
 0001:0000f3f0       ??0GT_EXE_NE_Lister@@QAE@PAVGT_FileBuffer@@J@Z 004103f0 f   lib_exe:gt_exe_ne.obj
 0001:0000f420       ?Execute@GT_EXE_NE_Lister@@QAEXXZ 00410420 f   lib_exe:gt_exe_ne.obj
 0001:0000fa10       ??0GT_EXE_PE_SectionTableAnalyzer@@QAE@PAVGT_FileBuffer@@PAU_GT_EXE_PE_ImageFileHeader@@J@Z 00410a10 f   lib_exe:gt_exe_pe_sectiontablehdl.obj
 0001:0000fab0       ??_GGT_EXE_PE_SectionTableAnalyzer@@UAEPAXI@Z 00410ab0 f i lib_exe:gt_exe_pe_sectiontablehdl.obj
 0001:0000fab0       ??_EGT_EXE_PE_SectionTableAnalyzer@@UAEPAXI@Z 00410ab0 f i lib_exe:gt_exe_pe_sectiontablehdl.obj
 0001:0000faf0       ??1GT_EXE_PE_SectionTableAnalyzer@@UAE@XZ 00410af0 f   lib_exe:gt_exe_pe_sectiontablehdl.obj
 0001:0000fb10       ?GetEXESize@GT_EXE_PE_SectionTableAnalyzer@@QBEJXZ 00410b10 f   lib_exe:gt_exe_pe_sectiontablehdl.obj
 0001:0000fb40       ?GetSectionName@GT_EXE_PE_SectionTableAnalyzer@@QBEPBDHW4P_BOOL@@@Z 00410b40 f   lib_exe:gt_exe_pe_sectiontablehdl.obj
 0001:0000fbb0       ?GetSectionOfPos@GT_EXE_PE_SectionTableAnalyzer@@QBEPAU_GT_EXE_PE_Section@@H@Z 00410bb0 f   lib_exe:gt_exe_pe_sectiontablehdl.obj
 0001:0000fbc0       ?GetPhysicalOffsetOfRVA@GT_EXE_PE_SectionTableAnalyzer@@QBEJJ@Z 00410bc0 f   lib_exe:gt_exe_pe_sectiontablehdl.obj
 0001:0000fc00       ?GetRVAByPhysicalOffset@GT_EXE_PE_SectionTableAnalyzer@@QBEJJ@Z 00410c00 f   lib_exe:gt_exe_pe_sectiontablehdl.obj
 0001:0000fc50       ??0GT_EXE_NE_SegmentHandler@@QAE@PAVGT_FileBuffer@@PAVGT_EXE_NE_HeaderHdl@@@Z 00410c50 f   lib_exe:gt_exe_ne_segmenthdl.obj
 0001:0000fcf0       ??_EGT_EXE_NE_SegmentHandler@@UAEPAXI@Z 00410cf0 f i lib_exe:gt_exe_ne_segmenthdl.obj
 0001:0000fcf0       ??_GGT_EXE_NE_SegmentHandler@@UAEPAXI@Z 00410cf0 f i lib_exe:gt_exe_ne_segmenthdl.obj
 0001:0000fd30       ??1GT_EXE_NE_SegmentHandler@@UAE@XZ 00410d30 f   lib_exe:gt_exe_ne_segmenthdl.obj
 0001:0000fd50       ?GetEndPos@GT_EXE_NE_SegmentHandler@@QBEJH@Z 00410d50 f   lib_exe:gt_exe_ne_segmenthdl.obj
 0001:0000fdb0       ?GetLength@GT_EXE_NE_SegmentHandler@@QBEJH@Z 00410db0 f   lib_exe:gt_exe_ne_segmenthdl.obj
 0001:0000fde0       ?GetStartPos@GT_EXE_NE_SegmentHandler@@QBEJH@Z 00410de0 f   lib_exe:gt_exe_ne_segmenthdl.obj
 0001:0000fe00       ?GetAllocSize@GT_EXE_NE_SegmentHandler@@QBEJH@Z 00410e00 f   lib_exe:gt_exe_ne_segmenthdl.obj
 0001:0000fe20       ?GetEntryPoint@GT_EXE_NE_SegmentHandler@@QBEJXZ 00410e20 f   lib_exe:gt_exe_ne_segmenthdl.obj
 0001:0000fe90       ?GetCalculatedFileSize@GT_EXE_NE_SegmentHandler@@QBEJXZ 00410e90 f   lib_exe:gt_exe_ne_segmenthdl.obj
 0001:0000fef0       ?GetType@GT_EXE_NE_SegmentHandler@@QBEPBDH@Z 00410ef0 f   lib_exe:gt_exe_ne_segmenthdl.obj
 0001:0000ff10       ??0GT_ArchiveAnalyzer@@QAE@PAVGT_FileBuffer@@@Z 00410f10 f   lib_archive:gt_archiver.obj
 0001:0000ff80       ?IsHAArchive@GT_ArchiveAnalyzer@@ABE?AW4P_BOOL@@H@Z 00410f80 f   lib_archive:gt_archiver.obj
 0001:00010130       ?GetPacker@GT_ArchiveAnalyzer@@AAEXH@Z 00411130 f   lib_archive:gt_archiver.obj
 0001:00010a40       ?IsValidPacker@GT_ArchiveAnalyzer@@QBE?AW4P_BOOL@@XZ 00411a40 f   lib_archive:gt_archiver.obj
 0001:00010a50       ?ListArchiveName@GT_ArchiveAnalyzer@@QBEXXZ 00411a50 f   lib_archive:gt_archiver.obj
 0001:00010aa0       ?ListArchive@GT_ArchiveAnalyzer@@QAE?AW4P_BOOL@@XZ 00411aa0 f   lib_archive:gt_archiver.obj
 0001:000114d0       ?CheckForOverlay@GT_ArchiveAnalyzer@@QBEXXZ 004124d0 f   lib_archive:gt_archiver.obj
 0001:000114e0       ??0GT_BasicArchiveLister@@QAE@PAVGT_FileBuffer@@H@Z 004124e0 f   lib_archive:gt_archiver.obj
 0001:00011520       ?ShowHeader@GT_BasicArchiveLister@@UAEXXZ 00412520 f   lib_archive:gt_archiver.obj
 0001:00011580       ?ShowFile@GT_BasicArchiveLister@@UAEXJJNPBDW4P_BOOL@@W4GT_DateTimeType@@1@Z 00412580 f   lib_archive:gt_archiver.obj
 0001:000116e0       ?ShowOverall@GT_BasicArchiveLister@@UAEXXZ 004126e0 f   lib_archive:gt_archiver.obj
 0001:00011800       ?ListFiles@GT_BasicArchiveLister@@UAEXXZ 00412800 f   lib_archive:gt_archiver.obj
 0001:00011810       ?ListFiles@GT_777ArchiveLister@@UAEXXZ 00412810 f   lib_archive:gt_archiver.obj
 0001:00011a90       ??0PHeap@@QAE@XZ           00412a90 f i lib_archive:gt_archiver.obj
 0001:00011ab0       ?ListFiles@GT_ACEArchiveLister@@UAEXXZ 00412ab0 f   lib_archive:gt_archiver.obj
 0001:00011c40       ?ListFiles@GT_AINArchiveLister@@UAEXXZ 00412c40 f   lib_archive:gt_archiver.obj
 0001:00011cb0       ?ListFiles@GT_AKT7ArchiveLister@@UAEXXZ 00412cb0 f   lib_archive:gt_archiver.obj
 0001:00011f00       ?ListFiles@GT_AKT9ArchiveLister@@UAEXXZ 00412f00 f   lib_archive:gt_archiver.obj
 0001:00012130       ?ListFiles@GT_AMGArchiveLister@@UAEXXZ 00413130 f   lib_archive:gt_archiver.obj
 0001:000122e0       ?ListFiles@GT_ARCArchiveLister@@UAEXXZ 004132e0 f   lib_archive:gt_archiver.obj
 0001:000123e0       ?ListFiles@GT_ARGArchiveLister@@UAEXXZ 004133e0 f   lib_archive:gt_archiver.obj
 0001:000124a0       ?ListFiles@GT_ARJArchiveLister@@UAEXXZ 004134a0 f   lib_archive:gt_archiver.obj
 0001:000128d0       ?ListFiles@GT_ARQArchiveLister@@UAEXXZ 004138d0 f   lib_archive:gt_archiver.obj
 0001:00012a70       ?ListFiles@GT_ARXArchiveLister@@UAEXXZ 00413a70 f   lib_archive:gt_archiver.obj
 0001:00012bd0       ?ListFiles@GT_ASDArchiveLister@@UAEXXZ 00413bd0 f   lib_archive:gt_archiver.obj
 0001:00012d20       ?ListFiles@GT_BLIArchiveLister@@UAEXXZ 00413d20 f   lib_archive:gt_archiver.obj
 0001:00012f10       ?ListFiles@GT_CABArchiveLister@@UAEXXZ 00413f10 f   lib_archive:gt_archiver.obj
 0001:00013080       ?ListFiles@GT_GZArchiveLister@@UAEXXZ 00414080 f   lib_archive:gt_archiver.obj
 0001:000131c0       ?ListFiles@GT_HAArchiveLister@@UAEXXZ 004141c0 f   lib_archive:gt_archiver.obj
 0001:00013380       ??0GT_IMPArchiveLister@@QAE@PAVGT_FileBuffer@@H@Z 00414380 f   lib_archive:gt_archiver.obj
 0001:00013420       ?load_fixed_codes@GT_IMPArchiveLister@@IAEXPAEJ@Z 00414420 f   lib_archive:gt_archiver.obj
 0001:00013520       ?make_codes@GT_IMPArchiveLister@@IAEXPAKPAEH@Z 00414520 f   lib_archive:gt_archiver.obj
 0001:000135d0       ?make_decode_tables@GT_IMPArchiveLister@@IAEHPAHQAY01HPAKPAEHH@Z 004145d0 f   lib_archive:gt_archiver.obj
 0001:00013760       ?load_hcodes@GT_IMPArchiveLister@@IAEHPAEHHJ@Z 00414760 f   lib_archive:gt_archiver.obj
 0001:00013b40       ?expand_lz@GT_IMPArchiveLister@@IAEHPAEHH@Z 00414b40 f   lib_archive:gt_archiver.obj
 0001:00014540       ?ListFiles@GT_IMPArchiveLister@@UAEXXZ 00415540 f   lib_archive:gt_archiver.obj
 0001:00014a00       ?ListFiles@GT_INSArchiveLister@@UAEXXZ 00415a00 f   lib_archive:gt_archiver.obj
 0001:00014ba0       ?ListFiles@GT_LGArchiveLister@@UAEXXZ 00415ba0 f   lib_archive:gt_archiver.obj
 0001:00014d60       ?ListFiles@GT_LZHArchiveLister@@UAEXXZ 00415d60 f   lib_archive:gt_archiver.obj
 0001:00015120       ?ListFiles@GT_LZOArchiveLister@@UAEXXZ 00416120 f   lib_archive:gt_archiver.obj
 0001:000152d0       ?ListFiles@GT_NEROArchiveLister@@UAEXXZ 004162d0 f   lib_archive:gt_archiver.obj
 0001:000153d0       ?ListFiles@GT_PAQArchiveLister@@UAEXXZ 004163d0 f   lib_archive:gt_archiver.obj
 0001:000154e0       ?ListFiles@GT_PPZArchiveLister@@UAEXXZ 004164e0 f   lib_archive:gt_archiver.obj
 0001:000155a0       ?ListFiles@GT_RARArchiveLister@@UAEXXZ 004165a0 f   lib_archive:gt_archiver.obj
 0001:00015850       ?ListFiles@GT_STIArchiveLister@@UAEXXZ 00416850 f   lib_archive:gt_archiver.obj
 0001:00015bc0       ?ListFiles@GT_TARArchiveLister@@UAEXXZ 00416bc0 f   lib_archive:gt_archiver.obj
 0001:00015cc0       ?ListFiles@GT_YCArchiveLister@@UAEXXZ 00416cc0 f   lib_archive:gt_archiver.obj
 0001:00015e60       ?ListFiles@GT_ZETArchiveLister@@UAEXXZ 00416e60 f   lib_archive:gt_archiver.obj
 0001:00016100       ?ListFiles@GT_ZIPArchiveLister@@UAEXXZ 00417100 f   lib_archive:gt_archiver.obj
 0001:000163a0       ?ListFiles@GT_ZOOArchiveLister@@UAEXXZ 004173a0 f   lib_archive:gt_archiver.obj
 0001:00016540       ??1?$GT_Sequence@VPString@@@@UAE@XZ 00417540 f i lib_archive:gt_archiver.obj
 0001:00016590       ??_G?$GT_Sequence@VPString@@@@UAEPAXI@Z 00417590 f i lib_archive:gt_archiver.obj
 0001:00016590       ??_E?$GT_Sequence@VPString@@@@UAEPAXI@Z 00417590 f i lib_archive:gt_archiver.obj
 0001:000165f0       ??0?$GT_Entry@VPString@@@@QAE@PAV0@ABVPString@@0@Z 004175f0 f i lib_archive:gt_archiver.obj
 0001:00016620       ?Analyze@GT_BMPAnalyzer@@QBE?AVPString@@XZ 00417620 f   lib_generic:gt_generic.obj
 0001:00016900       ??0GT_DBFAnalyzer@@QAE@PAVGT_FileBuffer@@@Z 00417900 f   lib_generic:gt_generic.obj
 0001:00016a60       ?Analyze@GT_DBFAnalyzer@@QBE?AVPString@@XZ 00417a60 f   lib_generic:gt_generic.obj
 0001:00016d50       ?Analyze@GT_HTMLAnalyzer@@QBE?AVPString@@XZ 00417d50 f   lib_generic:gt_generic.obj
 0001:00016e90       ?GetSectionName@GT_INIAnalyzer@@QBE?AVPString@@XZ 00417e90 f   lib_generic:gt_generic.obj
 0001:00016f90       ?GetImageJPGString@GT_FileTypeAnalyzer@@ABE?AVPString@@XZ 00417f90 f   lib_generic:gt_generic.obj
 0001:00017310       ?_SubAnalyze@GT_RIFFAnalyzer@@ABIXKKAAKAAVPString@@1@Z 00418310 f   lib_generic:gt_generic.obj
 0001:00017520       ?Analyze@GT_RIFFAnalyzer@@QBI?AVPString@@XZ 00418520 f   lib_generic:gt_generic.obj
 0001:000179a0       ?_GetPascalStartPos@GT_SourceAnalyzer@@ABIHXZ 004189a0 f   lib_generic:gt_generic.obj
 0001:00017a90       ?_GetCStartPos@GT_SourceAnalyzer@@ABIHXZ 00418a90 f   lib_generic:gt_generic.obj
 0001:00017b80       ?_Init@GT_SourceAnalyzer@@AAIXXZ 00418b80 f   lib_generic:gt_generic.obj
 0001:00018730       ?_GetNextString@GT_SourceAnalyzer@@AAIXHD@Z 00419730 f   lib_generic:gt_generic.obj
 0001:000187e0       ?_CheckString1@GT_SourceAnalyzer@@AAI?AW4P_BOOL@@ABVPString@@HPBD@Z 004197e0 f   lib_generic:gt_generic.obj
 0001:00018850       ?_CheckString2@GT_SourceAnalyzer@@AAI?AW4P_BOOL@@ABVPString@@HPBD1@Z 00419850 f   lib_generic:gt_generic.obj
 0001:000188e0       ?GetSourceType@GT_SourceAnalyzer@@QAI?AVPString@@XZ 004198e0 f   lib_generic:gt_generic.obj
 0001:00018aa0       ?Analyze@GT_SYSAnalyzer@@QBE?AVPString@@XZ 00419aa0 f   lib_generic:gt_generic.obj
 0001:00018ba0       ??0GT_TPUAnalyzer@@QAE@PAVGT_FileBuffer@@@Z 00419ba0 f   lib_generic:gt_generic.obj
 0001:00018c30       ?Analyze@GT_TPUAnalyzer@@QBE?AVPString@@XZ 00419c30 f   lib_generic:gt_generic.obj
 0001:00018d20       ??0GT_TTFAnalyzer@@QAE@PAVGT_FileBuffer@@@Z 00419d20 f   lib_generic:gt_generic.obj
 0001:00018de0       ?ReadEntry@GT_TTFAnalyzer@@ABE?AVPString@@PAU_GT_TTF_Name@@HH@Z 00419de0 f   lib_generic:gt_generic.obj
 0001:00019020       ?Analyze@GT_TTFAnalyzer@@QBE?AVPString@@XZ 0041a020 f   lib_generic:gt_generic.obj
 0001:00019290       ?GetIFFType@GT_FileTypeAnalyzer@@ABE?AVPString@@PBJ@Z 0041a290 f   lib_generic:gt_generic.obj
 0001:00019670       ?GetImageIFFString@GT_FileTypeAnalyzer@@ABE?AVPString@@XZ 0041a670 f   lib_generic:gt_generic.obj
 0001:00019850       ?GetSoundMIDIString@GT_FileTypeAnalyzer@@ABE?AVPString@@XZ 0041a850 f   lib_generic:gt_generic.obj
 0001:00019970       ?GetSoundMP3String@GT_FileTypeAnalyzer@@ABE?AVPString@@XZ 0041a970 f   lib_generic:gt_generic.obj
 0001:00019e60       ?GetSoundVOCString@GT_FileTypeAnalyzer@@ABE?AVPString@@XZ 0041ae60 f   lib_generic:gt_generic.obj
 0001:0001a260       ??0GT_FileTypeAnalyzer@@QAE@PAVGT_FileBuffer@@@Z 0041b260 f   lib_generic:gt_generic.obj
 0001:0001a280       ?Analyze@GT_FileTypeAnalyzer@@QAE?AVPString@@XZ 0041b280 f   lib_generic:gt_generic.obj
 0001:0001d270       ??1GT_SourceAnalyzer@@QAE@XZ 0041e270 f i lib_generic:gt_generic.obj
 0001:0001d280       ?CheckOverlay@GT_FileTypeAnalyzer@@QAE?AW4P_BOOL@@XZ 0041e280 f   lib_generic:gt_generic.obj
 0001:0001d2a0       _RtlUnwind@16              0041e2a0 f   kernel32:KERNEL32.dll
 0001:0001d2a6       _clock                     0041e2a6 f   libc:clock.obj
 0001:0001d2e9       ___inittime                0041e2e9 f   libc:clock.obj
 0001:0001d31e       _realloc                   0041e31e f   libc:realloc.obj
 0001:0001d5be       __itoa                     0041e5be f   libc:xtoa.obj
 0001:0001d647       __ltoa                     0041e647 f   libc:xtoa.obj
 0001:0001d671       _vsprintf                  0041e671 f   libc:vsprintf.obj
 0001:0001d6c2       _sprintf                   0041e6c2 f   libc:sprintf.obj
 0001:0001d714       _vfprintf                  0041e714 f   libc:vfprintf.obj
 0001:0001d745       __findfirst                0041e745 f   libc:findfile.obj
 0001:0001d80f       __findnext                 0041e80f f   libc:findfile.obj
 0001:0001d8d4       __findclose                0041e8d4 f   libc:findfile.obj
 0001:0001d8f3       ___timet_from_ft           0041e8f3 f   libc:findfile.obj
 0001:0001d957       __onexit                   0041e957 f   libc:onexit.obj
 0001:0001d9c4       _atexit                    0041e9c4 f   libc:onexit.obj
 0001:0001d9d6       ___onexitinit              0041e9d6 f   libc:onexit.obj
 0001:0001da05       __purecall                 0041ea05 f   libc:purevirt.obj
 0001:0001da0e       _fputs                     0041ea0e f   libc:fputs.obj
 0001:0001da51       ??2@YAPAXI@Z               0041ea51 f   libc:new.obj
 0001:0001da5f       __fsopen                   0041ea5f f   libc:fopen.obj
 0001:0001da7f       _fopen                     0041ea7f f   libc:fopen.obj
 0001:0001da92       _fgets                     0041ea92 f   libc:fgets.obj
 0001:0001dae9       _strerror                  0041eae9 f   libc:strerror.obj
 0001:0001db15       __open                     0041eb15 f   libc:open.obj
 0001:0001db2c       __sopen                    0041eb2c f   libc:open.obj
 0001:0001dde5       __filelength               0041ede5 f   libc:flength.obj
 0001:0001de5d       _setvbuf                   0041ee5d f   libc:setvbuf.obj
 0001:0001defe       __read                     0041eefe f   libc:read.obj
 0001:0001e0f4       _fread                     0041f0f4 f   libc:fread.obj
 0001:0001e1dc       _fseek                     0041f1dc f   libc:fseek.obj
 0001:0001e268       ??1type_info@@UAE@XZ       0041f268 f   libc:typinfo.obj
 0001:0001e27d       ??_Etype_info@@UAEPAXI@Z   0041f27d f i libc:typinfo.obj
 0001:0001e27d       ??_Gtype_info@@UAEPAXI@Z   0041f27d f i libc:typinfo.obj
 0001:0001e299       __CxxThrowException@8      0041f299 f   libc:throw.obj
 0001:0001e2e0       _strrchr                   0041f2e0 f   libc:strrchr.obj
 0001:0001e307       _isupper                   0041f307 f   libc:_ctype.obj
 0001:0001e32f       _isalnum                   0041f32f f   libc:_ctype.obj
 0001:0001e360       __strnicmp                 0041f360 f   libc:strnicmp.obj
 0001:0001e360       _strnicmp                  0041f360 f   libc:strnicmp.obj
 0001:0001e410       __stricmp                  0041f410 f   libc:stricmp.obj
 0001:0001e410       _stricmp                   0041f410 f   libc:stricmp.obj
 0001:0001e410       __strcmpi                  0041f410 f   libc:stricmp.obj
 0001:0001e49c       _atol                      0041f49c f   libc:atox.obj
 0001:0001e528       __ftol                     0041f528 f   libc:ftol.obj
 0001:0001e550       __allmul                   0041f550 f   libc:llmul.obj
 0001:0001e584       ___loctotime_t             0041f584 f   libc:dtoxtime.obj
 0001:0001e646       __msize                    0041f646 f   libc:msize.obj
 0001:0001e6a7       _fwrite                    0041f6a7 f   libc:fwrite.obj
 0001:0001e7b1       __openfile                 0041f7b1 f   libc:_open.obj
 0001:0001e921       __getstream                0041f921 f   libc:stream.obj
 0001:0001e999       __filbuf                   0041f999 f   libc:_filbuf.obj
 0001:0001ea72       __chsize                   0041fa72 f   libc:chsize.obj
 0001:0001ebb8       _ftell                     0041fbb8 f   libc:ftell.obj
 0001:0001ed10       ___tzset                   0041fd10 f   libc:tzset.obj
 0001:0001ed25       __tzset                    0041fd25 f   libc:tzset.obj
 0001:0001ef83       __isindst                  0041ff83 f   libc:tzset.obj
 0001:0001f26f       __setmode                  0042026f f   libc:setmode.obj
 0001:0001f2e5       _getenv                    004202e5 f   libc:getenv.obj
 0001:0001f362       __mbsnbicoll               00420362 f   libc:mbsnbico.obj
 0001:0001f3a1       ___wtomb_environ           004203a1 f   libc:wtombenv.obj
 0001:0001f40f       ___crtCompareStringA       0042040f f   libc:a_cmp.obj
 0001:0001f6b7       ___crtsetenv               004206b7 f   libc:setenv.obj
 0001:0001f8fd       __mbschr                   004208fd f   libc:mbschr.obj
 0001:0001f970       __strdup                   00420970 f   libc:strdup.obj
 0001:0001f9a0       ?p_StrOct2Dec@@YIJPADH@Z   004209a0 f   plib:pheader.obj
 0001:0001fa50       ?p_Align@@YIXAAJH@Z        00420a50 f   plib:pheader.obj
 0001:0001fa70       ?p_HexToLong@@YIJPBD@Z     00420a70 f   plib:pheader.obj
 0001:0001fc60       ?p_atol@@YIJPBD@Z          00420c60 f   plib:pheader.obj
 0001:0001fc80       ?p_long2str@@YIPBDJ@Z      00420c80 f   plib:pheader.obj
 0001:0001fca0       ?p_unicode2ansi@@YIXPBDPADH@Z 00420ca0 f   plib:pheader.obj
 0001:0001fcd0       ?GetCurrentUserString@PRegistry@@SI?AW4P_BOOL@@PBD0JPAD@Z 00420cd0 f   plib:pregistry.obj
 0001:0001fd60       ??0PThrowable@@QAE@PBD@Z   00420d60 f   plib:pexceptions.obj
 0001:0001fdd0       ??0GT_DateTimeEntry@@QAE@XZ 00420dd0 f   lib_gt:gt_time.obj
 0001:0001fdf0       ?SetDOSTime@GT_DateTime@@QAEXJ@Z 00420df0 f   lib_gt:gt_time.obj
 0001:0001fe40       ?SetWindowsTime@GT_DateTime@@QAEXN@Z 00420e40 f   lib_gt:gt_time.obj
 0001:0001fed0       ?SetUnixTime@GT_DateTime@@QAEXJ@Z 00420ed0 f   lib_gt:gt_time.obj
 0001:000201b0       ?DateToBuffer@GT_DateTime@@QAEXPADHW4P_BOOL@@@Z 004211b0 f   lib_gt:gt_time.obj
 0002:00000000       __imp__RegQueryValueExA@24 00423000     advapi32:ADVAPI32.dll
 0002:00000004       __imp__RegOpenKeyExA@20    00423004     advapi32:ADVAPI32.dll
 0002:00000008       __imp__RegCloseKey@4       00423008     advapi32:ADVAPI32.dll
 0002:0000000c       \177ADVAPI32_NULL_THUNK_DATA 0042300c     advapi32:ADVAPI32.dll
 0002:00000010       __imp__WinExec@8           00423010     kernel32:KERNEL32.dll
 0002:00000014       __imp__GetOEMCP@0          00423014     kernel32:KERNEL32.dll
 0002:00000018       __imp__RtlUnwind@16        00423018     kernel32:KERNEL32.dll
 0002:0000001c       __imp__ReadConsoleInputA@16 0042301c     kernel32:KERNEL32.dll
 0002:00000020       __imp__SetConsoleMode@8    00423020     kernel32:KERNEL32.dll
 0002:00000024       __imp__GetConsoleMode@8    00423024     kernel32:KERNEL32.dll
 0002:00000028       __imp__GetCommandLineA@0   00423028     kernel32:KERNEL32.dll
 0002:0000002c       __imp__GetVersion@0        0042302c     kernel32:KERNEL32.dll
 0002:00000030       __imp__ExitProcess@4       00423030     kernel32:KERNEL32.dll
 0002:00000034       __imp__SetHandleCount@4    00423034     kernel32:KERNEL32.dll
 0002:00000038       __imp__GetStdHandle@4      00423038     kernel32:KERNEL32.dll
 0002:0000003c       __imp__GetFileType@4       0042303c     kernel32:KERNEL32.dll
 0002:00000040       __imp__GetStartupInfoA@4   00423040     kernel32:KERNEL32.dll
 0002:00000044       __imp__HeapAlloc@12        00423044     kernel32:KERNEL32.dll
 0002:00000048       __imp__TerminateProcess@8  00423048     kernel32:KERNEL32.dll
 0002:0000004c       __imp__GetCurrentProcess@0 0042304c     kernel32:KERNEL32.dll
 0002:00000050       __imp__HeapFree@12         00423050     kernel32:KERNEL32.dll
 0002:00000054       __imp__CreateFileA@28      00423054     kernel32:KERNEL32.dll
 0002:00000058       __imp__CloseHandle@4       00423058     kernel32:KERNEL32.dll
 0002:0000005c       __imp__GetProcAddress@8    0042305c     kernel32:KERNEL32.dll
 0002:00000060       __imp__GetModuleHandleA@4  00423060     kernel32:KERNEL32.dll
 0002:00000064       __imp__UnhandledExceptionFilter@4 00423064     kernel32:KERNEL32.dll
 0002:00000068       __imp__GetModuleFileNameA@12 00423068     kernel32:KERNEL32.dll
 0002:0000006c       __imp__FreeEnvironmentStringsA@4 0042306c     kernel32:KERNEL32.dll
 0002:00000070       __imp__FreeEnvironmentStringsW@4 00423070     kernel32:KERNEL32.dll
 0002:00000074       __imp__WideCharToMultiByte@32 00423074     kernel32:KERNEL32.dll
 0002:00000078       __imp__GetEnvironmentStrings@0 00423078     kernel32:KERNEL32.dll
 0002:0000007c       __imp__GetEnvironmentStringsW@0 0042307c     kernel32:KERNEL32.dll
 0002:00000080       __imp__GetEnvironmentVariableA@12 00423080     kernel32:KERNEL32.dll
 0002:00000084       __imp__GetVersionExA@4     00423084     kernel32:KERNEL32.dll
 0002:00000088       __imp__HeapDestroy@4       00423088     kernel32:KERNEL32.dll
 0002:0000008c       __imp__HeapCreate@12       0042308c     kernel32:KERNEL32.dll
 0002:00000090       __imp__VirtualFree@12      00423090     kernel32:KERNEL32.dll
 0002:00000094       __imp__WriteFile@20        00423094     kernel32:KERNEL32.dll
 0002:00000098       __imp__VirtualAlloc@16     00423098     kernel32:KERNEL32.dll
 0002:0000009c       __imp__HeapReAlloc@16      0042309c     kernel32:KERNEL32.dll
 0002:000000a0       __imp__IsBadWritePtr@8     004230a0     kernel32:KERNEL32.dll
 0002:000000a4       __imp__GetLastError@0      004230a4     kernel32:KERNEL32.dll
 0002:000000a8       __imp__FlushFileBuffers@4  004230a8     kernel32:KERNEL32.dll
 0002:000000ac       __imp__SetUnhandledExceptionFilter@4 004230ac     kernel32:KERNEL32.dll
 0002:000000b0       __imp__IsBadReadPtr@8      004230b0     kernel32:KERNEL32.dll
 0002:000000b4       __imp__IsBadCodePtr@4      004230b4     kernel32:KERNEL32.dll
 0002:000000b8       __imp__GetCPInfo@8         004230b8     kernel32:KERNEL32.dll
 0002:000000bc       __imp__GetACP@0            004230bc     kernel32:KERNEL32.dll
 0002:000000c0       __imp__SetConsoleCtrlHandler@8 004230c0     kernel32:KERNEL32.dll
 0002:000000c4       __imp__LoadLibraryA@4      004230c4     kernel32:KERNEL32.dll
 0002:000000c8       __imp__SetFilePointer@16   004230c8     kernel32:KERNEL32.dll
 0002:000000cc       __imp__SetStdHandle@8      004230cc     kernel32:KERNEL32.dll
 0002:000000d0       __imp__MultiByteToWideChar@24 004230d0     kernel32:KERNEL32.dll
 0002:000000d4       __imp__GetStringTypeA@20   004230d4     kernel32:KERNEL32.dll
 0002:000000d8       __imp__GetStringTypeW@16   004230d8     kernel32:KERNEL32.dll
 0002:000000dc       __imp__LCMapStringA@24     004230dc     kernel32:KERNEL32.dll
 0002:000000e0       __imp__LCMapStringW@24     004230e0     kernel32:KERNEL32.dll
 0002:000000e4       __imp__SetConsoleTextAttribute@8 004230e4     kernel32:KERNEL32.dll
 0002:000000e8       __imp__GetConsoleScreenBufferInfo@8 004230e8     kernel32:KERNEL32.dll
 0002:000000ec       __imp__LocalFree@4         004230ec     kernel32:KERNEL32.dll
 0002:000000f0       __imp__OutputDebugStringA@4 004230f0     kernel32:KERNEL32.dll
 0002:000000f4       __imp__FormatMessageA@28   004230f4     kernel32:KERNEL32.dll
 0002:000000f8       __imp__GetFileAttributesA@4 004230f8     kernel32:KERNEL32.dll
 0002:000000fc       __imp__HeapSize@12         004230fc     kernel32:KERNEL32.dll
 0002:00000100       __imp__FileTimeToDosDateTime@12 00423100     kernel32:KERNEL32.dll
 0002:00000104       __imp__SetEnvironmentVariableA@8 00423104     kernel32:KERNEL32.dll
 0002:00000108       __imp__CompareStringW@24   00423108     kernel32:KERNEL32.dll
 0002:0000010c       __imp__CompareStringA@24   0042310c     kernel32:KERNEL32.dll
 0002:00000110       __imp__GetTimeZoneInformation@4 00423110     kernel32:KERNEL32.dll
 0002:00000114       __imp__SetEndOfFile@4      00423114     kernel32:KERNEL32.dll
 0002:00000118       __imp__GetSystemTimeAsFileTime@4 00423118     kernel32:KERNEL32.dll
 0002:0000011c       __imp__RaiseException@16   0042311c     kernel32:KERNEL32.dll
 0002:00000120       __imp__ReadFile@20         00423120     kernel32:KERNEL32.dll
 0002:00000124       __imp__FileTimeToLocalFileTime@8 00423124     kernel32:KERNEL32.dll
 0002:00000128       __imp__FileTimeToSystemTime@8 00423128     kernel32:KERNEL32.dll
 0002:0000012c       __imp__FindClose@4         0042312c     kernel32:KERNEL32.dll
 0002:00000130       __imp__FindNextFileA@8     00423130     kernel32:KERNEL32.dll
 0002:00000134       __imp__FindFirstFileA@8    00423134     kernel32:KERNEL32.dll
 0002:00000138       \177KERNEL32_NULL_THUNK_DATA 00423138     kernel32:KERNEL32.dll
 0002:0000013c       __imp__SendMessageA@16     0042313c     user32:USER32.dll
 0002:00000140       __imp__GetWindowTextA@12   00423140     user32:USER32.dll
 0002:00000144       __imp__EnumWindows@8       00423144     user32:USER32.dll
 0002:00000148       \177USER32_NULL_THUNK_DATA 00423148     user32:USER32.dll
 0002:0000014c       __imp__GT_C2E_Index        0042314c     gtdata:gtdata.dll
 0002:00000150       __imp__GT_NE_0J_Count      00423150     gtdata:gtdata.dll
 0002:00000154       __imp__GT_EXT_EXE_Count    00423154     gtdata:gtdata.dll
 0002:00000158       __imp__GT_EXT_PE_Count     00423158     gtdata:gtdata.dll
 0002:0000015c       __imp__GT_EXT_PE_Index     0042315c     gtdata:gtdata.dll
 0002:00000160       __imp__GT_PE_0J_Count      00423160     gtdata:gtdata.dll
 0002:00000164       __imp__GT_PE_0J_Index      00423164     gtdata:gtdata.dll
 0002:00000168       __imp__GT_NE_0J_Index      00423168     gtdata:gtdata.dll
 0002:0000016c       __imp__GT_EXT_EXE_Index    0042316c     gtdata:gtdata.dll
 0002:00000170       __imp__GT_EXE_1LJ_Count    00423170     gtdata:gtdata.dll
 0002:00000174       __imp__GT_EXE_1LJ_Index    00423174     gtdata:gtdata.dll
 0002:00000178       __imp__GT_EXE_2J_Count     00423178     gtdata:gtdata.dll
 0002:0000017c       __imp__GT_EXE_2J_Index     0042317c     gtdata:gtdata.dll
 0002:00000180       __imp__GT_EXE_1J_Count     00423180     gtdata:gtdata.dll
 0002:00000184       __imp__GT_EXE_1J_Index     00423184     gtdata:gtdata.dll
 0002:00000188       __imp__GT_EXE_0J_Count     00423188     gtdata:gtdata.dll
 0002:0000018c       __imp__GT_EXE_0J_Index     0042318c     gtdata:gtdata.dll
 0002:00000190       __imp__GT_C2E_Count        00423190     gtdata:gtdata.dll
 0002:00000194       \177gtdata_NULL_THUNK_DATA 00423194     gtdata:gtdata.dll
 0002:00000198       ??_C@_04CNN@0?421?$AA@     00423198     gt_main.obj
 0002:000001a0       ??_7PHeap@@6B@             004231a0     gt_main.obj
 0002:000001ac       ??_C@_00A@?$AA@            004231ac     gt_main.obj
 0002:000001b0       ??_C@_0GD@IBNA@?6gt2000?5?$CFs?5?$CI?$CFs?5?$CFs?$CJ?5?$CIc?$CJ?51999?92000@ 004231b0     gt_main.obj
 0002:00000214       ??_C@_0M@GLLA@Dec?5?57?52000?$AA@ 00423214     gt_main.obj
 0002:00000220       ??_C@_08PJI@16?342?308?$AA@ 00423220     gt_main.obj
 0002:0000022c       ??_C@_0BB@LJJ@phax?$EAwriteme?4com?$AA@ 0042322c     gt_main.obj
 0002:00000240       ??_C@_0CL@HICP@Failed?5to?5read?5the?5config?5file?5?9@ 00423240     gt_main.obj
 0002:0000026c       ??_C@_0BN@EECO@Could?5not?5set?5error?5handler?6?$AA@ 0042326c     gt_main.obj
 0002:0000028c       ??_C@_0BI@DBIG@?$DMCtrl?$DO?$CL?$DMC?$DO?5was?5pressed?6?$AA@ 0042328c     gt_main.obj
 0002:000002a4       ??_C@_0BM@JAII@?$DMCtrl?$DO?$CL?$DMBreak?$DO?5was?5pressed?6?$AA@ 004232a4     gt_main.obj
 0002:000002c0       ??_C@_0BO@CLE@?$DMCtrl?$DO?$CL?$DMXYZ?$DO?5was?5pressed?5?$CFld?6?$AA@ 004232c0     gt_main.obj
 0002:000002e0       ??_C@_02JJJH@?6?6?$AA@     004232e0     gt_main.obj
 0002:000002e4       ??_C@_0BP@JFFE@?5?$CI0x?$CF02X?50x?$CF02X?50x?$CF02X?50x?$CF02X?$CJ?$AA@ 004232e4     gt_main.obj
 0002:00000304       ??_C@_0BH@IGOB@Unknown?5?$CFs?5file?5format?$AA@ 00423304     gt_main.obj
 0002:0000031c       ??_C@_06FNBK@binary?$AA@   0042331c     gt_main.obj
 0002:00000324       ??_C@_04LHJL@text?$AA@     00423324     gt_main.obj
 0002:0000032c       ??_C@_0DC@GNGP@Files?5with?5a?5size?5of?50?5bytes?5can@ 0042332c     gt_main.obj
 0002:00000360       ??_C@_0BN@HMJK@Found?5no?5matches?5for?5?8?$CFs?$CFs?8?6?$AA@ 00423360     gt_main.obj
 0002:00000380       ??_C@_0BE@FLPL@?5?5?1?$CF?910s?5?9?5?$CFs?5?9?5?$CFs?6?$AA@ 00423380     gt_main.obj
 0002:00000394       ??_C@_0BI@MNCA@do?5extended?5WPG?5listing?$AA@ 00423394     gt_main.obj
 0002:000003ac       ??_C@_04CEDN@zwpg?$AA@     004233ac     gt_main.obj
 0002:000003b4       ??_C@_0CL@DBCM@list?5a?5maximum?5of?5X?5entries?5of?5a@ 004233b4     gt_main.obj
 0002:000003e0       ??_C@_06MFKC@zriffX?$AA@   004233e0     gt_main.obj
 0002:000003e8       ??_C@_0DK@JLDL@send?5a?5WM_COPYDATA?5message?5to?5th@ 004233e8     gt_main.obj
 0002:00000424       ??_C@_06JLCK@zhwndX?$AA@   00423424     gt_main.obj
 0002:0000042c       ??_C@_0CD@CEMG@wait?5for?5a?5key?5after?5the?5last?5fi@ 0042342c     gt_main.obj
 0002:00000450       ??_C@_02HMFJ@wf?$AA@       00423450     gt_main.obj
 0002:00000454       ??_C@_0CF@BEFI@search?5in?5subdirectories?5?$CIrecurs@ 00423454     gt_main.obj
 0002:0000047c       ??_C@_04CPII@0?401?$AA@    0042347c     gt_main.obj
 0002:00000484       ??_C@_01KBOJ@s?$AA@        00423484     gt_main.obj
 0002:00000488       ??_C@_0BK@HCMM@do?5not?5list?5unknown?5files?$AA@ 00423488     gt_main.obj
 0002:000004a4       ??_C@_02ODMH@nu?$AA@       004234a4     gt_main.obj
 0002:000004a8       ??_C@_0BG@NCGH@do?5not?5show?5copyright?$AA@ 004234a8     gt_main.obj
 0002:000004c0       ??_C@_0FB@PPFD@Syntax?3?5?$CFs?5filemask?5?$FLfilemask?5?$FL?4@ 004234c0     gt_main.obj
 0002:00000514       ??_C@_06CAIJ@nologo?$AA@   00423514     gt_main.obj
 0002:0000051c       ??_C@_0BF@KPJA@do?5not?5output?5footer?$AA@ 0042351c     gt_main.obj
 0002:00000534       ??_C@_08EALB@nofooter?$AA@ 00423534     gt_main.obj
 0002:00000540       ??_C@_0BC@LEHI@do?5not?5use?5colors?$AA@ 00423540     gt_main.obj
 0002:00000554       ??_C@_07BAA@nocolor?$AA@   00423554     gt_main.obj
 0002:0000055c       ??_C@_0BO@DGPK@do?5not?5list?5files?5in?5archives?$AA@ 0042355c     gt_main.obj
 0002:0000057c       ??_C@_06BMKO@noarcs?$AA@   0042357c     gt_main.obj
 0002:00000584       ??_C@_0BN@ILMM@do?5not?5list?5identified?5files?$AA@ 00423584     gt_main.obj
 0002:000005a4       ??_C@_02LEFD@ni?$AA@       004235a4     gt_main.obj
 0002:000005a8       ??_C@_0DF@GKJN@do?5not?5read?5the?5config?5file?5in?5t@ 004235a8     gt_main.obj
 0002:000005e0       ??_C@_03PGHB@ncl?$AA@      004235e0     gt_main.obj
 0002:000005e4       ??_C@_0DB@PFCA@do?5not?5read?5the?5config?5file?5in?5t@ 004235e4     gt_main.obj
 0002:00000618       ??_C@_03FNHA@ncg?$AA@      00423618     gt_main.obj
 0002:0000061c       ??_C@_0BI@ONAB@use?5listmode?5for?5output?$AA@ 0042361c     gt_main.obj
 0002:00000634       ??_C@_04CPED@0?404?$AA@    00423634     gt_main.obj
 0002:0000063c       ??_C@_01JME@l?$AA@         0042363c     gt_main.obj
 0002:00000640       ??_C@_0CK@KDKJ@start?5gtui2?5and?5redirect?5the?5out@ 00423640     gt_main.obj
 0002:0000066c       ??_C@_04MGFA@0?417?$AA@    0042366c     gt_main.obj
 0002:00000674       ??_C@_05NNEE@gtui2?$AA@    00423674     gt_main.obj
 0002:0000067c       ??_C@_0DA@FMKG@set?5the?5fault?5tolerance?5in?5PE?5co@ 0042367c     gt_main.obj
 0002:000006ac       ??_C@_04MCDC@ftpX?$AA@     004236ac     gt_main.obj
 0002:000006b4       ??_C@_0DA@PELD@set?5the?5fault?5tolerance?5in?5NE?5co@ 004236b4     gt_main.obj
 0002:000006e4       ??_C@_04GKDA@ftnX?$AA@     004236e4     gt_main.obj
 0002:000006ec       ??_C@_0DB@IKCN@set?5the?5fault?5tolerance?5in?5EXE?5c@ 004236ec     gt_main.obj
 0002:00000720       ??_C@_04OEJL@fteX?$AA@     00423720     gt_main.obj
 0002:00000728       ??_C@_0CG@BKDH@list?5VersionInfo?5resources?5of?5PE@ 00423728     gt_main.obj
 0002:00000750       ??_C@_05HDJN@pever?$AA@    00423750     gt_main.obj
 0002:00000758       ??_C@_0BO@MAMJ@list?5segment?5table?5of?5PE?5EXEs?$AA@ 00423758     gt_main.obj
 0002:00000778       ??_C@_06CGG@pesect?$AA@    00423778     gt_main.obj
 0002:00000780       ??_C@_0CK@JEEO@list?5resources?5of?5PE?5EXEs?5and?5al@ 00423780     gt_main.obj
 0002:000007ac       ??_C@_06BHCP@peres2?$AA@   004237ac     gt_main.obj
 0002:000007b4       ??_C@_0BK@LHEN@list?5resources?5of?5PE?5EXEs?$AA@ 004237b4     gt_main.obj
 0002:000007d0       ??_C@_05JBFA@peres?$AA@    004237d0     gt_main.obj
 0002:000007d8       ??_C@_0CM@GBON@list?5imported?5DLLs?5and?5functions@ 004237d8     gt_main.obj
 0002:00000804       ??_C@_06KMCC@peimp2?$AA@   00423804     gt_main.obj
 0002:0000080c       ??_C@_0BO@GEIC@list?5imported?5DLLs?5of?5PE?5EXEs?$AA@ 0042380c     gt_main.obj
 0002:0000082c       ??_C@_05JMFJ@peimp?$AA@    0042382c     gt_main.obj
 0002:00000834       ??_C@_0BI@FKIM@list?5exports?5of?5PE?5EXEs?$AA@ 00423834     gt_main.obj
 0002:0000084c       ??_C@_05GCBP@peexp?$AA@    0042384c     gt_main.obj
 0002:00000854       ??_C@_0BP@HPCJ@list?5data?5directory?5of?5PE?5EXEs?$AA@ 00423854     gt_main.obj
 0002:00000874       ??_C@_04OPE@pedd?$AA@      00423874     gt_main.obj
 0002:0000087c       ??_C@_0CF@OBCK@substitution?5for?5?1epd?0?5?1eps?5and?5@ 0042387c     gt_main.obj
 0002:000008a4       ??_C@_05ENNC@peall?$AA@    004238a4     gt_main.obj
 0002:000008ac       ??_C@_0BI@DJNC@show?5caching?5statistics?$AA@ 004238ac     gt_main.obj
 0002:000008c4       ??_C@_0L@OBJN@cachestats?$AA@ 004238c4     gt_main.obj
 0002:000008d0       ??_C@_0CE@DLLG@set?5the?5maximum?5buffersize?5in?5by@ 004238d0     gt_main.obj
 0002:000008f4       ??_C@_08JCBB@bufsizeX?$AA@ 004238f4     gt_main.obj
 0002:00000900       ??_C@_0BJ@OGHD@use?5buffered?5IO?5?$CIslower?$CJ?$AA@ 00423900     gt_main.obj
 0002:0000091c       ??_C@_03EJCG@bio?$AA@      0042391c     gt_main.obj
 0002:00000920       ??_C@_0BG@KBFA@show?5this?5help?5screen?$AA@ 00423920     gt_main.obj
 0002:00000938       ??_C@_04NADB@0?402?$AA@    00423938     gt_main.obj
 0002:00000940       ??_C@_01PKMN@?$DP?$AA@     00423940     gt_main.obj
 0002:00000944       ??_C@_04HKKG@0?403?$AA@    00423944     gt_main.obj
 0002:0000094c       ??_C@_04KIEK@0?420?$AA@    0042394c     gt_main.obj
 0002:00000954       ??_C@_04GMMH@0?416?$AA@    00423954     gt_main.obj
 0002:0000095c       ??_C@_04GMAM@0?413?$AA@    0042395c     gt_main.obj
 0002:00000964       ??_C@_0CB@OFJ@Press?5any?5key?5to?5end?5the?5program@ 00423964     gt_main.obj
 0002:00000988       ??_C@_0HB@CJOF@?6Caching?5statistics?3?6?5?5?$CFld?5total@ 00423988     gt_main.obj
 0002:000009fc       ??_C@_0BN@CKHL@?5of?5which?5?$CFd?5may?5be?5damaged?6?$AA@ 004239fc     gt_main.obj
 0002:00000a1c       ??_C@_0BD@EMCJ@Found?5?$CFd?5archive?$CFs?$AA@ 00423a1c     gt_main.obj
 0002:00000a30       ??_C@_0DN@LCMF@?6Time?5needed?3?5?$CF?42f?5seconds?5?$CI?$CF?43f@ 00423a30     gt_main.obj
 0002:00000a70       ??_C@_01BJG@?6?$AA@        00423a70     gt_main.obj
 0002:00000a74       ??_C@_0BO@MHBO@?5and?5identified?5?$CFd?5?$CI?$DN?5?$CF?43f?$CF?$CF?$CJ?$AA@ 00423a74     gt_main.obj
 0002:00000a98       __real@4059000000000000    00423a98     gt_main.obj
 0002:00000aa0       ??_C@_0BB@NANF@?6Found?5?$CFd?5file?$CFs?$AA@ 00423aa0     gt_main.obj
 0002:00000ab4       ??_C@_0DE@CDEJ@?6?9?9?9?9?9?9?9?9?9?9?9?9?9?9?9?9?9?9?9?9?9?9?9?9?9?9?9?9?9?9?9@ 00423ab4     gt_main.obj
 0002:00000ae8       ??_C@_0DH@NCPP@Cannot?5start?5GTUI2?3?5The?5specifie@ 00423ae8     gt_gtui_starter.obj
 0002:00000b20       ??_C@_0DH@OAPO@Cannot?5start?5GTUI2?3?5The?5specifie@ 00423b20     gt_gtui_starter.obj
 0002:00000b58       ??_C@_0FH@DIJM@Cannot?5start?5GTUI2?3?5The?5?4exe?5fil@ 00423b58     gt_gtui_starter.obj
 0002:00000bb0       ??_C@_0DP@MHMH@Cannot?5start?5GTUI2?3?5The?5system?5i@ 00423bb0     gt_gtui_starter.obj
 0002:00000bf0       ??_C@_09EFGC@gtui2?4exe?$AA@ 00423bf0     gt_gtui_starter.obj
 0002:00000bfc       ??_C@_0CA@KBGL@Failed?5to?5clear?5window?5of?5GTUI?6?$AA@ 00423bfc     gt_gtui_starter.obj
 0002:00000c2c       ___lookuptable             00423c2c     libc:output.obj
 0002:00000c88       ??_C@_1O@POHA@?$AA?$CI?$AAn?$AAu?$AAl?$AAl?$AA?$CJ?$AA?$AA@ 00423c88     libc:output.obj
 0002:00000c98       ??_C@_06ONKE@?$CInull?$CJ?$AA@ 00423c98     libc:output.obj
 0002:00000d18       ??_C@_06MICP@CONIN$?$AA@   00423d18     libc:initcon.obj
 0002:00000d20       __real@8@3fff8000000000000000 00423d20     libc:testfdiv.obj
 0002:00000d28       __real@8@4015800bf60000000000 00423d28     libc:testfdiv.obj
 0002:00000d30       __real@8@4014bffffc0000000000 00423d30     libc:testfdiv.obj
 0002:00000d38       ??_C@_0BK@JEGK@IsProcessorFeaturePresent?$AA@ 00423d38     libc:testfdiv.obj
 0002:00000d54       ??_C@_08OBID@KERNEL32?$AA@ 00423d54     libc:testfdiv.obj
 0002:00000d60       __real@8@00000000000000000000 00423d60     libc:cvt.obj
 0002:00000d68       ??_C@_05OFLO@e?$CL000?$AA@ 00423d68     libc:cvt.obj
 0002:00000d70       ??_C@_0BH@PHHF@__GLOBAL_HEAP_SELECTED?$AA@ 00423d70     libc:heapinit.obj
 0002:00000d88       ??_C@_0BF@BBGL@__MSVCRT_HEAP_SELECT?$AA@ 00423d88     libc:heapinit.obj
 0002:00000da0       ??_C@_0P@GGKG@runtime?5error?5?$AA@ 00423da0     libc:crt0msg.obj
 0002:00000db0       ??_C@_02PIMC@?$AN?6?$AA@   00423db0     libc:crt0msg.obj
 0002:00000db4       ??_C@_0O@DELO@TLOSS?5error?$AN?6?$AA@ 00423db4     libc:crt0msg.obj
 0002:00000dc4       ??_C@_0N@OMLL@SING?5error?$AN?6?$AA@ 00423dc4     libc:crt0msg.obj
 0002:00000dd4       ??_C@_0P@OJAK@DOMAIN?5error?$AN?6?$AA@ 00423dd4     libc:crt0msg.obj
 0002:00000de4       ??_C@_0CF@EANP@R6028?$AN?6?9?5unable?5to?5initialize?5he@ 00423de4     libc:crt0msg.obj
 0002:00000e0c       ??_C@_0DF@ECGN@R6027?$AN?6?9?5not?5enough?5space?5for?5lo@ 00423e0c     libc:crt0msg.obj
 0002:00000e44       ??_C@_0DF@FKAC@R6026?$AN?6?9?5not?5enough?5space?5for?5st@ 00423e44     libc:crt0msg.obj
 0002:00000e7c       ??_C@_0CG@DPMN@R6025?$AN?6?9?5pure?5virtual?5function?5c@ 00423e7c     libc:crt0msg.obj
 0002:00000ea4       ??_C@_0DF@CKIP@R6024?$AN?6?9?5not?5enough?5space?5for?5_o@ 00423ea4     libc:crt0msg.obj
 0002:00000edc       ??_C@_0CJ@GGOE@R6019?$AN?6?9?5unable?5to?5open?5console?5@ 00423edc     libc:crt0msg.obj
 0002:00000f08       ??_C@_0CB@LBOB@R6018?$AN?6?9?5unexpected?5heap?5error?$AN?6@ 00423f08     libc:crt0msg.obj
 0002:00000f2c       ??_C@_0CN@FPEG@R6017?$AN?6?9?5unexpected?5multithread?5@ 00423f2c     libc:crt0msg.obj
 0002:00000f5c       ??_C@_0CM@OBIC@R6016?$AN?6?9?5not?5enough?5space?5for?5th@ 00423f5c     libc:crt0msg.obj
 0002:00000f88       ??_C@_0CB@HPAL@?$AN?6abnormal?5program?5termination?$AN?6@ 00423f88     libc:crt0msg.obj
 0002:00000fac       ??_C@_0CM@JOOB@R6009?$AN?6?9?5not?5enough?5space?5for?5en@ 00423fac     libc:crt0msg.obj
 0002:00000fd8       ??_C@_0CK@OIBL@R6008?$AN?6?9?5not?5enough?5space?5for?5ar@ 00423fd8     libc:crt0msg.obj
 0002:00001004       ??_C@_0CF@LKPB@R6002?$AN?6?9?5floating?5point?5not?5load@ 00424004     libc:crt0msg.obj
 0002:0000102c       ??_C@_0CF@JPDF@Microsoft?5Visual?5C?$CL?$CL?5Runtime?5Lib@ 0042402c     libc:crt0msg.obj
 0002:00001054       ??_C@_0BK@DEOK@Runtime?5Error?$CB?6?6Program?3?5?$AA@ 00424054     libc:crt0msg.obj
 0002:00001070       ??_C@_03NAME@?4?4?4?$AA@   00424070     libc:crt0msg.obj
 0002:00001074       ??_C@_0BH@NNCD@?$DMprogram?5name?5unknown?$DO?$AA@ 00424074     libc:crt0msg.obj
 0002:0000108c       ??_C@_0BD@NJFP@GetLastActivePopup?$AA@ 0042408c     libc:crtmbox.obj
 0002:000010a0       ??_C@_0BA@GILI@GetActiveWindow?$AA@ 004240a0     libc:crtmbox.obj
 0002:000010b0       ??_C@_0M@PKCK@MessageBoxA?$AA@ 004240b0     libc:crtmbox.obj
 0002:000010bc       ??_C@_0L@HKL@user32?4dll?$AA@ 004240bc     libc:crtmbox.obj
 0002:000010c8       ??_C@_01A@?$AA?$AA@        004240c8     libc:a_str.obj
 0002:000010cc       ??_C@_13A@?$AA?$AA?$AA?$AA@ 004240cc     libc:a_str.obj
 0002:000010f8       ??_C@_06PAPI@1?$CDQNAN?$AA@ 004240f8     libc:x10fout.obj
 0002:00001100       ??_C@_05BGNL@1?$CDINF?$AA@ 00424100     libc:x10fout.obj
 0002:00001108       ??_C@_05EDPF@1?$CDIND?$AA@ 00424108     libc:x10fout.obj
 0002:00001110       ??_C@_06LKFM@1?$CDSNAN?$AA@ 00424110     libc:x10fout.obj
 0002:00001118       __real@3f50624dd2f1a9fc    00424118     plib:ptimer.obj
 0002:00001120       ??_7PString@@6B@           00424120     plib:pstring.obj
 0002:0000112c       ??_7PExtendedHeap@@6B@     0042412c     plib:pstring.obj
 0002:00001138       ??_C@_03MAMC@?$CFlf?$AA@   00424138     plib:pstring.obj
 0002:0000113c       ??_C@_03MCHI@?$CFlx?$AA@   0042413c     plib:pstring.obj
 0002:00001140       ??_C@_0N@MJEF@?$CFs?5?$CI?$CFld?$CJ?3?6?$CFs?$AA@ 00424140     plib:perror.obj
 0002:00001150       ??_C@_0BI@GIAN@A?5Windows?5error?5occured?$AA@ 00424150     plib:perror.obj
 0002:00001168       ??_7PFileSearch@@6B@       00424168     plib:pfilesearch.obj
 0002:0000116c       ??_7?$GT_Sequence@PAVOUTMember@@@@6B@ 0042416c     lib_gt:gt_output.obj
 0002:00001170       ??_7OUTString@@6B@         00424170     lib_gt:gt_output.obj
 0002:00001178       ??_7OUTMember@@6B@         00424178     lib_gt:gt_output.obj
 0002:00001180       ??_C@_0DB@FJFB@Failed?5to?5send?5data?5to?5specified@ 00424180     lib_gt:gt_output.obj
 0002:000011b4       ??_7OUTDefColor@@6B@       004241b4     lib_gt:gt_output.obj
 0002:000011bc       ??_7OUTColor@@6B@          004241bc     lib_gt:gt_output.obj
 0002:000011c4       ??_C@_09OLBL@this?5file?$AA@ 004241c4     lib_gt:gt_output.obj
 0002:000011d0       ??_C@_0O@HFKC@gt_output?4cxx?$AA@ 004241d0     lib_gt:gt_output.obj
 0002:000011e0       ??_C@_05KKAP@zriff?$AA@    004241e0     lib_gt:gt_commandlineflags.obj
 0002:000011e8       ??_C@_05CCMI@zhwnd?$AA@    004241e8     lib_gt:gt_commandlineflags.obj
 0002:000011f0       ??_C@_03DKKM@ftp?$AA@      004241f0     lib_gt:gt_commandlineflags.obj
 0002:000011f4       ??_C@_03DIBG@ftn?$AA@      004241f4     lib_gt:gt_commandlineflags.obj
 0002:000011f8       ??_C@_03JDBH@fte?$AA@      004241f8     lib_gt:gt_commandlineflags.obj
 0002:000011fc       ??_C@_07BJIB@bufsize?$AA@  004241fc     lib_gt:gt_commandlineflags.obj
 0002:00001204       ??_C@_02IGOP@?5?1?$AA@     00424204     lib_gt:gt_commandlineflags.obj
 0002:00001208       ??_C@_02MMAH@rt?$AA@       00424208     lib_gt:gt_configfile.obj
 0002:0000120c       ??_C@_0L@FBPO@gt2000?4cfg?$AA@ 0042420c     lib_gt:gt_configfile.obj
 0002:00001218       ??_C@_0EB@KFFC@Software?2Microsoft?2Windows?2Curre@ 00424218     lib_gt:gt_configfile.obj
 0002:0000125c       ??_C@_07EELO@AppData?$AA@  0042425c     lib_gt:gt_configfile.obj
 0002:00001264       ??_7GT_ConfigFile@@6B@     00424264     lib_gt:gt_configfile.obj
 0002:00001268       ??_C@_0DJ@NCPD@Config?5file?5?$CIline?5?$CFd?$CJ?3?5Invalid?5c@ 00424268     lib_gt:gt_configfile.obj
 0002:000012a4       ??_C@_0CF@CMKE@Config?5file?5?$CIline?5?$CFd?$CJ?3?5Syntax?5er@ 004242a4     lib_gt:gt_configfile.obj
 0002:000012cc       ??_C@_0CM@GELC@Config?5file?5?$CIline?5?$CFd?$CJ?3?5Unknown?5s@ 004242cc     lib_gt:gt_configfile.obj
 0002:000012f8       ??_7GT_FileBuffer@@6B@     004242f8     lib_gt:gt_filebuffer.obj
 0002:000012fc       ??_C@_0BI@BHFI@Error?5opening?5?8?$CFs?8?3?5?$CFs?6?$AA@ 004242fc     lib_gt:gt_filebuffer.obj
 0002:00001314       ??_C@_0CO@PLNL@Failed?5to?5set?5the?5buffer?5of?5the?5@ 00424314     lib_gt:gt_filebuffer.obj
 0002:00001344       ??_C@_02JKAF@rb?$AA@       00424344     lib_gt:gt_filebuffer.obj
 0002:00001348       ??_C@_0BD@GOEG@?5?$FLoffline?5content?$FN?$AA@ 00424348     lib_gt:gt_filebuffer.obj
 0002:0000135c       ??_C@_0O@JNID@?5?$FLcompressed?$FN?$AA@ 0042435c     lib_gt:gt_filebuffer.obj
 0002:0000136c       ??_C@_0DJ@HOOH@?6Error?3?5Failed?5to?5retrieve?5attri@ 0042436c     lib_gt:gt_filebuffer.obj
 0002:000013a8       ??_C@_0DB@ODPA@?9?5next?5level?5at?5?$CFld?1?$CF08Xh?5for?5?$CFl@ 004243a8     lib_gt:gt_filebuffer.obj
 0002:000013dc       ??_C@_0BB@IIEM@?9?5?$CFs?5?$CI?$CFld?5bytes?$CJ?$AA@ 004243dc     lib_gt:gt_filebuffer.obj
 0002:000013f0       ??_C@_0BC@ODN@gt_filebuffer?4cxx?$AA@ 004243f0     lib_gt:gt_filebuffer.obj
 0002:00001404       ??_7GT_FileException@@6B@  00424404     lib_gt:gt_filebuffer.obj
 0002:00001408       ??_7PThrowable@@6B@        00424408     lib_gt:gt_filebuffer.obj
 0002:0000140c       ??_7GT_Exception@@6B@      0042440c     lib_gt:gt_filebuffer.obj
 0002:00001410       ??_7GT_BufferException@@6B@ 00424410     lib_gt:gt_filebuffer.obj
 0002:00001414       ??_C@_0BL@OOLK@GetConsoleScreenBufferInfo?$AA@ 00424414     lib_gt:gt_winconsole.obj
 0002:00001430       ??_C@_0BG@MBLK@stderr?5is?5redirected?6?$AA@ 00424430     lib_gt:gt_winconsole.obj
 0002:00001448       ??_C@_0BF@DINF@stdin?5is?5redirected?6?$AA@ 00424448     lib_gt:gt_winconsole.obj
 0002:00001460       ??_C@_0BG@ENJJ@stdout?5is?5redirected?6?$AA@ 00424460     lib_gt:gt_winconsole.obj
 0002:00001478       ??_7GT_WindowsConsole@@6B@ 00424478     lib_gt:gt_winconsole.obj
 0002:0000147c       ??_C@_0BL@DAEE@SetConsoleTextAttribute?5II?$AA@ 0042447c     lib_gt:gt_winconsole.obj
 0002:00001498       ??_C@_0BK@KLAE@SetConsoleTextAttribute?5I?$AA@ 00424498     lib_gt:gt_winconsole.obj
 0002:000014b8       ??_C@_0LF@PLM@?$CB?$CB?$CB?$CB?$CB?$CB?$CB?$CB?$CB?$CB?$CB?$CB?$CB?$CB?$CB?$CB?$CB?$CB?$CB?$CB?$CB?$CB?$CB?$CB?$CB?$CB?$CB?$CB?$CB?$CB?$CB?$CB@ 004244b8     lib_gt:gt_error.obj
 0002:00001570       ??_C@_0DF@DAIN@GetBuffer?5could?5not?5read?5the?5des@ 00424570     lib_gt:gt_exceptions.obj
 0002:000015a8       ??_C@_0CL@DOBH@GetBuffer?5was?5called?5with?5an?5inv@ 004245a8     lib_gt:gt_exceptions.obj
 0002:000015d4       ??_C@_0BP@BMMA@GetPascalString?5reads?5over?5EOF?$AA@ 004245d4     lib_gt:gt_exceptions.obj
 0002:000015f4       ??_C@_0BP@GBAP@GetCString?5buffer?5is?5too?5small?$AA@ 004245f4     lib_gt:gt_exceptions.obj
 0002:00001614       ??_C@_0CB@HDCA@SetActFilePos?5out?5of?5file?5bounds@ 00424614     lib_gt:gt_exceptions.obj
 0002:00001638       ??_C@_0CB@JOJE@DecActFilePos?5out?5of?5file?5bounds@ 00424638     lib_gt:gt_exceptions.obj
 0002:0000165c       ??_C@_0CB@MALH@IncActFilePos?5out?5of?5file?5bounds@ 0042465c     lib_gt:gt_exceptions.obj
 0002:00001680       ??_C@_04JPK@?$CB?$DO?6?6?$AA@ 00424680     lib_gt:gt_exceptions.obj
 0002:00001688       ??_C@_02NDAK@?5?$CI?$AA@   00424688     lib_gt:gt_exceptions.obj
 0002:0000168c       ??_C@_06BDOK@?5line?5?$AA@ 0042468c     lib_gt:gt_exceptions.obj
 0002:00001694       ??_C@_04EACC@?5in?5?$AA@   00424694     lib_gt:gt_exceptions.obj
 0002:0000169c       ??_C@_05BIF@?6?5?5?$DM?$CB?$AA@ 0042469c     lib_gt:gt_exceptions.obj
 0002:000016a4       ??_C@_0BD@DBDD@GT_BufferException?$AA@ 004246a4     lib_gt:gt_exceptions.obj
 0002:000016b8       ??_C@_0BB@OOAF@GT_FileException?$AA@ 004246b8     lib_gt:gt_exceptions.obj
 0002:000016cc       ??_C@_04BAIL@?4EXE?$AA@    004246cc     lib_exe:gt_exeanalyzer.obj
 0002:000016d4       ??_C@_04KDLI@?4COM?$AA@    004246d4     lib_exe:gt_exeanalyzer.obj
 0002:000016dc       ??_C@_0CL@BEBG@?5?5Header?5is?5now?5too?5large?4?5Skipp@ 004246dc     lib_exe:gt_exeanalyzer.obj
 0002:00001708       ??_C@_0DD@PGCG@?5?5?5?5Calculated?5new?5size?5of?5heade@ 00424708     lib_exe:gt_exeanalyzer.obj
 0002:0000173c       ??_C@_0BN@LJIJ@?5?5Size?5of?5header?5is?5too?5?$CFs?4?6?$AA@ 0042473c     lib_exe:gt_exeanalyzer.obj
 0002:0000175c       ??_C@_05PMKF@large?$AA@    0042475c     lib_exe:gt_exeanalyzer.obj
 0002:00001764       ??_C@_05IHCN@small?$AA@    00424764     lib_exe:gt_exeanalyzer.obj
 0002:0000176c       ??_C@_0CF@JHHA@?5?5Found?5COM2EXE?5converter?5from?5?$CC@ 0042476c     lib_exe:gt_exeanalyzer.obj
 0002:00001794       ??_C@_0DD@OPMH@?5?5Found?5packer?5?8?$CFs?8?$DL?5version?5in?5@ 00424794     lib_exe:gt_exeanalyzer.obj
 0002:000017c8       ??_C@_0BF@LKMC@?5?$FLextra?5compression?$FN?$AA@ 004247c8     lib_exe:gt_exeanalyzer.obj
 0002:000017e0       ??_C@_0BH@BOAD@?5?5Found?5packer?5?8?$CFs?$CFs?8?6?$AA@ 004247e0     lib_exe:gt_exeanalyzer.obj
 0002:000017f8       ??_C@_03NMFM@?$DP?$DP?$DP?$AA@ 004247f8     lib_exe:gt_exeanalyzer.obj
 0002:000017fc       ??_C@_0N@FBPJ@3?400?13?401?5PR?$AA@ 004247fc     lib_exe:gt_exeanalyzer.obj
 0002:0000180c       ??_C@_0BF@KHII@?5?5Found?5packer?5?8?$CFs?8?6?$AA@ 0042480c     lib_exe:gt_exeanalyzer.obj
 0002:00001824       ??_C@_08HPLM@3?405?a?5PR?$AA@ 00424824     lib_exe:gt_exeanalyzer.obj
 0002:00001830       ??_C@_07JLAG@3?404?5PR?$AA@ 00424830     lib_exe:gt_exeanalyzer.obj
 0002:00001838       ??_C@_07GBLI@3?403?5PR?$AA@ 00424838     lib_exe:gt_exeanalyzer.obj
 0002:00001840       ??_C@_07EEOK@3?402?5PR?$AA@ 00424840     lib_exe:gt_exeanalyzer.obj
 0002:00001848       ??_C@_08CKJC@3?405?a?5PP?$AA@ 00424848     lib_exe:gt_exeanalyzer.obj
 0002:00001854       ??_C@_08CKFJ@3?405?a?5PU?$AA@ 00424854     lib_exe:gt_exeanalyzer.obj
 0002:00001860       ??_C@_07CCMN@3?405?a?5P?$AA@ 00424860     lib_exe:gt_exeanalyzer.obj
 0002:00001868       ??_C@_07MOCI@3?404?5PP?$AA@ 00424868     lib_exe:gt_exeanalyzer.obj
 0002:00001870       ??_C@_07MOOD@3?404?5PU?$AA@ 00424870     lib_exe:gt_exeanalyzer.obj
 0002:00001878       ??_C@_06JINN@3?404?5P?$AA@ 00424878     lib_exe:gt_exeanalyzer.obj
 0002:00001880       ??_C@_07DEJG@3?403?5PP?$AA@ 00424880     lib_exe:gt_exeanalyzer.obj
 0002:00001888       ??_C@_07DEFN@3?403?5PU?$AA@ 00424888     lib_exe:gt_exeanalyzer.obj
 0002:00001890       ??_C@_06CGLM@3?403?5P?$AA@ 00424890     lib_exe:gt_exeanalyzer.obj
 0002:00001898       ??_C@_07BBAP@3?402?5PU?$AA@ 00424898     lib_exe:gt_exeanalyzer.obj
 0002:000018a0       ??_C@_06HEKK@3?402?5P?$AA@ 004248a0     lib_exe:gt_exeanalyzer.obj
 0002:000018a8       ??_C@_07HOPJ@3?401?5PU?$AA@ 004248a8     lib_exe:gt_exeanalyzer.obj
 0002:000018b0       ??_C@_06ICJB@3?401?5P?$AA@ 004248b0     lib_exe:gt_exeanalyzer.obj
 0002:000018b8       ??_C@_07FLKL@3?400?5PU?$AA@ 004248b8     lib_exe:gt_exeanalyzer.obj
 0002:000018c0       ??_C@_06NAIH@3?400?5P?$AA@ 004248c0     lib_exe:gt_exeanalyzer.obj
 0002:000018c8       ??_C@_0DJ@CKCN@?5?5Found?5packer?5?8SEA?9AXE?5?$CFs?8?6?5?5?5?5@ 004248c8     lib_exe:gt_exeanalyzer.obj
 0002:00001904       ??_C@_08EJOK@SEA?9AXE?5?$AA@ 00424904     lib_exe:gt_exeanalyzer.obj
 0002:00001910       ??_C@_0BN@JBPG@?5?5Found?5packer?5?8EXEPack?5?$CFs?8?6?$AA@ 00424910     lib_exe:gt_exeanalyzer.obj
 0002:00001930       ??_C@_04CMAE@ID_2?$AA@     00424930     lib_exe:gt_exeanalyzer.obj
 0002:00001938       ??_C@_04OPOO@4?403?$AA@    00424938     lib_exe:gt_exeanalyzer.obj
 0002:00001940       ??_C@_04BAFH@4?400?$AA@    00424940     lib_exe:gt_exeanalyzer.obj
 0002:00001948       ??_C@_0CD@PFNF@?5?5Found?5packer?5?8PKLite?5?$CFd?4?$CF02d?8?$CF@ 00424948     lib_exe:gt_exeanalyzer.obj
 0002:0000196c       ??_C@_0CC@GGMG@?5?5Found?5code?5but?5no?5ID?5of?5PKLite@ 0042496c     lib_exe:gt_exeanalyzer.obj
 0002:00001990       ??_C@_04JNNN@3?465?$AA@    00424990     lib_exe:gt_exeanalyzer.obj
 0002:00001998       ??_C@_0CC@ODKL@?5?5Found?5ID?5but?5no?5code?5of?5PKLite@ 00424998     lib_exe:gt_exeanalyzer.obj
 0002:000019bc       ??_C@_0BJ@CPEB@DOS?5COM?5executable?5file?6?$AA@ 004249bc     lib_exe:gt_exeanalyzer.obj
 0002:000019d8       ??_C@_0BK@OHII@?5?5Overlay?5size?3?5?$CFd?1?$CF08Xh?6?$AA@ 004249d8     lib_exe:gt_exeanalyzer.obj
 0002:000019f4       ??_C@_0BI@GNOK@?5?5Entrypoint?3?5?$CFd?1?$CF08Xh?6?$AA@ 004249f4     lib_exe:gt_exeanalyzer.obj
 0002:00001a0c       ??_C@_0CH@BPCI@?5?5?5?5File?5size?5in?5header?5is?5inval@ 00424a0c     lib_exe:gt_exeanalyzer.obj
 0002:00001a34       ??_C@_0CH@HPJE@?5?5File?5size?5in?5header?3?5?$CFd?1?$CF08Xh?5@ 00424a34     lib_exe:gt_exeanalyzer.obj
 0002:00001a5c       ??_C@_0CC@DOGK@?5?5Size?5of?5header?3?5?$CFd?1?$CF04Xh?5bytes@ 00424a5c     lib_exe:gt_exeanalyzer.obj
 0002:00001a80       ??_C@_0BN@MJOA@?5?5Found?5reverse?5?$CCZM?$CC?5header?6?$AA@ 00424a80     lib_exe:gt_exeanalyzer.obj
 0002:00001aa0       ??_C@_0BF@DPJE@Is?5a?5DOS?5executable?6?$AA@ 00424aa0     lib_exe:gt_exeanalyzer.obj
 0002:00001ab8       ??_C@_0CI@MMIK@Is?5a?5DOS?5executable?5at?5offset?5?$CFd@ 00424ab8     lib_exe:gt_exeanalyzer.obj
 0002:00001ae0       ??_C@_09PLOL@?9?9error?9?9?$AA@ 00424ae0     lib_exe:gt_compare.obj
 0002:00001aec       ??_C@_08NPHI@password?$AA@ 00424aec     lib_exe:gt_compare.obj
 0002:00001af8       ??_C@_08MNBO@extender?$AA@ 00424af8     lib_exe:gt_compare.obj
 0002:00001b04       ??_C@_07JJAP@sticker?$AA@  00424b04     lib_exe:gt_compare.obj
 0002:00001b0c       ??_C@_09ELOB@protector?$AA@ 00424b0c     lib_exe:gt_compare.obj
 0002:00001b18       ??_C@_09GPBF@converter?$AA@ 00424b18     lib_exe:gt_compare.obj
 0002:00001b24       ??_C@_06BJLO@linker?$AA@   00424b24     lib_exe:gt_compare.obj
 0002:00001b2c       ??_C@_08HHAG@compiler?$AA@ 00424b2c     lib_exe:gt_compare.obj
 0002:00001b38       ??_C@_09NFCL@encrypter?$AA@ 00424b38     lib_exe:gt_compare.obj
 0002:00001b44       ??_C@_06CDJN@packer?$AA@   00424b44     lib_exe:gt_compare.obj
 0002:00001b4c       ??_C@_04KKCM@code?$AA@     00424b4c     lib_exe:gt_compare.obj
 0002:00001b54       ??_C@_0BD@ODKJ@?5?5Found?5?$CFs?5?8?$CFs?$CFs?8?6?$AA@ 00424b54     lib_exe:gt_compare.obj
 0002:00001b68       ??_C@_02CPJP@?5?$DP?$AA@   00424b68     lib_exe:gt_compare.obj
 0002:00001b6c       ??_C@_0BN@NDJB@Unsupported?5macro?5char?5?8?$CFc?8?6?$AA@ 00424b6c     lib_exe:gt_macromanager.obj
 0002:00001bd0       ??_7GT_EXE_LE_ObjectTableHandler@@6B@ 00424bd0     lib_exe:gt_exe_le.obj
 0002:00001bd4       ??_C@_0DE@DAHL@?5?5?$CF2d?5?$CF08Xh?5?$CF08Xh?5?$CF08Xh?5?$CF02Xh?5?$CF0@ 00424bd4     lib_exe:gt_exe_le.obj
 0002:00001c08       ??_C@_0GJ@IFMO@?5?5Object?5table?5listing?3?6?5?5?5?$CD?5?5?5P@ 00424c08     lib_exe:gt_exe_le.obj
 0002:00001c74       ??_C@_0CE@GBKP@?5?5Bytes?5on?5last?5page?3?5?5?5?5?$CFld?1?$CF08@ 00424c74     lib_exe:gt_exe_le.obj
 0002:00001c98       ??_C@_0CE@BNAL@?5?5Memory?5page?5size?3?5?5?5?5?5?5?$CFld?1?$CF08@ 00424c98     lib_exe:gt_exe_le.obj
 0002:00001cbc       ??_C@_0CE@CFLF@?5?5Memory?5pages?5from?5top?3?5?$CFld?1?$CF08@ 00424cbc     lib_exe:gt_exe_le.obj
 0002:00001ce0       ??_C@_0CE@LMGK@?5?5Calculated?5EXE?5size?3?5?5?5?$CFld?1?$CF08@ 00424ce0     lib_exe:gt_exe_le.obj
 0002:00001d04       ??_C@_0BK@DOGI@?5?5?5?5SS?3ESP?5?$DN?5?$CF08Xh?3?$CF08Xh?6?$AA@ 00424d04     lib_exe:gt_exe_le.obj
 0002:00001d20       ??_C@_0BK@DBAG@?5?5?5?5CS?3EIP?5?$DN?5?$CF08Xh?3?$CF08Xh?6?$AA@ 00424d20     lib_exe:gt_exe_le.obj
 0002:00001d3c       ??_C@_0CP@GNFK@?5?5Entrypoint?3?5?$CFld?1?$CF08Xh?5?$CIbase?5ad@ 00424d3c     lib_exe:gt_exe_le.obj
 0002:00001d6c       ??_C@_0BM@BMKP@LE?5EXE?5at?5offset?5?$CFld?1?$CF08Xh?6?$AA@ 00424d6c     lib_exe:gt_exe_le.obj
 0002:00001d88       ??_7GT_EXE_PE_BasicAnalyzer@@6B@ 00424d88     lib_exe:gt_exe_pe.obj
 0002:00001d8c       ??_7GT_EXE_PE_ExportAnalyzer@@6B@ 00424d8c     lib_exe:gt_exe_pe.obj
 0002:00001d90       ??_C@_0CL@POLP@Error?3?5the?5export?5table?5offset?5i@ 00424d90     lib_exe:gt_exe_pe.obj
 0002:00001dbc       ??_C@_0BF@NKNO@?5?5?5?5?$CF04i?5?5?$CF08Xh?5?5?$CFs?6?$AA@ 00424dbc     lib_exe:gt_exe_pe.obj
 0002:00001dd4       ??_C@_0BM@LNAH@?6?5?5Ordinal?5Offset?5?5?5?5?5Name?6?$AA@ 00424dd4     lib_exe:gt_exe_pe.obj
 0002:00001df0       ??_C@_0CO@OAFE@Error?3?5failed?5to?5read?5the?5names?5@ 00424df0     lib_exe:gt_exe_pe.obj
 0002:00001e20       ??_C@_0CI@BMN@Error?3?5failed?5to?5read?5the?5offset@ 00424e20     lib_exe:gt_exe_pe.obj
 0002:00001e48       ??_C@_0CK@OAFN@Error?3?5failed?5to?5read?5the?5ordina@ 00424e48     lib_exe:gt_exe_pe.obj
 0002:00001e78       ??_C@_0FB@MAHH@Export?5table?5of?5DLL?5?8?$CFs?8?3?6?5?5?$CFld?5@ 00424e78     lib_exe:gt_exe_pe.obj
 0002:00001ecc       ??_C@_0CP@CCPC@Error?3?5failed?5to?5read?5the?5export@ 00424ecc     lib_exe:gt_exe_pe.obj
 0002:00001efc       ??_7GT_EXE_PE_ImportAnalyzer@@6B@ 00424efc     lib_exe:gt_exe_pe.obj
 0002:00001f00       ??_C@_08LKCE@?5?5?5?5?5?$CFs?6?$AA@ 00424f00     lib_exe:gt_exe_pe.obj
 0002:00001f0c       ??_C@_0BD@JDCL@?5?5?5?5?5Ordinal?5?$CD?$CFld?6?$AA@ 00424f0c     lib_exe:gt_exe_pe.obj
 0002:00001f20       ??_C@_0M@GHNF@?5?5?$CFd?4?5?$CFs?$CFs?6?$AA@ 00424f20     lib_exe:gt_exe_pe.obj
 0002:00001f2c       ??_C@_0O@HDPP@?5?$CIforwarded?$CB?$CJ?$AA@ 00424f2c     lib_exe:gt_exe_pe.obj
 0002:00001f3c       ??_C@_0DB@NLCJ@Functions?5from?5the?5following?5DLL@ 00424f3c     lib_exe:gt_exe_pe.obj
 0002:00001f70       ??_7GT_EXE_PE_ResourceAnalyzer@@6B@ 00424f70     lib_exe:gt_exe_pe.obj
 0002:00001f74       ??_C@_0CH@CGJG@32?5bit?5OS?12?5with?5presentation?5ma@ 00424f74     lib_exe:gt_exe_pe.obj
 0002:00001f9c       ??_C@_0BB@JOPO@Windows?5NT?12000?6?$AA@ 00424f9c     lib_exe:gt_exe_pe.obj
 0002:00001fb0       ??_C@_0CN@OJDE@32?5bit?5Windows?5running?5with?5Wind@ 00424fb0     lib_exe:gt_exe_pe.obj
 0002:00001fe0       ??_C@_0BD@OOLD@Invalid?5?$CI0x?$CF08Xh?$CJ?6?$AA@ 00424fe0     lib_exe:gt_exe_pe.obj
 0002:00001ff4       ??_C@_0N@DABM@32?5bit?5OS?12?6?$AA@ 00424ff4     lib_exe:gt_exe_pe.obj
 0002:00002004       ??_C@_0CH@MJIL@16?5bit?5OS?12?5with?5presentation?5ma@ 00425004     lib_exe:gt_exe_pe.obj
 0002:0000202c       ??_C@_0N@EBPG@16?5bit?5OS?12?6?$AA@ 0042502c     lib_exe:gt_exe_pe.obj
 0002:0000203c       ??_C@_0CE@NDAG@16?5bit?5Windows?5running?5with?5MS?9D@ 0042503c     lib_exe:gt_exe_pe.obj
 0002:00002060       ??_C@_0CE@EGKF@32?5bit?5Windows?5running?5with?5MS?9D@ 00425060     lib_exe:gt_exe_pe.obj
 0002:00002084       ??_C@_07HMAL@MS?9DOS?6?$AA@ 00425084     lib_exe:gt_exe_pe.obj
 0002:0000208c       ??_C@_0BA@NIK@32?5bit?5Windows?6?$AA@ 0042508c     lib_exe:gt_exe_pe.obj
 0002:0000209c       ??_C@_0CC@EOPN@OS?12?5presentation?5manager?532?5bit@ 0042509c     lib_exe:gt_exe_pe.obj
 0002:000020c0       ??_C@_0CC@EFFG@OS?12?5presentation?5manager?516?5bit@ 004250c0     lib_exe:gt_exe_pe.obj
 0002:000020e4       ??_C@_0BA@JIP@16?5bit?5Windows?6?$AA@ 004250e4     lib_exe:gt_exe_pe.obj
 0002:000020f4       ??_C@_08MMGE@Unknown?6?$AA@ 004250f4     lib_exe:gt_exe_pe.obj
 0002:00002100       ??_C@_0BD@DCNA@?5?5Target?5OS?3?5?5?5?5?5?5?$AA@ 00425100     lib_exe:gt_exe_pe.obj
 0002:00002114       ??_C@_0CF@OCFK@?5?5Productversion?3?5?$CFd?4?$CF02d?4?$CF02d?5?$CI@ 00425114     lib_exe:gt_exe_pe.obj
 0002:0000213c       ??_C@_0CF@DCOH@?5?5Fileversion?3?5?5?5?5?$CFd?4?$CF02d?4?$CF02d?5?$CI@ 0042513c     lib_exe:gt_exe_pe.obj
 0002:00002164       ??_C@_0BH@FDFI@VersionInfo?5resource?3?6?$AA@ 00425164     lib_exe:gt_exe_pe.obj
 0002:0000217c       ??_C@_0CI@NMKG@Error?5reading?5resource?5directory@ 0042517c     lib_exe:gt_exe_pe.obj
 0002:000021a4       ??_C@_0M@FIGB@?5?5?5?5?5?5?8?$CFs?8?6?$AA@ 004251a4     lib_exe:gt_exe_pe.obj
 0002:000021b0       ??_C@_0EA@LFI@?5?5?5?5?5ID?3?50x?$CF08Xh?5RVA?3?50x?$CF08Xh?$DL?5O@ 004251b0     lib_exe:gt_exe_pe.obj
 0002:000021f0       ??_C@_0CD@OIJK@Error?5reading?5resource?5data?5entr@ 004251f0     lib_exe:gt_exe_pe.obj
 0002:00002218       ??_C@_0EB@NNPM@Warning?3?5only?53?5recursion?5levels@ 00425218     lib_exe:gt_exe_pe.obj
 0002:0000225c       ??_C@_07KKPM@?5?5?$CFld?3?6?$AA@ 0042525c     lib_exe:gt_exe_pe.obj
 0002:00002264       ??_C@_06JMLE@?5?5?$CFs?3?6?$AA@ 00425264     lib_exe:gt_exe_pe.obj
 0002:00002270       ??_C@_0EL@KBEE@?5?5Total?5resource?5size?5?$CIwithout?5t@ 00425270     lib_exe:gt_exe_pe.obj
 0002:000022bc       ??_C@_0CI@BHNP@Resources?5at?5offset?5?$CF08Xh?5?$CIRVA?5?$CF@ 004252bc     lib_exe:gt_exe_pe.obj
 0002:000022e4       ??_C@_0DL@KKKP@Warning?3?5more?5then?5?$CFd?5data?5direc@ 004252e4     lib_exe:gt_exe_pe.obj
 0002:00002320       ??_7GT_EXE_PE_DataDirectoryHandler@@6B@ 00425320     lib_exe:gt_exe_pe.obj
 0002:00002324       ??_C@_0CD@MMBF@?$CF23s?5?9?5offset?3?5?$CF08Xh?5?9?5RVA?3?5?$CF08X@ 00425324     lib_exe:gt_exe_pe.obj
 0002:00002348       ??_C@_0ED@NMMI@Listing?5of?5all?5used?5data?5directo@ 00425348     lib_exe:gt_exe_pe.obj
 0002:0000238c       ??_C@_0CP@BFLA@Seems?5like?5?$CFld?5bytes?5of?5the?5file@ 0042538c     lib_exe:gt_exe_pe.obj
 0002:000023bc       ??_C@_08JJIF@_winzip_?$AA@ 004253bc     lib_exe:gt_exe_pe.obj
 0002:000023c8       ??_C@_0CC@BPCA@?5?5?$CFs?5?5?$CF08Xh?5?5?$CF08Xh?5?5?$CF08Xh?5?5?$CF08Xh@ 004253c8     lib_exe:gt_exe_pe.obj
 0002:000023ec       ??_C@_0DH@OLB@?5?5Name?5?5?5?5?5?5Virt?5size?5?5?5?5?5RVA?5?5?5@ 004253ec     lib_exe:gt_exe_pe.obj
 0002:00002424       ??_C@_0DO@JGJA@Sections?5according?5to?5section?5ta@ 00425424     lib_exe:gt_exe_pe.obj
 0002:00002468       ??_C@_0FG@PEPK@?5?5Stack?5reserve?3?5?$CFld?6?5?5Stack?5com@ 00425468     lib_exe:gt_exe_pe.obj
 0002:000024c0       ??_C@_0BA@GKBF@?5?5?5?5Big?5endian?6?$AA@ 004254c0     lib_exe:gt_exe_pe.obj
 0002:000024d0       ??_C@_0CN@JKIP@?5?5?5?5File?5should?5be?5run?5only?5on?5a@ 004254d0     lib_exe:gt_exe_pe.obj
 0002:00002500       ??_C@_0BJ@GOGP@?5?5?5?5Library?5image?5?$CIDLL?$CJ?6?$AA@ 00425500     lib_exe:gt_exe_pe.obj
 0002:0000251c       ??_C@_0BB@HPMA@?5?5?5?5System?5File?6?$AA@ 0042551c     lib_exe:gt_exe_pe.obj
 0002:00002530       ??_C@_0EC@HCKD@?5?5?5?5If?5image?5is?5on?5removeable?5me@ 00425530     lib_exe:gt_exe_pe.obj
 0002:00002574       ??_C@_0DE@HJFJ@?5?5?5?5Debugging?5info?5stripped?5from@ 00425574     lib_exe:gt_exe_pe.obj
 0002:000025a8       ??_C@_0CP@OKAO@?5?5?5?5Machine?5based?5on?532?9bit?9word@ 004255a8     lib_exe:gt_exe_pe.obj
 0002:000025d8       ??_C@_0BD@NFOD@?5?5?5?5Little?5endian?6?$AA@ 004255d8     lib_exe:gt_exe_pe.obj
 0002:000025ec       ??_C@_0CM@KLPM@?5?5?5?5Application?5can?5handle?5?$DO?52GB@ 004255ec     lib_exe:gt_exe_pe.obj
 0002:00002618       ??_C@_0CD@JIFJ@?5?5?5?5Aggressively?5trim?5working?5se@ 00425618     lib_exe:gt_exe_pe.obj
 0002:0000263c       ??_C@_0CG@HKPB@?5?5?5?5Local?5symbols?5stripped?5from?5@ 0042563c     lib_exe:gt_exe_pe.obj
 0002:00002664       ??_C@_0CF@GGLC@?5?5?5?5Line?5numbers?5stripped?5from?5f@ 00425664     lib_exe:gt_exe_pe.obj
 0002:0000268c       ??_C@_0BI@GDCG@?5?5?5?5File?5is?5executable?6?$AA@ 0042568c     lib_exe:gt_exe_pe.obj
 0002:000026a4       ??_C@_0CI@JDDI@?5?5?5?5Relocation?5info?5stripped?5fro@ 004256a4     lib_exe:gt_exe_pe.obj
 0002:000026cc       ??_C@_09LGKO@?5?5Flags?3?6?$AA@ 004256cc     lib_exe:gt_exe_pe.obj
 0002:000026d8       ??_C@_0BL@NHIM@?5?5Linker?5version?3?5?$CFd?4?$CF02i?6?$AA@ 004256d8     lib_exe:gt_exe_pe.obj
 0002:000026f4       ??_C@_0O@JHL@gt_exe_pe?4cxx?$AA@ 004256f4     lib_exe:gt_exe_pe.obj
 0002:00002704       ??_C@_0BB@ELHP@?5?5Subsystem?3?5?$CFs?6?$AA@ 00425704     lib_exe:gt_exe_pe.obj
 0002:00002718       ??_C@_0BM@EDME@EFI?5driver?1runtime?5services?$AA@ 00425718     lib_exe:gt_exe_pe.obj
 0002:00002734       ??_C@_0BJ@LIDB@EFI?5driver?1boot?5services?$AA@ 00425734     lib_exe:gt_exe_pe.obj
 0002:00002750       ??_C@_0BA@NLFB@EFI?5application?$AA@ 00425750     lib_exe:gt_exe_pe.obj
 0002:00002760       ??_C@_0L@NODJ@Windows?5CE?$AA@ 00425760     lib_exe:gt_exe_pe.obj
 0002:0000276c       ??_C@_0L@GLDH@Posix?5text?$AA@ 0042576c     lib_exe:gt_exe_pe.obj
 0002:00002778       ??_C@_07MJOI@Console?$AA@  00425778     lib_exe:gt_exe_pe.obj
 0002:00002780       ??_C@_0M@MC@Windows?5GUI?$AA@ 00425780     lib_exe:gt_exe_pe.obj
 0002:0000278c       ??_C@_0CA@BNPE@device?5driver?1native?5Windows?5NT?$AA@ 0042578c     lib_exe:gt_exe_pe.obj
 0002:000027ac       ??_C@_0BN@BPBG@?5?5Required?5OS?3?5?$CFd?4?$CF02i?5?9?5?$CFs?6?$AA@ 004257ac     lib_exe:gt_exe_pe.obj
 0002:000027cc       ??_C@_0P@MGKA@Win?598?5or?5NT?55?$AA@ 004257cc     lib_exe:gt_exe_pe.obj
 0002:000027dc       ??_C@_0P@LFBO@Win?595?5or?5NT?54?$AA@ 004257dc     lib_exe:gt_exe_pe.obj
 0002:000027ec       ??_C@_0M@HMGC@Win?5NT?53?451?$AA@ 004257ec     lib_exe:gt_exe_pe.obj
 0002:000027f8       ??_C@_0BF@MPED@any?5version?5of?5Win32?$AA@ 004257f8     lib_exe:gt_exe_pe.obj
 0002:00002810       ??_C@_0BH@EGDC@version?50?5of?5Win32?5?$DL?9?$CJ?$AA@ 00425810     lib_exe:gt_exe_pe.obj
 0002:00002828       ??_C@_0BJ@JAJN@?5?5Required?5CPU?5type?3?5?$CFs?6?$AA@ 00425828     lib_exe:gt_exe_pe.obj
 0002:00002844       ??_C@_07CAMD@unknown?$AA@  00425844     lib_exe:gt_exe_pe.obj
 0002:0000284c       ??_C@_0BA@GIEI@MIPS16?5with?5FPU?$AA@ 0042584c     lib_exe:gt_exe_pe.obj
 0002:0000285c       ??_C@_0O@OICL@MIPS?5with?5FPU?$AA@ 0042585c     lib_exe:gt_exe_pe.obj
 0002:0000286c       ??_C@_0BF@PFOC@DEC?5Alpha?5AXP?564?9bit?$AA@ 0042586c     lib_exe:gt_exe_pe.obj
 0002:00002884       ??_C@_0BG@EEMH@Motorola?568000?5series?$AA@ 00425884     lib_exe:gt_exe_pe.obj
 0002:0000289c       ??_C@_06FAJP@MIPS16?$AA@   0042589c     lib_exe:gt_exe_pe.obj
 0002:000028a4       ??_C@_0L@DMJD@Intel?5IA64?$AA@ 004258a4     lib_exe:gt_exe_pe.obj
 0002:000028b0       ??_C@_0BL@NDEN@IBM?5PowerPC?0?5little?5endian?$AA@ 004258b0     lib_exe:gt_exe_pe.obj
 0002:000028cc       ??_C@_0M@NBGL@Hitachi?5SH4?$AA@ 004258cc     lib_exe:gt_exe_pe.obj
 0002:000028d8       ??_C@_0M@IEIO@Hitachi?5SH3?$AA@ 004258d8     lib_exe:gt_exe_pe.obj
 0002:000028e4       ??_C@_0O@KDLK@DEC?5Alpha?5AXP?$AA@ 004258e4     lib_exe:gt_exe_pe.obj
 0002:000028f4       ??_C@_0O@MFCF@MIPS?5?$CIR10000?$CJ?$AA@ 004258f4     lib_exe:gt_exe_pe.obj
 0002:00002904       ??_C@_0BG@PPGO@MIPS?5Mark?5III?5?$CIR4000?$CJ?$AA@ 00425904     lib_exe:gt_exe_pe.obj
 0002:0000291c       ??_C@_0BF@JNBP@MIPS?5Mark?5II?5?$CIR6000?$CJ?$AA@ 0042591c     lib_exe:gt_exe_pe.obj
 0002:00002934       ??_C@_0BL@NODG@MIPS?5Mark?5I?5?$CIR2000?0?5R3000?$CJ?$AA@ 00425934     lib_exe:gt_exe_pe.obj
 0002:00002950       ??_C@_07FOGL@Pentium?$AA@  00425950     lib_exe:gt_exe_pe.obj
 0002:00002958       ??_C@_05NNBO@80486?$AA@    00425958     lib_exe:gt_exe_pe.obj
 0002:00002960       ??_C@_05GDHP@80386?$AA@    00425960     lib_exe:gt_exe_pe.obj
 0002:00002968       ??_C@_0BA@GKK@CPU?5independent?$AA@ 00425968     lib_exe:gt_exe_pe.obj
 0002:00002978       ??_C@_0BF@BGOO@?5?5Image?5base?3?5?$CF08Xh?6?$AA@ 00425978     lib_exe:gt_exe_pe.obj
 0002:00002990       ??_C@_0CA@BCGL@?5?5Calculated?5overlay?5size?3?5?$CFld?6?$AA@ 00425990     lib_exe:gt_exe_pe.obj
 0002:000029b0       ??_C@_0BP@NFKA@?5?5Calculated?5PE?5EXE?5size?3?5?$CFld?6?$AA@ 004259b0     lib_exe:gt_exe_pe.obj
 0002:000029d0       ??_C@_0DA@PEHP@?5?5?5?5may?5be?5resource?5DLL?5or?5somet@ 004259d0     lib_exe:gt_exe_pe.obj
 0002:00002a00       ??_C@_0CG@MIJJ@?5?5Entrypoint?3?5?$CFld?1?$CF08Xh?5?$CIRVA?3?5?$CF0@ 00425a00     lib_exe:gt_exe_pe.obj
 0002:00002a28       ??_C@_0BL@LIKA@PE?5?$CFs?5at?5offset?5?$CFld?1?$CF08Xh?6?$AA@ 00425a28     lib_exe:gt_exe_pe.obj
 0002:00002a44       ??_C@_03EPLF@EXE?$AA@      00425a44     lib_exe:gt_exe_pe.obj
 0002:00002a48       ??_C@_03NDIP@DLL?$AA@      00425a48     lib_exe:gt_exe_pe.obj
 0002:00002a4c       ??_C@_0CD@DPCM@Error?3?5failed?5to?5read?5data?5at?5?$CFl@ 00425a4c     lib_exe:gt_exe_pe.obj
 0002:00002a70       ??_C@_0CJ@KF@?5?5Not?5processed?5with?5any?5known?5p@ 00425a70     lib_exe:gt_exe_pe.obj
 0002:00002a9c       ??_C@_09KIFP@unknown?6?6?$AA@ 00425a9c     lib_exe:gt_exe_pe.obj
 0002:00002aa8       ??_C@_0BF@PDGG@Borland?5Delphi?53?14?6?6?$AA@ 00425aa8     lib_exe:gt_exe_pe.obj
 0002:00002ac0       ??_C@_04MFAJ@CODE?$AA@     00425ac0     lib_exe:gt_exe_pe.obj
 0002:00002ac8       ??_C@_05OCG@?5?$CI?$DP?$DP?$CJ?$AA@ 00425ac8     lib_exe:gt_exe_pe.obj
 0002:00002ad0       ??_C@_03GDKB@6?40?$AA@     00425ad0     lib_exe:gt_exe_pe.obj
 0002:00002ad4       ??_C@_07PBIL@5?40?5SP3?$AA@ 00425ad4     lib_exe:gt_exe_pe.obj
 0002:00002adc       ??_C@_03JFJK@5?40?$AA@     00425adc     lib_exe:gt_exe_pe.obj
 0002:00002ae0       ??_C@_03JCKC@4?42?$AA@     00425ae0     lib_exe:gt_exe_pe.obj
 0002:00002ae4       ??_C@_03NDHK@3?41?$AA@     00425ae4     lib_exe:gt_exe_pe.obj
 0002:00002ae8       ??_C@_0P@IIKA@MS?5Visual?5C?$CL?$CL?5?$AA@ 00425ae8     lib_exe:gt_exe_pe.obj
 0002:00002af8       ??_C@_05HCME@?4text?$AA@   00425af8     lib_exe:gt_exe_pe.obj
 0002:00002b00       ??_C@_0BL@OMJ@?5?5Seems?5to?5be?5compiled?5by?5?$AA@ 00425b00     lib_exe:gt_exe_pe.obj
 0002:00002b1c       ??_C@_0BB@LKAF@Processed?5with?3?6?$AA@ 00425b1c     lib_exe:gt_exe_pe.obj
 0002:00002b30       ??_C@_0CC@NHDN@Entrypoint?5is?5out?5of?5file?5bounds@ 00425b30     lib_exe:gt_exe_pe.obj
 0002:00002b98       ??_C@_0CK@KJDK@?5?5?5?5?$CF2i?5?5?$CFs?5?5?$CF08Xh?5?9?5?$CF08Xh?5?5?$CF04X@ 00425b98     lib_exe:gt_exe_ne.obj
 0002:00002bc4       ??_C@_0DD@GLOP@?5?5?5?5Nr?5?5Type?5?5StartPos?5?5?5?5EndPos@ 00425bc4     lib_exe:gt_exe_ne.obj
 0002:00002bf8       ??_C@_0BK@ILPE@?5?5Segment?5table?5listing?3?6?$AA@ 00425bf8     lib_exe:gt_exe_ne.obj
 0002:00002c14       ??_C@_0BI@ILPK@?5?5?5?580x87?5instructions?6?$AA@ 00425c14     lib_exe:gt_exe_ne.obj
 0002:00002c2c       ??_C@_0BI@PMEG@?5?5?5?580386?5instructions?6?$AA@ 00425c2c     lib_exe:gt_exe_ne.obj
 0002:00002c44       ??_C@_0BI@IGH@?5?5?5?580286?5instructions?6?$AA@ 00425c44     lib_exe:gt_exe_ne.obj
 0002:00002c5c       ??_C@_0BH@CFCH@?5?5?5?58086?5instructions?6?$AA@ 00425c5c     lib_exe:gt_exe_ne.obj
 0002:00002c74       ??_C@_0BJ@IGLN@?5?5?5?5Protected?5mode?5only?6?$AA@ 00425c74     lib_exe:gt_exe_ne.obj
 0002:00002c90       ??_C@_0CD@IKNC@?5?5?5?5File?5is?5a?5Windows?5applicatio@ 00425c90     lib_exe:gt_exe_ne.obj
 0002:00002cb4       ??_C@_0CK@LBK@?5?5?5?5File?5is?5a?5dynamic?9link?5libra@ 00425cb4     lib_exe:gt_exe_ne.obj
 0002:00002ce0       ??_C@_0BC@MPLL@?5?5Program?5flags?3?6?$AA@ 00425ce0     lib_exe:gt_exe_ne.obj
 0002:00002cf4       ??_C@_0BL@CONI@?5?5Linker?5version?3?5?$CFd?4?$CF02d?6?$AA@ 00425cf4     lib_exe:gt_exe_ne.obj
 0002:00002d10       ??_C@_0O@DKJH@unknown?5?$CI?$CFd?$CJ?6?$AA@ 00425d10     lib_exe:gt_exe_ne.obj
 0002:00002d20       ??_C@_0CD@LFEC@Phar?5Lap?5DOS?5Extender?5286?5Window@ 00425d20     lib_exe:gt_exe_ne.obj
 0002:00002d44       ??_C@_0CA@MJHE@Phar?5Lap?5DOS?5Extender?5286?5OS?12?6?$AA@ 00425d44     lib_exe:gt_exe_ne.obj
 0002:00002d64       ??_C@_0CK@BLNP@BOSS?5?$CIBorland?5Operating?5System?5S@ 00425d64     lib_exe:gt_exe_ne.obj
 0002:00002d90       ??_C@_0N@BLOB@Windows?5386?6?$AA@ 00425d90     lib_exe:gt_exe_ne.obj
 0002:00002da0       ??_C@_0BF@MJLC@European?5MS?9DOS?54?4x?6?$AA@ 00425da0     lib_exe:gt_exe_ne.obj
 0002:00002db8       ??_C@_0BB@CLA@Windows?5?$CFd?4?$CF02i?6?$AA@ 00425db8     lib_exe:gt_exe_ne.obj
 0002:00002dcc       ??_C@_0BI@KLHP@?5?5?5?5Has?5fast?9load?5area?6?$AA@ 00425dcc     lib_exe:gt_exe_ne.obj
 0002:00002de4       ??_C@_0BM@HGPN@?5?5?5?52?4x?5proportional?5fonts?6?$AA@ 00425de4     lib_exe:gt_exe_ne.obj
 0002:00002e00       ??_C@_0BI@KPJD@?5?5?5?52?4x?5protected?5mode?6?$AA@ 00425e00     lib_exe:gt_exe_ne.obj
 0002:00002e18       ??_C@_0BL@GGFF@?5?5?5?5Long?5filename?5support?6?$AA@ 00425e18     lib_exe:gt_exe_ne.obj
 0002:00002e34       ??_C@_05PJOP@OS?12?6?$AA@  00425e34     lib_exe:gt_exe_ne.obj
 0002:00002e3c       ??_C@_08MJLG@unknown?6?$AA@ 00425e3c     lib_exe:gt_exe_ne.obj
 0002:00002e48       ??_C@_0BM@MMPO@?5?5Target?5operating?5system?3?5?$AA@ 00425e48     lib_exe:gt_exe_ne.obj
 0002:00002e64       ??_C@_0DA@MDCP@?5?5Absolute?5entry?5point?5table?5off@ 00425e64     lib_exe:gt_exe_ne.obj
 0002:00002e94       ??_C@_0DD@NCK@?5?5Absolute?5imported?5names?5table?5@ 00425e94     lib_exe:gt_exe_ne.obj
 0002:00002ec8       ??_C@_0DG@BOJJ@?5?5Absolute?5module?5references?5tab@ 00425ec8     lib_exe:gt_exe_ne.obj
 0002:00002f00       ??_C@_0DD@DKFO@?5?5Absolute?5resident?5names?5table?5@ 00425f00     lib_exe:gt_exe_ne.obj
 0002:00002f34       ??_C@_0CN@LHPE@?5?5Absolute?5resource?5table?5offset@ 00425f34     lib_exe:gt_exe_ne.obj
 0002:00002f64       ??_C@_0CM@IAKF@?5?5Absolute?5segment?5table?5offset?3@ 00425f64     lib_exe:gt_exe_ne.obj
 0002:00002f90       ??_C@_0DA@PBMC@?5?5File?5has?5a?5selfloader?5?$CImay?5be?5@ 00425f90     lib_exe:gt_exe_ne.obj
 0002:00002fc0       ??_C@_0CD@OHHI@?5?5Calculated?5file?5size?3?5?$CFld?1?$CF08X@ 00425fc0     lib_exe:gt_exe_ne.obj
 0002:00002fe4       ??_C@_0CD@KHAG@?5?5Error?3?5the?5CS?5segment?5is?5empty@ 00425fe4     lib_exe:gt_exe_ne.obj
 0002:00003008       ??_C@_0DB@CFFH@?5?5Error?3?5CS?5is?5greater?5than?5the?5@ 00426008     lib_exe:gt_exe_ne.obj
 0002:0000303c       ??_C@_0BK@GENC@?5?5File?5has?5no?5entrypoint?6?$AA@ 0042603c     lib_exe:gt_exe_ne.obj
 0002:00003058       ??_C@_0CE@EMMB@?5?5Entrypoint?5is?5out?5of?5file?5boun@ 00426058     lib_exe:gt_exe_ne.obj
 0002:0000307c       ??_C@_0BJ@KOEM@?5?5Entrypoint?3?5?$CFld?1?$CF08Xh?6?$AA@ 0042607c     lib_exe:gt_exe_ne.obj
 0002:00003098       ??_C@_09KDKB@?5?5?$DO?5?$CFs?5?$DM?6?$AA@ 00426098     lib_exe:gt_exe_ne.obj
 0002:000030a4       ??_C@_0BM@BJNF@NE?5EXE?5at?5offset?5?$CFld?1?$CF08Xh?6?$AA@ 004260a4     lib_exe:gt_exe_ne.obj
 0002:000030c0       ??_C@_0BN@LMAI@Section?5table?5was?5not?5found?6?$AA@ 004260c0     lib_exe:gt_exe_pe_sectiontablehdl.obj
 0002:000030e0       ??_C@_0CB@GPFJ@Failed?5to?5read?5PE?5section?5table?6@ 004260e0     lib_exe:gt_exe_pe_sectiontablehdl.obj
 0002:00003104       ??_7GT_EXE_PE_SectionTableAnalyzer@@6B@ 00426104     lib_exe:gt_exe_pe_sectiontablehdl.obj
 0002:00003108       ??_C@_08GKAE@Reserved?$AA@ 00426108     lib_exe:gt_exe_types.obj
 0002:00003114       ??_C@_0BE@GLMI@COM?$CL?5Runtime?5Header?$AA@ 00426114     lib_exe:gt_exe_types.obj
 0002:00003128       ??_C@_0BI@DBIF@Delay?5Import?5Descriptor?$AA@ 00426128     lib_exe:gt_exe_types.obj
 0002:00003140       ??_C@_0BF@COCJ@Import?5Address?5Table?$AA@ 00426140     lib_exe:gt_exe_types.obj
 0002:00003158       ??_C@_0BD@KFDL@Bound?5Import?5Table?$AA@ 00426158     lib_exe:gt_exe_types.obj
 0002:0000316c       ??_C@_0BC@PAHO@Load?5Config?5Table?$AA@ 0042616c     lib_exe:gt_exe_types.obj
 0002:00003180       ??_C@_09KPL@TLS?5Table?$AA@ 00426180     lib_exe:gt_exe_types.obj
 0002:0000318c       ??_C@_0L@INGL@Global?5Ptr?$AA@ 0042618c     lib_exe:gt_exe_types.obj
 0002:00003198       ??_C@_0N@BFCG@Architecture?$AA@ 00426198     lib_exe:gt_exe_types.obj
 0002:000031a8       ??_C@_0L@JHPA@Debug?5data?$AA@ 004261a8     lib_exe:gt_exe_types.obj
 0002:000031b4       ??_C@_0BG@LNEG@Base?5relocation?5Table?$AA@ 004261b4     lib_exe:gt_exe_types.obj
 0002:000031cc       ??_C@_0BC@FGLM@Certificate?5Table?$AA@ 004261cc     lib_exe:gt_exe_types.obj
 0002:000031e0       ??_C@_0BA@MIGL@Exception?5Table?$AA@ 004261e0     lib_exe:gt_exe_types.obj
 0002:000031f0       ??_C@_0BA@NNKG@Ressource?5Table?$AA@ 004261f0     lib_exe:gt_exe_types.obj
 0002:00003200       ??_C@_0N@DEDF@Import?5Table?$AA@ 00426200     lib_exe:gt_exe_types.obj
 0002:00003210       ??_C@_0N@EIH@Export?5Table?$AA@ 00426210     lib_exe:gt_exe_types.obj
 0002:00003220       ??_C@_04JKFK@HTML?$AA@     00426220     lib_exe:gt_exe_types.obj
 0002:00003228       ??_C@_0O@BHA@Animated?5Icon?$AA@ 00426228     lib_exe:gt_exe_types.obj
 0002:00003238       ??_C@_0BA@POPF@Animated?5Cursor?$AA@ 00426238     lib_exe:gt_exe_types.obj
 0002:00003248       ??_C@_03DCHD@VXD?$AA@      00426248     lib_exe:gt_exe_types.obj
 0002:0000324c       ??_C@_0M@CEEA@Plug?8n?8Play?$AA@ 0042624c     lib_exe:gt_exe_types.obj
 0002:00003258       ??_C@_0P@KGNF@Dialog?5Include?$AA@ 00426258     lib_exe:gt_exe_types.obj
 0002:00003268       ??_C@_07MNFD@Version?$AA@  00426268     lib_exe:gt_exe_types.obj
 0002:00003270       ??_C@_0L@IGPE@Group?5Icon?$AA@ 00426270     lib_exe:gt_exe_types.obj
 0002:0000327c       ??_C@_0N@OPID@Group?5Cursor?$AA@ 0042627c     lib_exe:gt_exe_types.obj
 0002:0000328c       ??_C@_0O@DEPC@Message?5Table?$AA@ 0042628c     lib_exe:gt_exe_types.obj
 0002:0000329c       ??_C@_06LGJH@RCData?$AA@   0042629c     lib_exe:gt_exe_types.obj
 0002:000032a4       ??_C@_0M@BGGO@Accelerator?$AA@ 004262a4     lib_exe:gt_exe_types.obj
 0002:000032b0       ??_C@_04CLJC@Font?$AA@     004262b0     lib_exe:gt_exe_types.obj
 0002:000032b8       ??_C@_0P@LACI@Font?5Directory?$AA@ 004262b8     lib_exe:gt_exe_types.obj
 0002:000032c8       ??_C@_06PINC@String?$AA@   004262c8     lib_exe:gt_exe_types.obj
 0002:000032d0       ??_C@_06FPEO@Dialog?$AA@   004262d0     lib_exe:gt_exe_types.obj
 0002:000032d8       ??_C@_04PAPL@Menu?$AA@     004262d8     lib_exe:gt_exe_types.obj
 0002:000032e0       ??_C@_04JNBP@Icon?$AA@     004262e0     lib_exe:gt_exe_types.obj
 0002:000032e8       ??_C@_06KLJN@Bitmap?$AA@   004262e8     lib_exe:gt_exe_types.obj
 0002:000032f0       ??_C@_06KIBG@Cursor?$AA@   004262f0     lib_exe:gt_exe_types.obj
 0002:000032f8       ??_C@_0CD@COHP@?5?5File?5has?5no?5valid?5segment?5tabl@ 004262f8     lib_exe:gt_exe_ne_segmenthdl.obj
 0002:0000331c       ??_C@_0CK@OBEE@?5?5Failed?5to?5read?5segment?5table?5f@ 0042631c     lib_exe:gt_exe_ne_segmenthdl.obj
 0002:00003348       ??_7GT_EXE_NE_SegmentHandler@@6B@ 00426348     lib_exe:gt_exe_ne_segmenthdl.obj
 0002:0000334c       ??_C@_04IDIA@DATA?$AA@     0042634c     lib_exe:gt_exe_ne_segmenthdl.obj
 0002:00003354       ??_C@_06HCIJ@_last_?$AA@   00426354     lib_archive:gt_archiver.obj
 0002:0000335c       ??_C@_03FOJF@ZPK?$AA@      0042635c     lib_archive:gt_archiver.obj
 0002:00003360       ??_C@_03EKGB@ZOO?$AA@      00426360     lib_archive:gt_archiver.obj
 0002:00003364       ??_C@_03JFLD@ZIP?$AA@      00426364     lib_archive:gt_archiver.obj
 0002:00003368       ??_C@_03NABB@ZET?$AA@      00426368     lib_archive:gt_archiver.obj
 0002:0000336c       ??_C@_02GONE@YZ?$AA@       0042636c     lib_archive:gt_archiver.obj
 0002:00003370       ??_C@_02DJIL@YC?$AA@       00426370     lib_archive:gt_archiver.obj
 0002:00003374       ??_C@_03PLCO@XPA?$AA@      00426374     lib_archive:gt_archiver.obj
 0002:00003378       ??_C@_02COHM@XL?$AA@       00426378     lib_archive:gt_archiver.obj
 0002:0000337c       ??_C@_03JICF@XIE?$AA@      0042637c     lib_archive:gt_archiver.obj
 0002:00003380       ??_C@_03KOCK@UHA?$AA@      00426380     lib_archive:gt_archiver.obj
 0002:00003384       ??_C@_03GMIB@UFA?$AA@      00426384     lib_archive:gt_archiver.obj
 0002:00003388       ??_C@_03IBGI@UC2?$AA@      00426388     lib_archive:gt_archiver.obj
 0002:0000338c       ??_C@_03JAL@TAR?$AA@       0042638c     lib_archive:gt_archiver.obj
 0002:00003390       ??_C@_04PLOB@SZIP?$AA@     00426390     lib_archive:gt_archiver.obj
 0002:00003398       ??_C@_07HJCL@Synetic?$AA@  00426398     lib_archive:gt_archiver.obj
 0002:000033a0       ??_C@_04DINJ@SWAG?$AA@     004263a0     lib_archive:gt_archiver.obj
 0002:000033a8       ??_C@_08IFPI@Stirling?$AA@ 004263a8     lib_archive:gt_archiver.obj
 0002:000033b4       ??_C@_03IJHL@SQZ?$AA@      004263b4     lib_archive:gt_archiver.obj
 0002:000033b8       ??_C@_05DOLK@SQWEZ?$AA@    004263b8     lib_archive:gt_archiver.obj
 0002:000033c0       ??_C@_03HGON@SOF?$AA@      004263c0     lib_archive:gt_archiver.obj
 0002:000033c4       ??_C@_03IEGK@SKY?$AA@      004263c4     lib_archive:gt_archiver.obj
 0002:000033c8       ??_C@_03INAD@SBX?$AA@      004263c8     lib_archive:gt_archiver.obj
 0002:000033cc       ??_C@_03LHGK@SAR?$AA@      004263cc     lib_archive:gt_archiver.obj
 0002:000033d0       ??_C@_03DCJK@RNC?$AA@      004263d0     lib_archive:gt_archiver.obj
 0002:000033d4       ??_C@_09BNJN@RKive?5?$CI2?$CJ?$AA@ 004263d4     lib_archive:gt_archiver.obj
 0002:000033e0       ??_C@_09CGGC@RKive?5?$CI1?$CJ?$AA@ 004263e0     lib_archive:gt_archiver.obj
 0002:000033ec       ??_C@_03OEOK@RAX?$AA@      004263ec     lib_archive:gt_archiver.obj
 0002:000033f0       ??_C@_03OFHM@RAR?$AA@      004263f0     lib_archive:gt_archiver.obj
 0002:000033f4       ??_C@_07CPEA@old?5RAR?$AA@ 004263f4     lib_archive:gt_archiver.obj
 0002:000033fc       ??_C@_03HBPF@QFC?$AA@      004263fc     lib_archive:gt_archiver.obj
 0002:00003400       ??_C@_01KGCH@Q?$AA@        00426400     lib_archive:gt_archiver.obj
 0002:00003404       ??_C@_04PLLD@PPMZ?$AA@     00426404     lib_archive:gt_archiver.obj
 0002:0000340c       ??_C@_03LHIB@PHP?$AA@      0042640c     lib_archive:gt_archiver.obj
 0002:00003410       ??_C@_03EBFB@PAR?$AA@      00426410     lib_archive:gt_archiver.obj
 0002:00003414       ??_C@_06LLNJ@oPAQue?$AA@   00426414     lib_archive:gt_archiver.obj
 0002:0000341c       ??_C@_08HENK@IBM?5Pack?$AA@ 0042641c     lib_archive:gt_archiver.obj
 0002:00003428       ??_C@_04LCLM@Nero?$AA@     00426428     lib_archive:gt_archiver.obj
 0002:00003430       ??_C@_03KONJ@MSC?$AA@      00426430     lib_archive:gt_archiver.obj
 0002:00003434       ??_C@_03OKMC@MAR?$AA@      00426434     lib_archive:gt_archiver.obj
 0002:00003438       ??_C@_03KBNF@LZO?$AA@      00426438     lib_archive:gt_archiver.obj
 0002:0000343c       ??_C@_03PEDA@LZH?$AA@      0042643c     lib_archive:gt_archiver.obj
 0002:00003440       ??_C@_03KBP@LZA?$AA@       00426440     lib_archive:gt_archiver.obj
 0002:00003444       ??_C@_08JHGP@Links?5LS?$AA@ 00426444     lib_archive:gt_archiver.obj
 0002:00003450       ??_C@_03KFKN@LIM?$AA@      00426450     lib_archive:gt_archiver.obj
 0002:00003454       ??_C@_02LFHO@LG?$AA@       00426454     lib_archive:gt_archiver.obj
 0002:00003458       ??_C@_03GBC@JRC?$AA@       00426458     lib_archive:gt_archiver.obj
 0002:0000345c       ??_C@_03FEKD@JAR?$AA@      0042645c     lib_archive:gt_archiver.obj
 0002:00003460       ??_C@_03OGID@ISC?$AA@      00426460     lib_archive:gt_archiver.obj
 0002:00003464       ??_C@_03NMAO@INS?$AA@      00426464     lib_archive:gt_archiver.obj
 0002:00003468       ??_C@_03BIEI@IMP?$AA@      00426468     lib_archive:gt_archiver.obj
 0002:0000346c       ??_C@_09LFAP@Hyper?52?46?$AA@ 0042646c     lib_archive:gt_archiver.obj
 0002:00003478       ??_C@_09EKLG@Hyper?52?45?$AA@ 00426478     lib_archive:gt_archiver.obj
 0002:00003484       ??_C@_03JLLB@HQX?$AA@      00426484     lib_archive:gt_archiver.obj
 0002:00003488       ??_C@_03NKEE@HPA?$AA@      00426488     lib_archive:gt_archiver.obj
 0002:0000348c       ??_C@_03KFKA@HAP?$AA@      0042648c     lib_archive:gt_archiver.obj
 0002:00003490       ??_C@_02BAKG@HA?$AA@       00426490     lib_archive:gt_archiver.obj
 0002:00003494       ??_C@_04LMDK@GZip?$AA@     00426494     lib_archive:gt_archiver.obj
 0002:0000349c       ??_C@_06FBOJ@FINISH?$AA@   0042649c     lib_archive:gt_archiver.obj
 0002:000034a4       ??_C@_03GIKF@ESP?$AA@      004264a4     lib_archive:gt_archiver.obj
 0002:000034a8       ??_C@_03IBFC@ELI?$AA@      004264a8     lib_archive:gt_archiver.obj
 0002:000034ac       ??_C@_03DGNA@DWC?$AA@      004264ac     lib_archive:gt_archiver.obj
 0002:000034b0       ??_C@_03CKL@DPA?$AA@       004264b0     lib_archive:gt_archiver.obj
 0002:000034b4       ??_C@_04HJMF@CPAC?$AA@     004264b4     lib_archive:gt_archiver.obj
 0002:000034bc       ??_C@_06HJBB@COMP16?$AA@   004264bc     lib_archive:gt_archiver.obj
 0002:000034c4       ??_C@_03CKJ@COD?$AA@       004264c4     lib_archive:gt_archiver.obj
 0002:000034c8       ??_C@_03GBEG@CHZ?$AA@      004264c8     lib_archive:gt_archiver.obj
 0002:000034cc       ??_C@_03DPHA@CAB?$AA@      004264cc     lib_archive:gt_archiver.obj
 0002:000034d0       ??_C@_02IKNG@BZ?$AA@       004264d0     lib_archive:gt_archiver.obj
 0002:000034d4       ??_C@_03NEHO@BSN?$AA@      004264d4     lib_archive:gt_archiver.obj
 0002:000034d8       ??_C@_03NFCD@BSA?$AA@      004264d8     lib_archive:gt_archiver.obj
 0002:000034dc       ??_C@_03HEMK@BS2?$AA@      004264dc     lib_archive:gt_archiver.obj
 0002:000034e0       ??_C@_03FAHE@BOA?$AA@      004264e0     lib_archive:gt_archiver.obj
 0002:000034e4       ??_C@_03DPDD@BLI?$AA@      004264e4     lib_archive:gt_archiver.obj
 0002:000034e8       ??_C@_03HANE@BIX?$AA@      004264e8     lib_archive:gt_archiver.obj
 0002:000034ec       ??_C@_03CDND@ASD?$AA@      004264ec     lib_archive:gt_archiver.obj
 0002:000034f0       ??_C@_03JEJA@AR7?$AA@      004264f0     lib_archive:gt_archiver.obj
 0002:000034f4       ??_C@_03GCON@ARX?$AA@      004264f4     lib_archive:gt_archiver.obj
 0002:000034f8       ??_C@_03MJOM@ARS?$AA@      004264f8     lib_archive:gt_archiver.obj
 0002:000034fc       ??_C@_03JMMC@ARQ?$AA@      004264fc     lib_archive:gt_archiver.obj
 0002:00003500       ??_C@_03DECE@ARK?$AA@      00426500     lib_archive:gt_archiver.obj
 0002:00003504       ??_C@_03JOLD@ARJ?$AA@      00426504     lib_archive:gt_archiver.obj
 0002:00003508       ??_C@_03GBAK@ARI?$AA@      00426508     lib_archive:gt_archiver.obj
 0002:0000350c       ??_C@_03MKMA@ARG?$AA@      0042650c     lib_archive:gt_archiver.obj
 0002:00003510       ??_C@_03GAJM@ARC?$AA@      00426510     lib_archive:gt_archiver.obj
 0002:00003514       ??_C@_03HEGI@AMG?$AA@      00426514     lib_archive:gt_archiver.obj
 0002:00003518       ??_C@_04NOK@AKT9?$AA@      00426518     lib_archive:gt_archiver.obj
 0002:00003520       ??_C@_04KHHN@AKT8?$AA@     00426520     lib_archive:gt_archiver.obj
 0002:00003528       ??_C@_04KGCA@AKT7?$AA@     00426528     lib_archive:gt_archiver.obj
 0002:00003530       ??_C@_03NAON@AIN?$AA@      00426530     lib_archive:gt_archiver.obj
 0002:00003534       ??_C@_03ODON@ACE?$AA@      00426534     lib_archive:gt_archiver.obj
 0002:00003538       ??_C@_03KNAF@777?$AA@      00426538     lib_archive:gt_archiver.obj
 0002:0000353c       ??_C@_06BACP@_none_?$AA@   0042653c     lib_archive:gt_archiver.obj
 0002:00003544       ??_C@_05BGJG@?9sw1?9?$AA@  00426544     lib_archive:gt_archiver.obj
 0002:0000354c       ??_C@_05GKFI@HLSQZ?$AA@    0042654c     lib_archive:gt_archiver.obj
 0002:00003554       ??_C@_07EBIJ@PHILIPP?$AA@  00426554     lib_archive:gt_archiver.obj
 0002:0000355c       ??_C@_05BAAH@?9ah0?9?$AA@  0042655c     lib_archive:gt_archiver.obj
 0002:00003564       ??_C@_07KLEN@ChfLZ_2?$AA@  00426564     lib_archive:gt_archiver.obj
 0002:0000356c       ??_C@_07DMPF@JRchive?$AA@  0042656c     lib_archive:gt_archiver.obj
 0002:00003574       ??_C@_05NIJH@?$BKJar?$BL?$AA@ 00426574     lib_archive:gt_archiver.obj
 0002:0000357c       ??_C@_0BK@MBA@?$CIThis?5file?5must?5be?5conver?$AA@ 0042657c     lib_archive:gt_archiver.obj
 0002:00003598       ??_C@_0L@NCFE@Dirk?5Paehl?$AA@ 00426598     lib_archive:gt_archiver.obj
 0002:000035a4       ??_C@_07JDGG@DSIGDCC?$AA@  004265a4     lib_archive:gt_archiver.obj
 0002:000035ac       ??_C@_0BA@OCEF@Blink?5by?5D?4T?4S?4?$AA@ 004265ac     lib_archive:gt_archiver.obj
 0002:000035bc       ??_C@_05JMCH@?9lh1?9?$AA@  004265bc     lib_archive:gt_archiver.obj
 0002:000035c4       ??_C@_0P@OILA@?$AN?$CIC?$CJ?5STEPANYUK?$AA@ 004265c4     lib_archive:gt_archiver.obj
 0002:000035d4       ??_C@_07NKLG@?$CK?$CKACE?$CK?$CK?$AA@ 004265d4     lib_archive:gt_archiver.obj
 0002:000035dc       ??_C@_05CHGH@ustar?$AA@    004265dc     lib_archive:gt_archiver.obj
 0002:000035e4       ??_C@_0CA@DHFM@?5at?5?$CIrelative?$CJ?5offset?5?$CFd?1?$CF04Xh?6?$AA@ 004265e4     lib_archive:gt_archiver.obj
 0002:00003604       ??_C@_0BB@LIBI@Found?5?$CFs?5archive?$AA@ 00426604     lib_archive:gt_archiver.obj
 0002:00003618       ??_C@_0BL@MBAC@No?5lister?5is?5implemented?6?6?$AA@ 00426618     lib_archive:gt_archiver.obj
 0002:00003634       ??_7GT_ZOOArchiveLister@@6B@ 00426634     lib_archive:gt_archiver.obj
 0002:00003644       ??_7GT_ZIPArchiveLister@@6B@ 00426644     lib_archive:gt_archiver.obj
 0002:00003654       ??_7GT_ZETArchiveLister@@6B@ 00426654     lib_archive:gt_archiver.obj
 0002:00003664       ??_7GT_YCArchiveLister@@6B@ 00426664     lib_archive:gt_archiver.obj
 0002:00003674       ??_7GT_TARArchiveLister@@6B@ 00426674     lib_archive:gt_archiver.obj
 0002:00003684       ??_7GT_STIArchiveLister@@6B@ 00426684     lib_archive:gt_archiver.obj
 0002:00003694       ??_7GT_RARArchiveLister@@6B@ 00426694     lib_archive:gt_archiver.obj
 0002:000036a4       ??_7GT_PPZArchiveLister@@6B@ 004266a4     lib_archive:gt_archiver.obj
 0002:000036b4       ??_7GT_PAQArchiveLister@@6B@ 004266b4     lib_archive:gt_archiver.obj
 0002:000036c4       ??_7GT_NEROArchiveLister@@6B@ 004266c4     lib_archive:gt_archiver.obj
 0002:000036d4       ??_7GT_LZOArchiveLister@@6B@ 004266d4     lib_archive:gt_archiver.obj
 0002:000036e4       ??_7GT_LZHArchiveLister@@6B@ 004266e4     lib_archive:gt_archiver.obj
 0002:000036f4       ??_7GT_LGArchiveLister@@6B@ 004266f4     lib_archive:gt_archiver.obj
 0002:00003704       ??_7GT_INSArchiveLister@@6B@ 00426704     lib_archive:gt_archiver.obj
 0002:00003714       ??_7GT_HAArchiveLister@@6B@ 00426714     lib_archive:gt_archiver.obj
 0002:00003724       ??_7GT_GZArchiveLister@@6B@ 00426724     lib_archive:gt_archiver.obj
 0002:00003734       ??_7GT_CABArchiveLister@@6B@ 00426734     lib_archive:gt_archiver.obj
 0002:00003744       ??_7GT_BLIArchiveLister@@6B@ 00426744     lib_archive:gt_archiver.obj
 0002:00003754       ??_7GT_ASDArchiveLister@@6B@ 00426754     lib_archive:gt_archiver.obj
 0002:00003764       ??_7GT_ARXArchiveLister@@6B@ 00426764     lib_archive:gt_archiver.obj
 0002:00003774       ??_7GT_ARQArchiveLister@@6B@ 00426774     lib_archive:gt_archiver.obj
 0002:00003784       ??_7GT_ARJArchiveLister@@6B@ 00426784     lib_archive:gt_archiver.obj
 0002:00003794       ??_7GT_ARGArchiveLister@@6B@ 00426794     lib_archive:gt_archiver.obj
 0002:000037a4       ??_7GT_ARCArchiveLister@@6B@ 004267a4     lib_archive:gt_archiver.obj
 0002:000037b4       ??_7GT_AKT9ArchiveLister@@6B@ 004267b4     lib_archive:gt_archiver.obj
 0002:000037c4       ??_7GT_AKT7ArchiveLister@@6B@ 004267c4     lib_archive:gt_archiver.obj
 0002:000037d4       ??_7GT_AMGArchiveLister@@6B@ 004267d4     lib_archive:gt_archiver.obj
 0002:000037e4       ??_7GT_AINArchiveLister@@6B@ 004267e4     lib_archive:gt_archiver.obj
 0002:000037f4       ??_7GT_ACEArchiveLister@@6B@ 004267f4     lib_archive:gt_archiver.obj
 0002:00003804       ??_7GT_777ArchiveLister@@6B@ 00426804     lib_archive:gt_archiver.obj
 0002:00003814       ??_7GT_BasicArchiveLister@@6B@ 00426814     lib_archive:gt_archiver.obj
 0002:00003824       ??_C@_0CK@CIAI@?5Original?5?5?5?5Packed?5?5?5Perc?4?5?5?5?$CFs@ 00426824     lib_archive:gt_archiver.obj
 0002:00003850       ??_C@_0L@EPCC@?5?5?5?5?5Date?5?$AA@ 00426850     lib_archive:gt_archiver.obj
 0002:0000385c       ??_C@_0BN@MKKN@?5?$CF8i?5?5?$CF8i?5?5?$CF5?41f?$CF?$CF?5?5?$CFs?5?$CFs?$CFs?6?$AA@ 0042685c     lib_archive:gt_archiver.obj
 0002:0000387c       ??_C@_0L@PNFB@invalid?5?5?5?$AA@ 0042687c     lib_archive:gt_archiver.obj
 0002:00003888       ??_C@_0L@LJKB@?5?5?5?5?5?5?5?5?5?5?$AA@ 00426888     lib_archive:gt_archiver.obj
 0002:00003898       __real@0000000000000000    00426898     lib_archive:gt_archiver.obj
 0002:000038a0       ??_C@_0M@KBAG@?5?$FLpassword?$FN?$AA@ 004268a0     lib_archive:gt_archiver.obj
 0002:000038ac       ??_C@_0BA@MFDD@gt_archiver?4cxx?$AA@ 004268ac     lib_archive:gt_archiver.obj
 0002:000038bc       ??_C@_0CI@DII@Warning?3?5the?5archive?5may?5be?5inco@ 004268bc     lib_archive:gt_archiver.obj
 0002:000038e4       ??_C@_0DN@BJGI@Error?3?5found?5unexpected?5value?5?$CIi@ 004268e4     lib_archive:gt_archiver.obj
 0002:00003924       ??_C@_0CI@DMHK@Error?3?5found?5unexpected?5end?5of?5a@ 00426924     lib_archive:gt_archiver.obj
 0002:0000394c       ??_C@_08KFGC@?$CFd?5files?$AA@ 0042694c     lib_archive:gt_archiver.obj
 0002:00003958       ??_C@_0CI@OEFD@This?5type?5of?5archive?5cannot?5be?5l@ 00426958     lib_archive:gt_archiver.obj
 0002:00003980       ??_C@_0CA@DJIM@Error?3?5failed?5to?5read?5filename?6?$AA@ 00426980     lib_archive:gt_archiver.obj
 0002:000039a0       ??_C@_0BI@HGJO@Archive?5version?3?5?$CFd?4?$CFd?6?$AA@ 004269a0     lib_archive:gt_archiver.obj
 0002:000039b8       ??_C@_0BH@DIHG@?5?5?$CFd?5files?5in?5archive?6?$AA@ 004269b8     lib_archive:gt_archiver.obj
 0002:000039d0       ??_C@_0CF@LDHJ@Error?3?5failed?5to?5read?5global?5hea@ 004269d0     lib_archive:gt_archiver.obj
 0002:000039f8       ??_C@_0BP@PDBE@Unknown?5compression?5method?5?$CFd?6?$AA@ 004269f8     lib_archive:gt_archiver.obj
 0002:00003a18       ??_C@_0N@LBLN@?5?5?$FLcomment?$FN?6?$AA@ 00426a18     lib_archive:gt_archiver.obj
 0002:00003a28       ??_C@_0CE@PPDD@Cannot?5find?5end?5of?5archive?5comme@ 00426a28     lib_archive:gt_archiver.obj
 0002:00003a4c       ??_C@_0BN@JBND@Original?5archive?5name?3?5?$CC?$CFs?$CC?6?$AA@ 00426a4c     lib_archive:gt_archiver.obj
 0002:00003a6c       ??_C@_0N@MFNL@unknown?3?5?$CFd?6?$AA@ 00426a6c     lib_archive:gt_archiver.obj
 0002:00003a7c       ??_C@_05FPID@3?403?6?$AA@  00426a7c     lib_archive:gt_archiver.obj
 0002:00003a84       ??_C@_06GBKO@3?400a?6?$AA@ 00426a84     lib_archive:gt_archiver.obj
 0002:00003a8c       ??_C@_05KNI@ARJZ?6?$AA@    00426a8c     lib_archive:gt_archiver.obj
 0002:00003a94       ??_C@_0N@DEAB@2?463?5?9?52?470?6?$AA@ 00426a94     lib_archive:gt_archiver.obj
 0002:00003aa4       ??_C@_05FHL@2?462?6?$AA@   00426aa4     lib_archive:gt_archiver.obj
 0002:00003aac       ??_C@_0N@HLOB@2?455?5?9?52?460?6?$AA@ 00426aac     lib_archive:gt_archiver.obj
 0002:00003abc       ??_C@_0BD@IMOI@2?442?$CIc?$CJ?5?9?52?450?$CIa?$CJ?6?$AA@ 00426abc     lib_archive:gt_archiver.obj
 0002:00003ad0       ??_C@_05JKKJ@2?441?6?$AA@  00426ad0     lib_archive:gt_archiver.obj
 0002:00003ad8       ??_C@_05JBJM@2?439?6?$AA@  00426ad8     lib_archive:gt_archiver.obj
 0002:00003ae0       ??_C@_05DCGC@2?430?6?$AA@  00426ae0     lib_archive:gt_archiver.obj
 0002:00003ae8       ??_C@_05HGNO@2?421?6?$AA@  00426ae8     lib_archive:gt_archiver.obj
 0002:00003af0       ??_C@_0M@MDF@prior?52?421?6?$AA@ 00426af0     lib_archive:gt_archiver.obj
 0002:00003afc       ??_C@_0BC@HMDC@Archive?5version?3?5?$AA@ 00426afc     lib_archive:gt_archiver.obj
 0002:00003b10       ??_C@_0CG@FELE@Error?3?5failed?5to?5read?5archive?5he@ 00426b10     lib_archive:gt_archiver.obj
 0002:00003b38       ??_C@_0L@JIFH@gt_arq?4hxx?$AA@ 00426b38     lib_archive:gt_archiver.obj
 0002:00003b44       ??_C@_0BN@NMD@Error?3?5Unsupported?5version?4?6?$AA@ 00426b44     lib_archive:gt_archiver.obj
 0002:00003b64       ??_C@_0BJ@KFFD@Archive?5version?5?$CFd?4?$CF02i?6?$AA@ 00426b64     lib_archive:gt_archiver.obj
 0002:00003b80       ??_7GT_IMPArchiveLister@@6B@ 00426b80     lib_archive:gt_archiver.obj
 0002:00003b90       ??_C@_0BD@LCML@Unknown?5method?5?$CFd?6?$AA@ 00426b90     lib_archive:gt_archiver.obj
 0002:00003ba4       ??_C@_0CC@HMCB@LZ77?5multimedia?5is?5not?5supported@ 00426ba4     lib_archive:gt_archiver.obj
 0002:00003bc8       ??_C@_0CM@INJ@Burrows?9Wheeler?5Transform?5is?5not@ 00426bc8     lib_archive:gt_archiver.obj
 0002:00003bf4       ??_C@_0BI@KHC@?5?5archive?5is?5encrypted?6?$AA@ 00426bf4     lib_archive:gt_archiver.obj
 0002:00003c0c       ??_C@_0CC@FHCJ@?5?5this?5is?5a?5multi?5volume?5archive@ 00426c0c     lib_archive:gt_archiver.obj
 0002:00003c30       ??_C@_0BN@HFDF@?5?5archive?5comment?5was?5found?6?$AA@ 00426c30     lib_archive:gt_archiver.obj
 0002:00003c50       ??_C@_0CA@BKDH@?5?5CRC16?5check?5on?5header?5failed?6?$AA@ 00426c50     lib_archive:gt_archiver.obj
 0002:00003c70       ??_C@_04ENNO@?5?9?$DO?5?$AA@ 00426c70     lib_archive:gt_archiver.obj
 0002:00003c78       ??_C@_0BM@HGEB@?5?5Unknown?5header?5format?5?$CFd?6?$AA@ 00426c78     lib_archive:gt_archiver.obj
 0002:00003c94       ??_C@_0CB@IPKM@Error?3?5found?5unknown?5token?5?8?$CFs?8?6@ 00426c94     lib_archive:gt_archiver.obj
 0002:00003cb8       ??_C@_05GPAB@total?$AA@    00426cb8     lib_archive:gt_archiver.obj
 0002:00003cc0       ??_C@_0CJ@OEAG@?$FLunknown?5token?5type?5?$CF02Xh?5for?5?$CFd@ 00426cc0     lib_archive:gt_archiver.obj
 0002:00003cec       ??_C@_0BA@EJKM@?$FLfile?5comment?$FN?6?$AA@ 00426cec     lib_archive:gt_archiver.obj
 0002:00003cfc       ??_C@_0BD@FHCJ@?$FLarchive?5comment?$FN?6?$AA@ 00426cfc     lib_archive:gt_archiver.obj
 0002:00003d10       ??_C@_0L@PFCJ@?$FLDisk?5?$CFd?$FN?6?$AA@ 00426d10     lib_archive:gt_archiver.obj
 0002:00003d1c       ??_7?$GT_Sequence@VPString@@@@6B@ 00426d1c     lib_archive:gt_archiver.obj
 0002:00003d20       ??_C@_0DF@NMCL@Error?3?5?$CFd?5file?$CIs?$CJ?5are?5too?5much?5i@ 00426d20     lib_archive:gt_archiver.obj
 0002:00003d58       ??_C@_0DA@FAEF@Error?3?5?$CFd?5file?$CIs?$CJ?5are?5not?5in?5the@ 00426d58     lib_archive:gt_archiver.obj
 0002:00003d88       ??_C@_0BF@NPHB@Archive?5version?3?5?$CFd?6?$AA@ 00426d88     lib_archive:gt_archiver.obj
 0002:00003da0       ??_C@_0CB@HNCK@Postscript?5data?5follows?5?$CIType?52?$CJ@ 00426da0     lib_generic:gt_generic.obj
 0002:00003dc4       ??_C@_0BH@GPLK@Graphics?5text?5?$CIType?53?$CJ?$AA@ 00426dc4     lib_generic:gt_generic.obj
 0002:00003ddc       ??_C@_0BL@KGLN@Start?5of?5WPG?5data?5?$CIType?52?$CJ?$AA@ 00426ddc     lib_generic:gt_generic.obj
 0002:00003df8       ??_C@_0BH@HJBA@Graphics?5text?5?$CIType?52?$CJ?$AA@ 00426df8     lib_generic:gt_generic.obj
 0002:00003e10       ??_C@_0BB@NKIL@PlanPerfect?5data?$AA@ 00426e10     lib_generic:gt_generic.obj
 0002:00003e24       ??_C@_0M@KJD@Start?5chart?$AA@ 00426e24     lib_generic:gt_generic.obj
 0002:00003e30       ??_C@_0N@FKJG@Start?5figure?$AA@ 00426e30     lib_generic:gt_generic.obj
 0002:00003e40       ??_C@_0BA@FCGD@Bitmap?5?$CIType?52?$CJ?$AA@ 00426e40     lib_generic:gt_generic.obj
 0002:00003e50       ??_C@_0BA@GPFD@Curved?5polyline?$AA@ 00426e50     lib_generic:gt_generic.obj
 0002:00003e60       ??_C@_0BC@ELDN@Output?5attributes?$AA@ 00426e60     lib_generic:gt_generic.obj
 0002:00003e74       ??_C@_0CB@EGNF@Postscript?5data?5follows?5?$CIType?51?$CJ@ 00426e74     lib_generic:gt_generic.obj
 0002:00003e98       ??_C@_0BA@DEFF@End?5of?5WPG?5data?$AA@ 00426e98     lib_generic:gt_generic.obj
 0002:00003ea8       ??_C@_0BL@JNEC@Start?5of?5WPG?5data?5?$CIType?51?$CJ?$AA@ 00426ea8     lib_generic:gt_generic.obj
 0002:00003ec4       ??_C@_09NMHK@Color?5map?$AA@ 00426ec4     lib_generic:gt_generic.obj
 0002:00003ed0       ??_C@_0BJ@KFLD@Graphics?5text?5attributes?$AA@ 00426ed0     lib_generic:gt_generic.obj
 0002:00003eec       ??_C@_0BH@ECOP@Graphics?5text?5?$CIType?51?$CJ?$AA@ 00426eec     lib_generic:gt_generic.obj
 0002:00003f04       ??_C@_0BA@GJJM@Bitmap?5?$CIType?51?$CJ?$AA@ 00426f04     lib_generic:gt_generic.obj
 0002:00003f14       ??_C@_07FEDM@Ellipse?$AA@  00426f14     lib_generic:gt_generic.obj
 0002:00003f1c       ??_C@_07HDDJ@Polygon?$AA@  00426f1c     lib_generic:gt_generic.obj
 0002:00003f24       ??_C@_09DIIL@Rectangle?$AA@ 00426f24     lib_generic:gt_generic.obj
 0002:00003f30       ??_C@_08MEIJ@Polyline?$AA@ 00426f30     lib_generic:gt_generic.obj
 0002:00003f3c       ??_C@_04KEDG@Line?$AA@     00426f3c     lib_generic:gt_generic.obj
 0002:00003f44       ??_C@_0L@EGML@Polymarker?$AA@ 00426f44     lib_generic:gt_generic.obj
 0002:00003f50       ??_C@_0BC@CKFA@Marker?5attributes?$AA@ 00426f50     lib_generic:gt_generic.obj
 0002:00003f64       ??_C@_0BA@MNDM@Line?5attributes?$AA@ 00426f64     lib_generic:gt_generic.obj
 0002:00003f74       ??_C@_0BA@PNBL@Fill?5attributes?$AA@ 00426f74     lib_generic:gt_generic.obj
 0002:00003f84       ??_C@_09OOJM@?$DMunknown?$DO?$AA@ 00426f84     lib_generic:gt_generic.obj
 0002:00003f90       ??_C@_0BA@NJEG@PostScript?5font?$AA@ 00426f90     lib_generic:gt_generic.obj
 0002:00003fa0       ??_C@_0BH@PNH@hyphenation?5lex?5module?$AA@ 00426fa0     lib_generic:gt_generic.obj
 0002:00003fb8       ??_C@_0BG@LAOA@graphics?5driver?5?$CIWPD?$CJ?$AA@ 00426fb8     lib_generic:gt_generic.obj
 0002:00003fd0       ??_C@_0BF@MBEE@macro?5resource?5?$CIMRS?$CJ?$AA@ 00426fd0     lib_generic:gt_generic.obj
 0002:00003fe8       ??_C@_0BI@NJDO@hyphenation?5data?5module?$AA@ 00426fe8     lib_generic:gt_generic.obj
 0002:00004000       ??_C@_0BI@BGDG@hyphenation?5code?5module?$AA@ 00427000     lib_generic:gt_generic.obj
 0002:00004018       ??_C@_0O@KNFA@graphic?5?$CIWPG?$CJ?$AA@ 00427018     lib_generic:gt_generic.obj
 0002:00004028       ??_C@_0BB@FPKD@overlay?5?$CIWP?4FIL?$CJ?$AA@ 00427028     lib_generic:gt_generic.obj
 0002:0000403c       ??_C@_0BH@KPOK@display?5resource?5?$CIDRS?$CJ?$AA@ 0042703c     lib_generic:gt_generic.obj
 0002:00004054       ??_C@_0BH@PHAG@printer?5resource?5?$CIALL?$CJ?$AA@ 00427054     lib_generic:gt_generic.obj
 0002:0000406c       ??_C@_0BD@CGEE@prefix?5information?$AA@ 0042706c     lib_generic:gt_generic.obj
 0002:00004080       ??_C@_05IFI@setup?$AA@     00427080     lib_generic:gt_generic.obj
 0002:00004088       ??_C@_0BH@GEHF@printer?5resource?5?$CIPRS?$CJ?$AA@ 00427088     lib_generic:gt_generic.obj
 0002:000040a0       ??_C@_0N@LFIG@column?5block?$AA@ 004270a0     lib_generic:gt_generic.obj
 0002:000040b0       ??_C@_0BC@CFKO@rectangular?5block?$AA@ 004270b0     lib_generic:gt_generic.obj
 0002:000040c4       ??_C@_05PNCJ@block?$AA@    004270c4     lib_generic:gt_generic.obj
 0002:000040cc       ??_C@_09GOPH@thesaurus?$AA@ 004270cc     lib_generic:gt_generic.obj
 0002:000040d8       ??_C@_0L@EACF@dictionary?$AA@ 004270d8     lib_generic:gt_generic.obj
 0002:000040e4       ??_C@_08FJIM@document?$AA@ 004270e4     lib_generic:gt_generic.obj
 0002:000040f0       ??_C@_0BE@IFFD@keyboard?5definition?$AA@ 004270f0     lib_generic:gt_generic.obj
 0002:00004104       ??_C@_04MHDN@help?$AA@     00427104     lib_generic:gt_generic.obj
 0002:0000410c       ??_C@_05IMD@macro?$AA@     0042710c     lib_generic:gt_generic.obj
 0002:0000416c       ??_C@_08FHHL@?5colors?6?$AA@ 0042716c     lib_generic:gt_generic.obj
 0002:00004178       ??_C@_09JDBD@?5pixel?5?9?5?$AA@ 00427178     lib_generic:gt_generic.obj
 0002:00004184       ??_C@_04JJLD@?$CJ?5?9?5?$AA@ 00427184     lib_generic:gt_generic.obj
 0002:0000418c       ??_C@_0BA@EBKJ@3?5?9?5OS?12?52?4x?5?$DP?$DP?$AA@ 0042718c     lib_generic:gt_generic.obj
 0002:0000419c       ??_C@_0P@PHEI@4?5?9?5Windows?595?$AA@ 0042719c     lib_generic:gt_generic.obj
 0002:000041ac       ??_C@_0P@LPEC@3?5?9?5Windows?5NT?$AA@ 004271ac     lib_generic:gt_generic.obj
 0002:000041bc       ??_C@_0BA@FIOE@3?5?9?5Windows?53?4x?$AA@ 004271bc     lib_generic:gt_generic.obj
 0002:000041cc       ??_C@_0BL@IFCK@2?5?9?5Windows?52?4x?5?1?5OS?12?51?4x?$AA@ 004271cc     lib_generic:gt_generic.obj
 0002:000041e8       ??_C@_0BE@MHDB@Bitmap?5image?5?$CItype?5?$AA@ 004271e8     lib_generic:gt_generic.obj
 0002:000041fc       ??_C@_09OCMC@unknown?5?$CI?$AA@ 004271fc     lib_generic:gt_generic.obj
 0002:00004208       ??_C@_07JKKM@picture?$AA@  00427208     lib_generic:gt_generic.obj
 0002:00004210       ??_C@_09MHFD@numerical?$AA@ 00427210     lib_generic:gt_generic.obj
 0002:0000421c       ??_C@_04MJKA@memo?$AA@     0042721c     lib_generic:gt_generic.obj
 0002:00004224       ??_C@_07ONJH@logical?$AA@  00427224     lib_generic:gt_generic.obj
 0002:0000422c       ??_C@_05PIME@float?$AA@    0042722c     lib_generic:gt_generic.obj
 0002:00004234       ??_C@_04EGPJ@date?$AA@     00427234     lib_generic:gt_generic.obj
 0002:0000423c       ??_C@_09IMPP@character?$AA@ 0042723c     lib_generic:gt_generic.obj
 0002:00004248       ??_C@_03IBOB@?$CF3d?$AA@   00427248     lib_generic:gt_generic.obj
 0002:0000424c       ??_C@_03DMDD@?5?9?5?$AA@   0042724c     lib_generic:gt_generic.obj
 0002:00004250       ??_C@_04GPCF@?5?5?5?5?$AA@ 00427250     lib_generic:gt_generic.obj
 0002:00004258       ??_C@_0P@PBDO@?5bytes?1record?6?$AA@ 00427258     lib_generic:gt_generic.obj
 0002:00004268       ??_C@_09EHKG@?5fields?3?5?$AA@ 00427268     lib_generic:gt_generic.obj
 0002:00004274       ??_C@_0P@GFPG@?5records?5with?5?$AA@ 00427274     lib_generic:gt_generic.obj
 0002:00004284       ??_C@_03LDCK@?6?5?5?$AA@   00427284     lib_generic:gt_generic.obj
 0002:00004288       ??_C@_0BB@LNPJ@dBase?5datafile?5v?$AA@ 00427288     lib_generic:gt_generic.obj
 0002:0000429c       ??_C@_06CGGK@?$DMBODY?$DO?$AA@ 0042729c     lib_generic:gt_generic.obj
 0002:000042a4       ??_C@_06IOIP@?$DMHEAD?$DO?$AA@ 004272a4     lib_generic:gt_generic.obj
 0002:000042ac       ??_C@_06JDEH@?$DMHTML?$DO?$AA@ 004272ac     lib_generic:gt_generic.obj
 0002:000042b4       ??_C@_0M@CDFM@?6?5?5Title?3?5?8?$AA@ 004272b4     lib_generic:gt_generic.obj
 0002:000042c0       ??_C@_08DKIC@?$DM?1TITLE?$DO?$AA@ 004272c0     lib_generic:gt_generic.obj
 0002:000042cc       ??_C@_07EGJD@?$DMTITLE?$DO?$AA@ 004272cc     lib_generic:gt_generic.obj
 0002:000042d4       ??_C@_0CH@JFFH@Hyper?5Text?5Markup?5Language?5?$CIHTML@ 004272d4     lib_generic:gt_generic.obj
 0002:000042fc       ??_C@_02DIMO@?$FN?6?$AA@   004272fc     lib_generic:gt_generic.obj
 0002:00004300       ??_C@_07MIGK@?$CKerror?$CK?$AA@ 00427300     lib_generic:gt_generic.obj
 0002:00004308       ??_C@_0L@DPAA@INI?5file?5?$FL?$AA@ 00427308     lib_generic:gt_generic.obj
 0002:00004314       ??_C@_0CH@BCGN@?6JPG?5image?5?9?5SOFn?5segment?5is?5not@ 00427314     lib_generic:gt_generic.obj
 0002:0000433c       ??_C@_0BN@CMIB@JPG?5image?5?9?5found?5invalid?5ID?$AA@ 0042733c     lib_generic:gt_generic.obj
 0002:0000435c       ??_C@_0BD@DBLF@Truecolor?5?$CI32?5bit?$CJ?$AA@ 0042735c     lib_generic:gt_generic.obj
 0002:00004370       ??_C@_0BD@GCOA@Truecolor?5?$CI24?5bit?$CJ?$AA@ 00427370     lib_generic:gt_generic.obj
 0002:00004384       ??_C@_0L@PJGM@Greyscaled?$AA@ 00427384     lib_generic:gt_generic.obj
 0002:00004390       ??_C@_0L@NAB@JPG?5image?5?$AA@ 00427390     lib_generic:gt_generic.obj
 0002:0000439c       ??_C@_0O@PGIC@?5entries?5?4?4?4?6?$AA@ 0042739c     lib_generic:gt_generic.obj
 0002:000043ac       ??_C@_0BK@KDLP@Truncating?5listing?5after?5?$AA@ 004273ac     lib_generic:gt_generic.obj
 0002:000043c8       ??_C@_07OKKO@?5bytes?$CJ?$AA@ 004273c8     lib_generic:gt_generic.obj
 0002:000043d0       ??_C@_06OLJP@Data?5?$CI?$AA@ 004273d0     lib_generic:gt_generic.obj
 0002:000043d8       ??_C@_02KIEA@?$HM?5?$AA@   004273d8     lib_generic:gt_generic.obj
 0002:000043dc       ??_C@_02IHLC@?5?5?$AA@     004273dc     lib_generic:gt_generic.obj
 0002:000043e0       ??_C@_02HFBK@?3?5?$AA@     004273e0     lib_generic:gt_generic.obj
 0002:000043e4       ??_C@_0BP@IPLM@?6?5?5Playtime?3?5?$CFd?3?$CF02i?0?$CF02i?5min?6?$AA@ 004273e4     lib_generic:gt_generic.obj
 0002:00004408       __real@3f91111111111111    00427408     lib_generic:gt_generic.obj
 0002:00004410       __real@404e000000000000    00427410     lib_generic:gt_generic.obj
 0002:00004418       ??_C@_0BB@LNNC@?5?$CIerror?5in?5data?$CJ?$AA@ 00427418     lib_generic:gt_generic.obj
 0002:0000442c       ??_C@_0BK@PKKJ@?5?$CIdecompressed?3?5?$CFd?5bytes?$CJ?$AA@ 0042742c     lib_generic:gt_generic.obj
 0002:00004448       __real@4010000000000000    00427448     lib_generic:gt_generic.obj
 0002:00004450       ??_C@_0M@KANG@?6?5?5Bits?3?5?$CFd?$AA@ 00427450     lib_generic:gt_generic.obj
 0002:0000445c       ??_C@_08MBAJ@?$CFd?5bytes?$AA@ 0042745c     lib_generic:gt_generic.obj
 0002:00004468       ??_C@_0CC@JFKA@?$CFd?5bytes?5?$CIdecompressed?3?5?$CFd?5bytes@ 00427468     lib_generic:gt_generic.obj
 0002:00004490       __real@4030000000000000    00427490     lib_generic:gt_generic.obj
 0002:00004498       ??_C@_0BO@MAEM@found?5error?5in?5data?5structure?$AA@ 00427498     lib_generic:gt_generic.obj
 0002:000044b8       ??_C@_0DC@JHOH@?6?5?5Channels?3?5?$CFd?6?5?5Sampling?5rate?3@ 004274b8     lib_generic:gt_generic.obj
 0002:000044ec       ??_C@_0BF@NBCO@?5?$CIcompressed?5?9?5type?5?$AA@ 004274ec     lib_generic:gt_generic.obj
 0002:00004504       ??_C@_0BG@CBFD@Wave?5music?5file?5?$CIWAV?$CJ?$AA@ 00427504     lib_generic:gt_generic.obj
 0002:0000451c       ??_C@_0BD@ODBC@EMU?5SoundFont?5bank?$AA@ 0042751c     lib_generic:gt_generic.obj
 0002:00004530       ??_C@_0BN@IJKN@RIFF?5File?3?5unknown?5type?5?8?$CFs?8?$AA@ 00427530     lib_generic:gt_generic.obj
 0002:00004550       ??_C@_0CB@CMII@Corel?5Draw?59?5template?5file?5?$CICDT?$CJ@ 00427550     lib_generic:gt_generic.obj
 0002:00004574       ??_C@_0CB@LMML@Corel?5Draw?58?5template?5file?5?$CICDT?$CJ@ 00427574     lib_generic:gt_generic.obj
 0002:00004598       ??_C@_0CA@BAJA@Corel?5Draw?59?5graphic?5file?5?$CICDR?$CJ?$AA@ 00427598     lib_generic:gt_generic.obj
 0002:000045b8       ??_C@_0CA@FDGO@Corel?5Draw?58?5graphic?5file?5?$CICDR?$CJ?$AA@ 004275b8     lib_generic:gt_generic.obj
 0002:000045d8       ??_C@_0CA@IHGE@Corel?5Draw?57?5graphic?5file?5?$CICDR?$CJ?$AA@ 004275d8     lib_generic:gt_generic.obj
 0002:000045f8       ??_C@_0CB@MPBP@Corel?5Draw?57?5template?5file?5?$CICDT?$CJ@ 004275f8     lib_generic:gt_generic.obj
 0002:0000461c       ??_C@_0CB@FPFM@Corel?5Draw?56?5template?5file?5?$CICDT?$CJ@ 0042761c     lib_generic:gt_generic.obj
 0002:00004640       ??_C@_0BG@HEKL@Animation?5Video?5?$CIAVI?$CJ?$AA@ 00427640     lib_generic:gt_generic.obj
 0002:00004658       ??_C@_0CA@MEJK@Corel?5Draw?56?5graphic?5file?5?$CICDR?$CJ?$AA@ 00427658     lib_generic:gt_generic.obj
 0002:00004678       ??_C@_06EKIF@GLOBAL?$AA@   00427678     lib_generic:gt_generic.obj
 0002:00004680       ??_C@_08FBFM@BUSINESS?$AA@ 00427680     lib_generic:gt_generic.obj
 0002:0000468c       ??_C@_07JBJC@PROCESS?$AA@  0042768c     lib_generic:gt_generic.obj
 0002:00004694       ??_C@_07CNDI@WORKING?$AA@  00427694     lib_generic:gt_generic.obj
 0002:0000469c       ??_C@_0M@BPFA@ENVIRONMENT?$AA@ 0042769c     lib_generic:gt_generic.obj
 0002:000046a8       ??_C@_06JPM@PUBLIC?$AA@    004276a8     lib_generic:gt_generic.obj
 0002:000046b0       ??_C@_09MEAK@PROTECTED?$AA@ 004276b0     lib_generic:gt_generic.obj
 0002:000046bc       ??_C@_07MLHL@PRIVATE?$AA@  004276bc     lib_generic:gt_generic.obj
 0002:000046c4       ??_C@_07PAAE@PACKAGE?$AA@  004276c4     lib_generic:gt_generic.obj
 0002:000046cc       ??_C@_06JJAJ@IMPORT?$AA@   004276cc     lib_generic:gt_generic.obj
 0002:000046d4       ??_C@_07GCLH@TYPEDEF?$AA@  004276d4     lib_generic:gt_generic.obj
 0002:000046dc       ??_C@_06MFEF@STRUCT?$AA@   004276dc     lib_generic:gt_generic.obj
 0002:000046e4       ??_C@_06MJBA@STATIC?$AA@   004276e4     lib_generic:gt_generic.obj
 0002:000046ec       ??_C@_06EJFL@EXTERN?$AA@   004276ec     lib_generic:gt_generic.obj
 0002:000046f4       ??_C@_04GAEI@ENUM?$AA@     004276f4     lib_generic:gt_generic.obj
 0002:000046fc       ??_C@_05NNCA@CLASS?$AA@    004276fc     lib_generic:gt_generic.obj
 0002:00004704       ??_C@_07MOPA@?$CDPRAGMA?$AA@ 00427704     lib_generic:gt_generic.obj
 0002:0000470c       ??_C@_05IFJE@?$CDLINE?$AA@ 0042770c     lib_generic:gt_generic.obj
 0002:00004714       ??_C@_08HDNH@?$CDINCLUDE?$AA@ 00427714     lib_generic:gt_generic.obj
 0002:00004720       ??_C@_07OIDH@?$CDIFNDEF?$AA@ 00427720     lib_generic:gt_generic.obj
 0002:00004728       ??_C@_06FIDB@?$CDIFDEF?$AA@ 00427728     lib_generic:gt_generic.obj
 0002:00004730       ??_C@_03OHAH@?$CDIF?$AA@   00427730     lib_generic:gt_generic.obj
 0002:00004734       ??_C@_07LHAC@?$CDDEFINE?$AA@ 00427734     lib_generic:gt_generic.obj
 0002:0000473c       ??_C@_07LHEB@DOMAINS?$AA@  0042773c     lib_generic:gt_generic.obj
 0002:00004744       ??_C@_0L@HDNC@PREDICATES?$AA@ 00427744     lib_generic:gt_generic.obj
 0002:00004750       ??_C@_0CK@KKAK@Error?3?5Failed?5to?5init?5source?5ana@ 00427750     lib_generic:gt_generic.obj
 0002:0000477c       ??_C@_0P@LLLH@IMPLEMENTATION?$AA@ 0042777c     lib_generic:gt_generic.obj
 0002:0000478c       ??_C@_0L@GBDC@DEFINITION?$AA@ 0042778c     lib_generic:gt_generic.obj
 0002:00004798       ??_C@_06PBLN@MODULE?$AA@   00427798     lib_generic:gt_generic.obj
 0002:000047a0       ??_C@_03KNCG@VAR?$AA@      004277a0     lib_generic:gt_generic.obj
 0002:000047a4       ??_C@_04PGOJ@USES?$AA@     004277a4     lib_generic:gt_generic.obj
 0002:000047ac       ??_C@_04JHII@TYPE?$AA@     004277ac     lib_generic:gt_generic.obj
 0002:000047b4       ??_C@_05MJOH@CONST?$AA@    004277b4     lib_generic:gt_generic.obj
 0002:000047bc       ??_C@_08JBAL@FUNCTION?$AA@ 004277bc     lib_generic:gt_generic.obj
 0002:000047c8       ??_C@_09HPKL@PROCEDURE?$AA@ 004277c8     lib_generic:gt_generic.obj
 0002:000047d4       ??_C@_04OHGB@UNIT?$AA@     004277d4     lib_generic:gt_generic.obj
 0002:000047dc       ??_C@_07PBFP@LIBRARY?$AA@  004277dc     lib_generic:gt_generic.obj
 0002:000047e4       ??_C@_07NOJH@PROGRAM?$AA@  004277e4     lib_generic:gt_generic.obj
 0002:000047ec       ??_C@_0CJ@JLIL@ERROR?3?5Failed?5to?5init?5source?5ana@ 004277ec     lib_generic:gt_generic.obj
 0002:00004818       ??_C@_0CF@NDAO@Error?3?5failed?5to?5read?5from?5the?5f@ 00427818     lib_generic:gt_generic.obj
 0002:00004840       ??_C@_0P@HAGC@internal?5error?$AA@ 00427840     lib_generic:gt_generic.obj
 0002:00004850       ??_C@_0N@CEKG@g_source?4hxx?$AA@ 00427850     lib_generic:gt_generic.obj
 0002:00004860       ??_C@_02BIMI@?8?$CJ?$AA@   00427860     lib_generic:gt_generic.obj
 0002:00004864       ??_C@_0CL@COLJ@ADONIS?5export?5file?1library?5?$CIfirs@ 00427864     lib_generic:gt_generic.obj
 0002:00004890       ??_C@_0BH@NBAF@JavaScript?5source?5code?$AA@ 00427890     lib_generic:gt_generic.obj
 0002:000048a8       ??_C@_0BB@GCPG@Java?5source?5code?$AA@ 004278a8     lib_generic:gt_generic.obj
 0002:000048bc       ??_C@_0BC@JIG@C?1C?$CL?$CL?5source?5code?$AA@ 004278bc     lib_generic:gt_generic.obj
 0002:000048d0       ??_C@_0BD@GFLE@Prolog?5source?5code?$AA@ 004278d0     lib_generic:gt_generic.obj
 0002:000048e4       ??_C@_0BN@FJIB@Modula?5implementation?5file?5?8?$AA@ 004278e4     lib_generic:gt_generic.obj
 0002:00004904       ??_C@_0BJ@ELHE@Modula?5definition?5file?5?8?$AA@ 00427904     lib_generic:gt_generic.obj
 0002:00004920       ??_C@_0BB@HOCE@Modula?5program?5?8?$AA@ 00427920     lib_generic:gt_generic.obj
 0002:00004934       ??_C@_0BD@ENCJ@Pascal?5source?5code?$AA@ 00427934     lib_generic:gt_generic.obj
 0002:00004948       ??_C@_0BC@PJDL@Pascal?5function?5?8?$AA@ 00427948     lib_generic:gt_generic.obj
 0002:0000495c       ??_C@_0BD@CFLG@Pascal?5procedure?5?8?$AA@ 0042795c     lib_generic:gt_generic.obj
 0002:00004970       ??_C@_0O@LKDH@Pascal?5unit?5?8?$AA@ 00427970     lib_generic:gt_generic.obj
 0002:00004980       ??_C@_0BB@IIEE@Pascal?5library?5?8?$AA@ 00427980     lib_generic:gt_generic.obj
 0002:00004994       ??_C@_0BB@GENI@Pascal?5program?5?8?$AA@ 00427994     lib_generic:gt_generic.obj
 0002:000049a8       ??_C@_02LFJB@?8?6?$AA@     004279a8     lib_generic:gt_generic.obj
 0002:000049ac       ??_C@_0BM@OOBA@?5?5Character?5device?5driver?5?8?$AA@ 004279ac     lib_generic:gt_generic.obj
 0002:000049c8       ??_C@_0M@MPLE@?5device?$CIs?$CJ?6?$AA@ 004279c8     lib_generic:gt_generic.obj
 0002:000049d4       ??_C@_0BM@OCNO@?5?5Block?5device?5driver?5with?5?$AA@ 004279d4     lib_generic:gt_generic.obj
 0002:000049f0       ??_C@_0BD@KOK@DOS?5Device?5driver?6?$AA@ 004279f0     lib_generic:gt_generic.obj
 0002:00004a04       ??_C@_06NLBK@?5unit?6?$AA@ 00427a04     lib_generic:gt_generic.obj
 0002:00004a0c       ??_C@_08LFPJ@Delphi?51?$AA@ 00427a0c     lib_generic:gt_generic.obj
 0002:00004a18       ??_C@_03DBLH@7?40?$AA@     00427a18     lib_generic:gt_generic.obj
 0002:00004a1c       ??_C@_03JFFB@5?45?$AA@     00427a1c     lib_generic:gt_generic.obj
 0002:00004a20       ??_C@_03MHIM@4?40?$AA@     00427a20     lib_generic:gt_generic.obj
 0002:00004a24       ??_C@_0O@PMDC@Turbo?5Pascal?5?$AA@ 00427a24     lib_generic:gt_generic.obj
 0002:00004a34       ??_C@_0DG@IJFC@Error?3?5failed?5to?5read?5the?5name?5o@ 00427a34     lib_generic:gt_generic.obj
 0002:00004a6c       ??_C@_0CN@CKBA@Error?3?5failed?5to?5init?5true?5type?5@ 00427a6c     lib_generic:gt_generic.obj
 0002:00004a9c       ??_C@_0BA@LOFM@Truetype?5font?5?8?$AA@ 00427a9c     lib_generic:gt_generic.obj
 0002:00004aac       ??_C@_04OCKL@?4DOK?$AA@    00427aac     lib_generic:gt_generic.obj
 0002:00004ab4       ??_C@_04LGBD@?4DOC?$AA@    00427ab4     lib_generic:gt_generic.obj
 0002:00004abc       ??_C@_04GABA@?4TXT?$AA@    00427abc     lib_generic:gt_generic.obj
 0002:00004ac4       ??_C@_0CF@JBKE@Uhuru?5Sound?5Software?5Macintosh?5v@ 00427ac4     lib_generic:gt_generic.obj
 0002:00004aec       ??_C@_0BE@PGPG@8?9bit?5sampled?5voice?$AA@ 00427aec     lib_generic:gt_generic.obj
 0002:00004b00       ??_C@_0L@PEGD@image?5data?$AA@ 00427b00     lib_generic:gt_generic.obj
 0002:00004b0c       ??_C@_0P@HJHE@unknown?5type?5?8?$AA@ 00427b0c     lib_generic:gt_generic.obj
 0002:00004b1c       ??_C@_0M@BPGC@Vector?5font?$AA@ 00427b1c     lib_generic:gt_generic.obj
 0002:00004b28       ??_C@_0P@LNGO@Formatted?5text?$AA@ 00427b28     lib_generic:gt_generic.obj
 0002:00004b38       ??_C@_0BF@JGAA@Text?5for?5a?5paragraph?$AA@ 00427b38     lib_generic:gt_generic.obj
 0002:00004b50       ??_C@_0BF@GKKG@Simple?5musical?5score?$AA@ 00427b50     lib_generic:gt_generic.obj
 0002:00004b68       ??_C@_0BM@LNLP@Document?5footer?5information?$AA@ 00427b68     lib_generic:gt_generic.obj
 0002:00004b84       ??_C@_0N@BJLG@File?5version?$AA@ 00427b84     lib_generic:gt_generic.obj
 0002:00004b94       ??_C@_0BC@FGNB@Macintosh?5picture?$AA@ 00427b94     lib_generic:gt_generic.obj
 0002:00004ba8       ??_C@_0O@LHKC@Tab?5positions?$AA@ 00427ba8     lib_generic:gt_generic.obj
 0002:00004bb8       ??_C@_0CD@IDK@Uhuru?5Sound?5Software?5musical?5sco@ 00427bb8     lib_generic:gt_generic.obj
 0002:00004bdc       ??_C@_0M@IHFA@Raster?5font?$AA@ 00427bdc     lib_generic:gt_generic.obj
 0002:00004be8       ??_C@_0BK@EJML@General?5use?5musical?5score?$AA@ 00427be8     lib_generic:gt_generic.obj
 0002:00004c04       ??_C@_0O@EGF@Sampled?5sound?$AA@ 00427c04     lib_generic:gt_generic.obj
 0002:00004c14       ??_C@_0BO@PKIF@IFF?5Deep?5?$CI24?9bit?5color?5image?$CJ?$AA@ 00427c14     lib_generic:gt_generic.obj
 0002:00004c34       ??_C@_0CE@GGAH@Deluxe?5Video?5Construction?5Set?5vi@ 00427c34     lib_generic:gt_generic.obj
 0002:00004c58       ??_C@_0BG@OKB@Annotation?5or?5comment?$AA@ 00427c58     lib_generic:gt_generic.obj
 0002:00004c70       ??_C@_0BH@FPF@YUV?5image?5data?5?$CIV?9Lab?$CJ?$AA@ 00427c70     lib_generic:gt_generic.obj
 0002:00004c88       ??_C@_0BN@LPBJ@12?9bit?5color?5image?5?$CIImpulse?$CJ?$AA@ 00427c88     lib_generic:gt_generic.obj
 0002:00004ca8       ??_C@_0P@EJLA@Cel?5animations?$AA@ 00427ca8     lib_generic:gt_generic.obj
 0002:00004cb8       ??_C@_0DE@BOIG@InterLeaved?5Bitmap?5?$CIinterleaved?5@ 00427cb8     lib_generic:gt_generic.obj
 0002:00004cec       ??_C@_0BA@EJHK@Animated?5bitmap?$AA@ 00427cec     lib_generic:gt_generic.obj
 0002:00004cfc       ??_C@_0BA@PFJD@MIDI?5music?5data?$AA@ 00427cfc     lib_generic:gt_generic.obj
 0002:00004d0c       ??_C@_0BO@DFJP@Audio?5interchange?5file?5format?$AA@ 00427d0c     lib_generic:gt_generic.obj
 0002:00004d2c       ??_C@_0BN@PJEI@Deluxe?5Print?5page?5definition?$AA@ 00427d2c     lib_generic:gt_generic.obj
 0002:00004d4c       ??_C@_0BK@HMMK@Pro?9write?5word?5processing?$AA@ 00427d4c     lib_generic:gt_generic.obj
 0002:00004d68       ??_C@_0BF@CNHI@Page?5break?5indicator?$AA@ 00427d68     lib_generic:gt_generic.obj
 0002:00004d80       ??_C@_0CE@OEBG@Turbo3d?5renderung?5data?5?$CI3D?5objec@ 00427d80     lib_generic:gt_generic.obj
 0002:00004da4       ??_C@_0BM@MHPE@Document?5header?5information?$AA@ 00427da4     lib_generic:gt_generic.obj
 0002:00004dc0       ??_C@_0CI@MNHC@2D?5object?5standard?5format?5?$CIvecto@ 00427dc0     lib_generic:gt_generic.obj
 0002:00004de8       ??_C@_0CN@JADA@Amiga?5Contiguous?5Bitmap?5?$CIMS?5Basi@ 00427de8     lib_generic:gt_generic.obj
 0002:00004e18       ??_C@_0CB@KBNI@Paragraph?5formatting?5information@ 00427e18     lib_generic:gt_generic.obj
 0002:00004e3c       ??_C@_0BN@KMJB@24?9bit?5color?5image?5?$CIImpulse?$CJ?$AA@ 00427e3c     lib_generic:gt_generic.obj
 0002:00004e5c       ??_C@_0BA@PHBB@Portable?5bitmap?$AA@ 00427e5c     lib_generic:gt_generic.obj
 0002:00004e6c       ??_C@_0BP@IEKP@Document?5formating?5information?$AA@ 00427e6c     lib_generic:gt_generic.obj
 0002:00004e8c       ??_C@_0BN@EJNF@Copyright?5notice?5and?5license?$AA@ 00427e8c     lib_generic:gt_generic.obj
 0002:00004eac       ??_C@_0CA@JIHK@Super?5smooth?5animation?5?$CIProDAD?$CJ?$AA@ 00427eac     lib_generic:gt_generic.obj
 0002:00004ecc       ??_C@_09BOIE@IFF?5file?6?$AA@ 00427ecc     lib_generic:gt_generic.obj
 0002:00004ed8       ??_C@_08HLHA@?5blocks?6?$AA@ 00427ed8     lib_generic:gt_generic.obj
 0002:00004ee4       ??_C@_06BMFM@?5with?5?$AA@ 00427ee4     lib_generic:gt_generic.obj
 0002:00004eec       ??_C@_0BF@ENBM@unknown?5track?5format?$AA@ 00427eec     lib_generic:gt_generic.obj
 0002:00004f04       ??_C@_0DL@OFIL@One?5or?5more?5sequentially?5indepen@ 00427f04     lib_generic:gt_generic.obj
 0002:00004f40       ??_C@_0CA@HMIG@One?5or?5more?5simultaneous?5tracks?$AA@ 00427f40     lib_generic:gt_generic.obj
 0002:00004f60       ??_C@_0BI@OEEA@One?5multi?9channel?5track?$AA@ 00427f60     lib_generic:gt_generic.obj
 0002:00004f78       ??_C@_0BD@GEFD@MIDI?5music?5file?6?5?5?$AA@ 00427f78     lib_generic:gt_generic.obj
 0002:00004f8c       ??_C@_04GMIF@Mono?$AA@     00427f8c     lib_generic:gt_generic.obj
 0002:00004f94       ??_C@_0N@PLMC@Two?5channels?$AA@ 00427f94     lib_generic:gt_generic.obj
 0002:00004fa4       ??_C@_0N@EACB@Joint?5stereo?$AA@ 00427fa4     lib_generic:gt_generic.obj
 0002:00004fb4       ??_C@_06MKLK@Stereo?$AA@   00427fb4     lib_generic:gt_generic.obj
 0002:00004fbc       ??_C@_02ELCB@no?$AA@       00427fbc     lib_generic:gt_generic.obj
 0002:00004fc0       ??_C@_03LGKI@yes?$AA@      00427fc0     lib_generic:gt_generic.obj
 0002:00004fc4       ??_C@_0BN@CONN@?5KB?1sec?6?5?5Error?5protection?3?5?$AA@ 00427fc4     lib_generic:gt_generic.obj
 0002:00004fe4       ??_C@_0BC@GCBH@?5file?6?5?5Bitrate?3?5?$AA@ 00427fe4     lib_generic:gt_generic.obj
 0002:00004ff8       ??_C@_07ELBP@?5layer?5?$AA@ 00427ff8     lib_generic:gt_generic.obj
 0002:00005000       ??_C@_05CPJM@MPEG?5?$AA@   00428000     lib_generic:gt_generic.obj
 0002:00005008       ??_C@_0BG@JJAD@?5?5Unknown?5block?5type?5?$AA@ 00428008     lib_generic:gt_generic.obj
 0002:00005020       ??_C@_0M@FILJ@?5?5Extended?6?$AA@ 00428020     lib_generic:gt_generic.obj
 0002:0000502c       ??_C@_0O@LEOJ@?5?5End?5repeat?6?$AA@ 0042802c     lib_generic:gt_generic.obj
 0002:0000503c       ??_C@_07DIID@?5times?6?$AA@ 0042803c     lib_generic:gt_generic.obj
 0002:00005044       ??_C@_09ILOI@?5?5Repeat?5?$AA@ 00428044     lib_generic:gt_generic.obj
 0002:00005050       ??_C@_0BC@JGGH@?5?5Repeat?5endless?6?$AA@ 00428050     lib_generic:gt_generic.obj
 0002:00005064       ??_C@_08LFBG@?5?5ASCII?6?$AA@ 00428064     lib_generic:gt_generic.obj
 0002:00005070       ??_C@_09DOE@?5?5Marker?5?$AA@ 00428070     lib_generic:gt_generic.obj
 0002:0000507c       ??_C@_06LGO@?5secs?6?$AA@  0042807c     lib_generic:gt_generic.obj
 0002:00005084       ??_C@_04IFEM@?$CF?41f?$AA@ 00428084     lib_generic:gt_generic.obj
 0002:0000508c       ??_C@_0P@GCJB@?5?5Silence?5for?5?$AA@ 0042808c     lib_generic:gt_generic.obj
 0002:0000509c       ??_C@_0BC@GDFP@?5?5Sound?5continue?6?$AA@ 0042809c     lib_generic:gt_generic.obj
 0002:000050b0       ??_C@_06JOEO@2?5bits?$AA@  004280b0     lib_generic:gt_generic.obj
 0002:000050b8       ??_C@_08JOMM@2?46?5bits?$AA@ 004280b8     lib_generic:gt_generic.obj
 0002:000050c4       ??_C@_06ODIO@4?5bits?$AA@  004280c4     lib_generic:gt_generic.obj
 0002:000050cc       ??_C@_06BIAP@8?5bits?$AA@  004280cc     lib_generic:gt_generic.obj
 0002:000050d4       ??_C@_05MAHO@?5Hz?0?5?$AA@ 004280d4     lib_generic:gt_generic.obj
 0002:000050dc       ??_C@_0P@DEE@?5?5Sound?5data?3?5?$AA@ 004280dc     lib_generic:gt_generic.obj
 0002:000050ec       ??_C@_0BL@MGAP@multi?5DAC?5with?5?$CFd?5channels?$AA@ 004280ec     lib_generic:gt_generic.obj
 0002:00005108       ??_C@_0BM@KLNL@?5?5May?5be?5error?5in?5VOC?5file?6?$AA@ 00428108     lib_generic:gt_generic.obj
 0002:00005124       ??_C@_0CA@CNDJ@?5VOC?5file?6Listing?5block?5types?3?6?$AA@ 00428124     lib_generic:gt_generic.obj
 0002:00005144       ??_C@_0BA@DBCL@Creative?5Voice?5?$AA@ 00428144     lib_generic:gt_generic.obj
 0002:00005154       ??_C@_0BD@IMEL@BGI?5device?5driver?6?$AA@ 00428154     lib_generic:gt_generic.obj
 0002:00005168       ??_C@_0BK@KNNJ@Kodak?5PhotoCD?5image?5file?6?$AA@ 00428168     lib_generic:gt_generic.obj
 0002:00005184       ??_C@_07BOHK@PCD_IPI?$AA@  00428184     lib_generic:gt_generic.obj
 0002:0000518c       ??_C@_0CG@NJCL@DER?5encoded?5binary?5X?4509?5certifi@ 0042818c     lib_generic:gt_generic.obj
 0002:000051b4       ??_C@_0BN@GFBJ@Microsoft?5debug?5information?6?$AA@ 004281b4     lib_generic:gt_generic.obj
 0002:000051d4       ??_C@_0DF@GDEB@Common?5Object?5File?5Format?5?$CICOFF?$CJ@ 004281d4     lib_generic:gt_generic.obj
 0002:0000520c       ??_C@_0BJ@JEEM@FPK?5Pascal?5?$CFc?4?$CFc?$CFc?5unit?6?$AA@ 0042820c     lib_generic:gt_generic.obj
 0002:00005228       ??_C@_0BH@BKJE@Macromedia?5Flash?5file?6?$AA@ 00428228     lib_generic:gt_generic.obj
 0002:00005240       ??_C@_0BI@EKMC@Compiled?5resource?5file?6?$AA@ 00428240     lib_generic:gt_generic.obj
 0002:00005258       ??_C@_0BF@MNLE@PKCS?5?$CD7?5certificate?6?$AA@ 00428258     lib_generic:gt_generic.obj
 0002:00005270       ??_C@_0BG@NMOA@QuickTime?5movie?5file?6?$AA@ 00428270     lib_generic:gt_generic.obj
 0002:00005288       ??_C@_0CH@LEHH@Symantec?5Internet?5Tools?5Data?5Fil@ 00428288     lib_generic:gt_generic.obj
 0002:000052b0       ??_C@_0BO@FKFG@DemoShield?5presentation?5file?6?$AA@ 004282b0     lib_generic:gt_generic.obj
 0002:000052d0       ??_C@_0DB@GAOH@OLE2?5document?5?$CIWinword?0?5Excel?0?5S@ 004282d0     lib_generic:gt_generic.obj
 0002:00005304       ??_C@_0BI@DLOL@Compiled?5Java?5bytecode?6?$AA@ 00428304     lib_generic:gt_generic.obj
 0002:0000531c       ??_C@_0BD@LAOL@Crypt?$CB?5v?$CFd?4?$CF02i?$CFs?6?$AA@ 0042831c     lib_generic:gt_generic.obj
 0002:00005330       ??_C@_0BH@EJHA@?5?$FLhigh?5security?5level?$FN?$AA@ 00428330     lib_generic:gt_generic.obj
 0002:00005348       ??_C@_0BC@EOJE@MS?5C?1C?$CL?$CL?5library?6?$AA@ 00428348     lib_generic:gt_generic.obj
 0002:0000535c       ??_C@_0BM@LBOE@Borland?5overlay?5file?5?$CIOVR?$CJ?6?$AA@ 0042835c     lib_generic:gt_generic.obj
 0002:00005378       ??_C@_0BO@GFFO@Fractal?5Extreme?5palette?5file?6?$AA@ 00428378     lib_generic:gt_generic.obj
 0002:00005398       ??_C@_0CA@FAGB@Borland?5Delphi?53?14?5form?5module?6?$AA@ 00428398     lib_generic:gt_generic.obj
 0002:000053b8       ??_C@_0BN@PEEF@Microsoft?5Quick?5Pascal?5unit?6?$AA@ 004283b8     lib_generic:gt_generic.obj
 0002:000053d8       ??_C@_0BM@FMBP@Fractal?5Extreme?5movie?5file?6?$AA@ 004283d8     lib_generic:gt_generic.obj
 0002:000053f4       ??_C@_0BE@BDPF@Links?5LS?5shot?5file?6?$AA@ 004283f4     lib_generic:gt_generic.obj
 0002:00005408       ??_C@_0BH@ODHM@MS?5Compress?56?422?5file?6?$AA@ 00428408     lib_generic:gt_generic.obj
 0002:00005420       ??_C@_0CC@CKEI@NuMega?5BoundsChecker?5result?5file@ 00428420     lib_generic:gt_generic.obj
 0002:00005444       ??_C@_0BH@MFEG@Borland?5Delphi?54?5unit?6?$AA@ 00428444     lib_generic:gt_generic.obj
 0002:0000545c       ??_C@_0CA@IEAI@Windows?5registry?5file?5?$CIbinary?$CJ?6?$AA@ 0042845c     lib_generic:gt_generic.obj
 0002:0000547c       ??_C@_0BD@DKGF@MS?5HTML?9Help?5file?6?$AA@ 0042847c     lib_generic:gt_generic.obj
 0002:00005490       ??_C@_0BI@LHLF@Turbo?5Vision?5help?5file?6?$AA@ 00428490     lib_generic:gt_generic.obj
 0002:000054a8       ??_C@_0BO@CJAA@Portable?5Document?5file?5?$CIPDF?$CJ?6?$AA@ 004284a8     lib_generic:gt_generic.obj
 0002:000054c8       ??_C@_0BH@MKO@Borland?5Delphi?53?5unit?6?$AA@ 004284c8     lib_generic:gt_generic.obj
 0002:000054e0       ??_C@_0BI@MJGP@Virtual?5Pascal?5Unit?5v3?6?$AA@ 004284e0     lib_generic:gt_generic.obj
 0002:000054f8       ??_C@_0CH@GDEI@Borland?5precompiled?5header?5file?5@ 004284f8     lib_generic:gt_generic.obj
 0002:00005520       ??_C@_0CA@BJK@Microsoft?5workspace?5file?5?$CIMDP?$CJ?6?$AA@ 00428520     lib_generic:gt_generic.obj
 0002:00005540       ??_C@_0CJ@ODHC@Microsoft?5browse?5information?5fil@ 00428540     lib_generic:gt_generic.obj
 0002:0000556c       ??_C@_0BK@HFFE@Lotus?5Notes?54?45?5database?6?$AA@ 0042856c     lib_generic:gt_generic.obj
 0002:00005588       ??_C@_0P@BLGH@IBM?5Help?5file?6?$AA@ 00428588     lib_generic:gt_generic.obj
 0002:00005598       ??_C@_0BJ@NDGI@MS?5Visual?5C?$CL?$CL?5help?5file?6?$AA@ 00428598     lib_generic:gt_generic.obj
 0002:000055b4       ??_C@_0BC@ONJC@BGI?5stroked?5font?6?$AA@ 004285b4     lib_generic:gt_generic.obj
 0002:000055c8       ??_C@_0BE@FFII@Winword?52?5document?6?$AA@ 004285c8     lib_generic:gt_generic.obj
 0002:000055dc       ??_C@_0BF@LKP@Lotus?5123?5worksheet?6?$AA@ 004285dc     lib_generic:gt_generic.obj
 0002:000055f4       ??_C@_0BB@KICP@C?$CL?$CL?5symbol?5file?6?$AA@ 004285f4     lib_generic:gt_generic.obj
 0002:00005608       ??_C@_0BE@BFMM@Phar?5Lap?5?4EXP?5file?6?$AA@ 00428608     lib_generic:gt_generic.obj
 0002:0000561c       ??_C@_0CM@NKNP@Compiled?5installShield?5installat@ 0042861c     lib_generic:gt_generic.obj
 0002:00005648       ??_C@_0BG@KGJE@MS?5Excel?54?5worksheet?6?$AA@ 00428648     lib_generic:gt_generic.obj
 0002:00005660       ??_C@_0CO@PEAK@Windows?5mouse?5cursor?5file?1Works?5@ 00428660     lib_generic:gt_generic.obj
 0002:00005690       ??_C@_0CA@EHG@MS?5Word?5for?5DOS?1Write?5document?6?$AA@ 00428690     lib_generic:gt_generic.obj
 0002:000056b0       ??_C@_0BO@CCN@installShield?5uninstall?5file?6?$AA@ 004286b0     lib_generic:gt_generic.obj
 0002:000056d0       ??_C@_0BC@JJAE@C?$CL?$CL?5library?5file?6?$AA@ 004286d0     lib_generic:gt_generic.obj
 0002:000056e4       ??_C@_0BI@IKOP@FPK?5Pascal?5object?5file?6?$AA@ 004286e4     lib_generic:gt_generic.obj
 0002:000056fc       ??_C@_0BH@NMBN@Windows?5shortcut?5file?6?$AA@ 004286fc     lib_generic:gt_generic.obj
 0002:00005714       ??_C@_0CB@NDKC@Windows?5Enhanced?5Metafile?5image?6@ 00428714     lib_generic:gt_generic.obj
 0002:00005738       ??_C@_0BA@FLND@MICROSOFT?5PIFEX?$AA@ 00428738     lib_generic:gt_generic.obj
 0002:00005748       ??_C@_0CG@JHHO@Microsoft?5Access?5database?5file?5?$CI@ 00428748     lib_generic:gt_generic.obj
 0002:00005770       ??_C@_0BA@FLHA@Standard?5Jet?5DB?$AA@ 00428770     lib_generic:gt_generic.obj
 0002:00005780       ??_C@_0BN@EDIK@Sony?5PlayStation?5executable?6?$AA@ 00428780     lib_generic:gt_generic.obj
 0002:000057a0       ??_C@_08IDDJ@PS?9X?5EXE?$AA@ 004287a0     lib_generic:gt_generic.obj
 0002:000057ac       ??_C@_0CI@OCJD@Norton?5Utilities?5Disk?5Doctor?5und@ 004287ac     lib_generic:gt_generic.obj
 0002:000057d4       ??_C@_08NNAC@PNCIUNDO?$AA@ 004287d4     lib_generic:gt_generic.obj
 0002:000057e0       ??_C@_0BI@JMHG@Armadillo?5project?5file?6?$AA@ 004287e0     lib_generic:gt_generic.obj
 0002:000057f8       ??_C@_08LIKB@ARMV0006?$AA@ 004287f8     lib_generic:gt_generic.obj
 0002:00005804       ??_C@_0BH@HMGC@Lotus?5AmiPro?5document?6?$AA@ 00428804     lib_generic:gt_generic.obj
 0002:0000581c       ??_C@_08EOIF@?$FLver?$FN?$AN?6?7?$AA@ 0042881c     lib_generic:gt_generic.obj
 0002:00005828       ??_C@_0BI@OKHG@Lotus?5WordPro?5document?6?$AA@ 00428828     lib_generic:gt_generic.obj
 0002:00005840       ??_C@_07FCGO@WordPro?$AA@  00428840     lib_generic:gt_generic.obj
 0002:00005848       ??_C@_0BP@PJHB@Microsoft?5profiler?5file?5?$CIPBI?$CJ?6?$AA@ 00428848     lib_generic:gt_generic.obj
 0002:00005868       ??_C@_07MJIC@MS?9PROF?$AA@ 00428868     lib_generic:gt_generic.obj
 0002:00005870       ??_C@_0BN@PMJM@ARJ?5self?5extracting?5archive?6?$AA@ 00428870     lib_generic:gt_generic.obj
 0002:00005890       ??_C@_07NMKB@ARJ_SFX?$AA@  00428890     lib_generic:gt_generic.obj
 0002:00005898       ??_C@_0CJ@IBHE@Microsoft?5precompiled?5header?5fil@ 00428898     lib_generic:gt_generic.obj
 0002:000058c4       ??_C@_06DAKE@VCPCH0?$AA@   004288c4     lib_generic:gt_generic.obj
 0002:000058cc       ??_C@_0BJ@MEMJ@Pax?5Imperia?52?5save?5game?6?$AA@ 004288cc     lib_generic:gt_generic.obj
 0002:000058e8       ??_C@_06LMP@IImGxP?$AA@    004288e8     lib_generic:gt_generic.obj
 0002:000058f0       ??_C@_0CA@FLCA@IDA?5DLL?5description?5file?5?$CIIDS?$CJ?6?$AA@ 004288f0     lib_generic:gt_generic.obj
 0002:00005910       ??_C@_06OMLB@IDAIDS?$AA@   00428910     lib_generic:gt_generic.obj
 0002:00005918       ??_C@_06BBOD@GIF89a?$AA@   00428918     lib_generic:gt_generic.obj
 0002:00005920       ??_C@_06NDEI@GIF87a?$AA@   00428920     lib_generic:gt_generic.obj
 0002:00005928       ??_C@_0BM@HNLL@Jerusalem?5virus?5protection?6?$AA@ 00428928     lib_generic:gt_generic.obj
 0002:00005944       ??_C@_05CLDB@MsDos?$AA@    00428944     lib_generic:gt_generic.obj
 0002:0000594c       ??_C@_0CC@HOJJ@Microsoft?5C?1C?$CL?$CL?5program?5database@ 0042894c     lib_generic:gt_generic.obj
 0002:00005970       ??_C@_0CB@PDH@Microsoft?5C?1C?$CL?$CL?5program?5database@ 00428970     lib_generic:gt_generic.obj
 0002:00005994       ??_C@_0CB@DFMH@Turbo?5Pascal?5Configuration?5File?6@ 00428994     lib_generic:gt_generic.obj
 0002:000059b8       ??_C@_0CA@FBHJ@Turbo?5Pascal?5Configuration?5File?$AA@ 004289b8     lib_generic:gt_generic.obj
 0002:000059d8       ??_C@_0BL@LEML@Paint?5Shop?5Pro?5Image?5File?6?$AA@ 004289d8     lib_generic:gt_generic.obj
 0002:000059f4       ??_C@_0BK@FNFL@Paint?5Shop?5Pro?5Image?5File?$AA@ 004289f4     lib_generic:gt_generic.obj
 0002:00005a10       ??_C@_0BL@LBGM@Microsoft?5Linker?5Database?6?$AA@ 00428a10     lib_generic:gt_generic.obj
 0002:00005a2c       ??_C@_0BK@PKAH@Microsoft?5Linker?5Database?$AA@ 00428a2c     lib_generic:gt_generic.obj
 0002:00005a48       ??_C@_0BI@IIHI@Turbo?5Pascal?5Help?5File?6?$AA@ 00428a48     lib_generic:gt_generic.obj
 0002:00005a60       ??_C@_0BH@NMMG@TURBO?5PASCAL?5HELP?5FILE?$AA@ 00428a60     lib_generic:gt_generic.obj
 0002:00005a78       ??_C@_0DD@CKKN@Thunderbyte?5checksum?5?1?5cleaning?5@ 00428a78     lib_generic:gt_generic.obj
 0002:00005aac       ??_C@_0BF@KLPO@Thunderbyte?5checksum?$AA@ 00428aac     lib_generic:gt_generic.obj
 0002:00005ac4       ??_C@_0BN@HEO@Paint?5Shop?5Pro?5Browser?5File?6?$AA@ 00428ac4     lib_generic:gt_generic.obj
 0002:00005ae4       ??_C@_0BA@OBJG@JASC?5BROWS?5FILE?$AA@ 00428ae4     lib_generic:gt_generic.obj
 0002:00005af4       ??_C@_0BO@JMBB@Internet?5Explorer?5Cache?5File?6?$AA@ 00428af4     lib_generic:gt_generic.obj
 0002:00005b14       ??_C@_0BA@KDMF@Client?5UrlCache?$AA@ 00428b14     lib_generic:gt_generic.obj
 0002:00005b24       ??_C@_0BB@BBIJ@McAfee?5checksum?6?$AA@ 00428b24     lib_generic:gt_generic.obj
 0002:00005b38       ??_C@_0N@LANK@?$DO?$DO?$DOMcA1ph?$DM?$DM?$DM?$AA@ 00428b38     lib_generic:gt_generic.obj
 0002:00005b48       ??_C@_0BB@OEBL@UU?5encoded?5file?6?$AA@ 00428b48     lib_generic:gt_generic.obj
 0002:00005b5c       ??_C@_0BC@HEFI@Perl?5source?5file?6?$AA@ 00428b5c     lib_generic:gt_generic.obj
 0002:00005b70       ??_C@_0BE@FOH@BAT?1CMD?5batch?5file?6?$AA@ 00428b70     lib_generic:gt_generic.obj
 0002:00005b84       ??_C@_08JOLP@ECHO?5OFF?$AA@ 00428b84     lib_generic:gt_generic.obj
 0002:00005b90       ??_C@_0BH@FGKL@ibo?5Ablauf?9Profi?5file?6?$AA@ 00428b90     lib_generic:gt_generic.obj
 0002:00005ba8       ??_C@_0BB@ICDK@ibo?5Ablauf?9Profi?$AA@ 00428ba8     lib_generic:gt_generic.obj
 0002:00005bbc       ??_C@_0BA@HFDJ@?$CD?$CB?1USR?1BIN?1PERL?$AA@ 00428bbc     lib_generic:gt_generic.obj
 0002:00005bcc       ??_C@_0BG@BJID@?$CD?$CB?1USR?1LOCAL?1BIN?1PERL?$AA@ 00428bcc     lib_generic:gt_generic.obj
 0002:00005be4       ??_C@_0BJ@JFFK@Virtual?5Card?5File?5?$CIVCF?$CJ?6?$AA@ 00428be4     lib_generic:gt_generic.obj
 0002:00005c00       ??_C@_0M@COMM@begin?3vcard?$AA@ 00428c00     lib_generic:gt_generic.obj
 0002:00005c0c       ??_C@_0BN@NHAD@Borland?5linker?5mapping?5file?6?$AA@ 00428c0c     lib_generic:gt_generic.obj
 0002:00005c2c       ??_C@_05IMKO@Start?$AA@    00428c2c     lib_generic:gt_generic.obj
 0002:00005c34       ??_C@_0P@KILI@?9?9?9?9?9BEGIN?5PGP?$AA@ 00428c34     lib_generic:gt_generic.obj
 0002:00005c44       ??_C@_0BH@FEOG@Adobe?5Postscript?5file?6?$AA@ 00428c44     lib_generic:gt_generic.obj
 0002:00005c5c       ??_C@_0L@CBDG@?$CF?$CBPS?9Adobe?$AA@ 00428c5c     lib_generic:gt_generic.obj
 0002:00005c68       ??_C@_09EGIC@begin?5666?$AA@ 00428c68     lib_generic:gt_generic.obj
 0002:00005c74       ??_C@_09DOPJ@begin?5644?$AA@ 00428c74     lib_generic:gt_generic.obj
 0002:00005c80       ??_C@_0BK@OLGN@Bourne?5Shell?5Script?5file?6?$AA@ 00428c80     lib_generic:gt_generic.obj
 0002:00005c9c       ??_C@_09JMOP@?$CD?$CB?1bin?1sh?$AA@ 00428c9c     lib_generic:gt_generic.obj
 0002:00005ca8       ??_C@_0BN@DLLF@Framemaker?5interchange?5file?6?$AA@ 00428ca8     lib_generic:gt_generic.obj
 0002:00005cc8       ??_C@_08NDIH@?$DMMIFFile?$AA@ 00428cc8     lib_generic:gt_generic.obj
 0002:00005cd4       ??_C@_0CB@KEOL@Windows?5registry?5file?5?$CItextual?$CJ?6@ 00428cd4     lib_generic:gt_generic.obj
 0002:00005cf8       ??_C@_08MMJJ@REGEDIT4?$AA@ 00428cf8     lib_generic:gt_generic.obj
 0002:00005d04       ??_C@_0BC@LCHH@aPatch?5data?5file?6?$AA@ 00428d04     lib_generic:gt_generic.obj
 0002:00005d18       ??_C@_07JLEE@?$FOTITLE?$FO?$AA@ 00428d18     lib_generic:gt_generic.obj
 0002:00005d20       ??_C@_0CB@GEPP@RTF?5document?5?$CIrich?5text?5format?$CJ?6@ 00428d20     lib_generic:gt_generic.obj
 0002:00005d44       ??_C@_06JFC@?$HL?2rtf1?$AA@ 00428d44     lib_generic:gt_generic.obj
 0002:00005d4c       ??_C@_0BF@GCPM@Borland?5object?5file?6?$AA@ 00428d4c     lib_generic:gt_generic.obj
 0002:00005d64       ??_C@_0BA@GADJ@SUN?5sound?5file?6?$AA@ 00428d64     lib_generic:gt_generic.obj
 0002:00005d74       ??_C@_0BE@BKP@Creative?5Voice?5File?$AA@ 00428d74     lib_generic:gt_generic.obj
 0002:00005d88       ??_C@_08HNNH@?5style?$CJ?6?$AA@ 00428d88     lib_generic:gt_generic.obj
 0002:00005d94       ??_C@_03EAFN@DOS?$AA@      00428d94     lib_generic:gt_generic.obj
 0002:00005d98       ??_C@_04BJIF@UNIX?$AA@     00428d98     lib_generic:gt_generic.obj
 0002:00005da0       ??_C@_0L@IIPJ@Textfile?5?$CI?$AA@ 00428da0     lib_generic:gt_generic.obj
 0002:00005dac       ??_C@_09IPNN@?5image?5?9?5?$AA@ 00428dac     lib_generic:gt_generic.obj
 0002:00005db8       ??_C@_04JOMI@BMF?5?$AA@    00428db8     lib_generic:gt_generic.obj
 0002:00005dc0       ??_C@_0BI@GMKK@Unix?1Linux?5object?5file?6?$AA@ 00428dc0     lib_generic:gt_generic.obj
 0002:00005dd8       ??_C@_0BL@BMCC@Unix?1Linux?5excutable?5file?6?$AA@ 00428dd8     lib_generic:gt_generic.obj
 0002:00005df4       ??_C@_0BJ@EPEJ@Unix?1Linux?5unknown?5file?6?$AA@ 00428df4     lib_generic:gt_generic.obj
 0002:00005e10       ??_C@_0L@LON@?5?9?5GIFLITE?$AA@ 00428e10     lib_generic:gt_generic.obj
 0002:00005e1c       ??_C@_0BA@NPPB@?5?9?5?$FLinterlaced?$FN?$AA@ 00428e1c     lib_generic:gt_generic.obj
 0002:00005e2c       ??_C@_07ONCB@?5colors?$AA@ 00428e2c     lib_generic:gt_generic.obj
 0002:00005e34       ??_C@_04BMII@?5?9?9?5?$AA@ 00428e34     lib_generic:gt_generic.obj
 0002:00005e3c       ??_C@_02PBA@89?$AA@        00428e3c     lib_generic:gt_generic.obj
 0002:00005e40       ??_C@_02KENK@87?$AA@       00428e40     lib_generic:gt_generic.obj
 0002:00005e44       ??_C@_03GICC@GIF?$AA@      00428e44     lib_generic:gt_generic.obj
 0002:00005e48       ??_C@_07GGFK@GIFLITE?$AA@  00428e48     lib_generic:gt_generic.obj
 0002:00005e50       ??_C@_0CI@KDEE@Error?3?5failed?5to?5initialize?5GIF?5@ 00428e50     lib_generic:gt_generic.obj
 0002:00005e78       ??_C@_0BJ@JFJL@Windows?53?4x?5group?5file?5?8?$AA@ 00428e78     lib_generic:gt_generic.obj
 0002:00005e94       ??_C@_01HAF@?8?$AA@        00428e94     lib_generic:gt_generic.obj
 0002:00005e98       ??_C@_0M@GDLJ@?5help?5file?6?$AA@ 00428e98     lib_generic:gt_generic.obj
 0002:00005ea4       ??_C@_03IIJF@3?4x?$AA@     00428ea4     lib_generic:gt_generic.obj
 0002:00005ea8       ??_C@_05DHKF@95?198?$AA@   00428ea8     lib_generic:gt_generic.obj
 0002:00005eb0       ??_C@_08NHBK@Windows?5?$AA@ 00428eb0     lib_generic:gt_generic.obj
 0002:00005ebc       ??_C@_0BJ@GPOA@Impulse?5Tracker?5Module?5?8?$AA@ 00428ebc     lib_generic:gt_generic.obj
 0002:00005ed8       ??_C@_0BA@PHGN@MAC?5image?5file?6?$AA@ 00428ed8     lib_generic:gt_generic.obj
 0002:00005ee8       ??_C@_0M@NPA@MPEG?5movie?5?$AA@ 00428ee8     lib_generic:gt_generic.obj
 0002:00005ef4       ??_C@_0BE@JJOG@ZSoft?5PCX?5image?5?9?9?5?$AA@ 00428ef4     lib_generic:gt_generic.obj
 0002:00005f08       ??_C@_02HHDK@?$CJ?6?$AA@   00428f08     lib_generic:gt_generic.obj
 0002:00005f0c       ??_C@_0BH@JBKA@PGP?5message?5?$CIVersion?3?5?$AA@ 00428f0c     lib_generic:gt_generic.obj
 0002:00005f24       ??_C@_0BH@HAJA@Windows?5PIF?5file?5for?5?8?$AA@ 00428f24     lib_generic:gt_generic.obj
 0002:00005f3c       ??_C@_08KAJH@PMWLite?5?$AA@ 00428f3c     lib_generic:gt_generic.obj
 0002:00005f48       ??_C@_08BMBJ@16777216?$AA@ 00428f48     lib_generic:gt_generic.obj
 0002:00005f54       ??_C@_0BB@EOEH@?$FLnon?5interlaced?$FN?$AA@ 00428f54     lib_generic:gt_generic.obj
 0002:00005f68       ??_C@_0N@IPPE@?$FLinterlaced?$FN?$AA@ 00428f68     lib_generic:gt_generic.obj
 0002:00005f78       ??_C@_0M@NFHB@PiNG?5image?5?$AA@ 00428f78     lib_generic:gt_generic.obj
 0002:00005f84       ??_C@_0BM@FELD@Photoshop?52?45?5file?6?5?5Size?3?5?$AA@ 00428f84     lib_generic:gt_generic.obj
 0002:00005fa0       ??_C@_0BD@KMEF@?6?5?5Size?5in?5pixel?3?5?$AA@ 00428fa0     lib_generic:gt_generic.obj
 0002:00005fb4       ??_C@_0CP@OEFC@Windows?5Metafile?5image?6?6?5?5Coordi@ 00428fb4     lib_generic:gt_generic.obj
 0002:00005fe4       ??_C@_08JBDK@?$CI0x?$CF02X?$CJ?$AA@ 00428fe4     lib_generic:gt_generic.obj
 0002:00005ff0       ??_C@_0BA@CPGP@?5?5unknown?5type?5?$AA@ 00428ff0     lib_generic:gt_generic.obj
 0002:00006000       ??_C@_08PKCC@?5colors?$CJ?$AA@ 00429000     lib_generic:gt_generic.obj
 0002:0000600c       ??_C@_0L@MMCA@?5?$CIVersion?5?$AA@ 0042900c     lib_generic:gt_generic.obj
 0002:00006018       ??_C@_0N@IKJL@?5?$CIencrypted?$CJ?$AA@ 00429018     lib_generic:gt_generic.obj
 0002:00006028       ??_C@_05EHLP@?5file?$AA@   00429028     lib_generic:gt_generic.obj
 0002:00006030       ??_C@_09NIDP@?5?$CI0x?$CF02X?$CJ?$AA@ 00429030     lib_generic:gt_generic.obj
 0002:0000603c       ??_C@_0N@MCHA@Wordperfect?5?$AA@ 0042903c     lib_generic:gt_generic.obj
 0002:0000604c       ??_C@_0CI@MNCE@Error?3?5failed?5to?5initialize?5WPC?5@ 0042904c     lib_generic:gt_generic.obj
 0002:00006074       ??_C@_0L@HDHF@?5image?$CIs?$CJ?6?$AA@ 00429074     lib_generic:gt_generic.obj
 0002:00006080       ??_C@_0BA@OMBA@Icon?5file?5with?5?$AA@ 00429080     lib_generic:gt_generic.obj
 0002:00006094       ??_7type_info@@6B@         00429094     libc:typinfo.obj
 0002:000060b8       ??_C@_0BG@JPLP@Illegal?5byte?5sequence?$AA@ 004290b8     libc:syserr.obj
 0002:000060d0       ??_C@_0BE@FLBN@Directory?5not?5empty?$AA@ 004290d0     libc:syserr.obj
 0002:000060e4       ??_C@_0BJ@KAFL@Function?5not?5implemented?$AA@ 004290e4     libc:syserr.obj
 0002:00006100       ??_C@_0BD@CEML@No?5locks?5available?$AA@ 00429100     libc:syserr.obj
 0002:00006114       ??_C@_0BC@GADJ@Filename?5too?5long?$AA@ 00429114     libc:syserr.obj
 0002:00006128       ??_C@_0BK@FNFN@Resource?5deadlock?5avoided?$AA@ 00429128     libc:syserr.obj
 0002:00006144       ??_C@_0BB@EALI@Result?5too?5large?$AA@ 00429144     libc:syserr.obj
 0002:00006158       ??_C@_0N@FIAN@Domain?5error?$AA@ 00429158     libc:syserr.obj
 0002:00006168       ??_C@_0M@CLKF@Broken?5pipe?$AA@ 00429168     libc:syserr.obj
 0002:00006174       ??_C@_0P@OFDM@Too?5many?5links?$AA@ 00429174     libc:syserr.obj
 0002:00006184       ??_C@_0BG@OHDM@Read?9only?5file?5system?$AA@ 00429184     libc:syserr.obj
 0002:0000619c       ??_C@_0N@NGPA@Invalid?5seek?$AA@ 0042919c     libc:syserr.obj
 0002:000061ac       ??_C@_0BI@DMFE@No?5space?5left?5on?5device?$AA@ 004291ac     libc:syserr.obj
 0002:000061c4       ??_C@_0P@OPNK@File?5too?5large?$AA@ 004291c4     libc:syserr.obj
 0002:000061d4       ??_C@_0CE@BADJ@Inappropriate?5I?1O?5control?5operat@ 004291d4     libc:syserr.obj
 0002:000061f8       ??_C@_0BE@COOK@Too?5many?5open?5files?$AA@ 004291f8     libc:syserr.obj
 0002:0000620c       ??_C@_0BO@ELHF@Too?5many?5open?5files?5in?5system?$AA@ 0042920c     libc:syserr.obj
 0002:0000622c       ??_C@_0BB@IHAB@Invalid?5argument?$AA@ 0042922c     libc:syserr.obj
 0002:00006240       ??_C@_0P@NDNC@Is?5a?5directory?$AA@ 00429240     libc:syserr.obj
 0002:00006250       ??_C@_0BA@JMMO@Not?5a?5directory?$AA@ 00429250     libc:syserr.obj
 0002:00006260       ??_C@_0P@GFAI@No?5such?5device?$AA@ 00429260     libc:syserr.obj
 0002:00006270       ??_C@_0O@KHHM@Improper?5link?$AA@ 00429270     libc:syserr.obj
 0002:00006280       ??_C@_0M@EPHJ@File?5exists?$AA@ 00429280     libc:syserr.obj
 0002:0000628c       ??_C@_0BA@LPOH@Resource?5device?$AA@ 0042928c     libc:syserr.obj
 0002:0000629c       ??_C@_0O@NOFB@Unknown?5error?$AA@ 0042929c     libc:syserr.obj
 0002:000062ac       ??_C@_0M@MLJM@Bad?5address?$AA@ 004292ac     libc:syserr.obj
 0002:000062b8       ??_C@_0BC@DJON@Permission?5denied?$AA@ 004292b8     libc:syserr.obj
 0002:000062cc       ??_C@_0BB@KDDC@Not?5enough?5space?$AA@ 004292cc     libc:syserr.obj
 0002:000062e0       ??_C@_0CB@BBBH@Resource?5temporarily?5unavailable@ 004292e0     libc:syserr.obj
 0002:00006304       ??_C@_0BD@ODIH@No?5child?5processes?$AA@ 00429304     libc:syserr.obj
 0002:00006318       ??_C@_0BE@CDDH@Bad?5file?5descriptor?$AA@ 00429318     libc:syserr.obj
 0002:0000632c       ??_C@_0BC@BICL@Exec?5format?5error?$AA@ 0042932c     libc:syserr.obj
 0002:00006340       ??_C@_0BC@IGMC@Arg?5list?5too?5long?$AA@ 00429340     libc:syserr.obj
 0002:00006354       ??_C@_0BK@HLB@No?5such?5device?5or?5address?$AA@ 00429354     libc:syserr.obj
 0002:00006370       ??_C@_0BD@MPKK@Input?1output?5error?$AA@ 00429370     libc:syserr.obj
 0002:00006384       ??_C@_0BK@ODCM@Interrupted?5function?5call?$AA@ 00429384     libc:syserr.obj
 0002:000063a0       ??_C@_0BA@BPKN@No?5such?5process?$AA@ 004293a0     libc:syserr.obj
 0002:000063b0       ??_C@_0BK@IEMO@No?5such?5file?5or?5directory?$AA@ 004293b0     libc:syserr.obj
 0002:000063cc       ??_C@_0BI@IIAE@Operation?5not?5permitted?$AA@ 004293cc     libc:syserr.obj
 0002:000063e4       ??_C@_08KKBH@No?5error?$AA@ 004293e4     libc:syserr.obj
 0002:000063f0       ___dnames                  004293f0     libc:timeset.obj
 0002:00006408       ___mnames                  00429408     libc:timeset.obj
 0002:00006430       ??_C@_02JHIA@TZ?$AA@       00429430     libc:tzset.obj
 0002:00006464       ??_C@_04NCKB@?$CF08s?$AA@  00429464     plib:pheader.obj
 0002:0000646c       ??_C@_0P@MMOD@?$CF02d?4?$CF02d?4?$CF02d?$AA@ 0042946c     lib_gt:gt_time.obj
 0002:0000647c       ??_C@_0P@LLBM@?$CF02d?4?$CF02d?4?$CF04d?$AA@ 0042947c     lib_gt:gt_time.obj
 0002:00006490       ??_R1A@?0A@A@type_info@@8  00429490     libc:typinfo.obj
 0002:000064a8       ??_R2type_info@@8          004294a8     libc:typinfo.obj
 0002:000064b0       ??_R3type_info@@8          004294b0     libc:typinfo.obj
 0002:000064c0       ??_R4type_info@@6B@        004294c0     libc:typinfo.obj
 0002:000066e8       __CT??_R0?AVPThrowable@@@8??0PThrowable@@QAE@ABV0@@Z60 004296e8     lib_gt:gt_filebuffer.obj
 0002:00006704       __CT??_R0?AVGT_Exception@@@8??0GT_Exception@@QAE@ABV0@@Z96 00429704     lib_gt:gt_filebuffer.obj
 0002:00006720       __CT??_R0?AVGT_FileException@@@8??0GT_FileException@@QAE@ABV0@@Z96 00429720     lib_gt:gt_filebuffer.obj
 0002:0000673c       __CTA3?AVGT_FileException@@ 0042973c     lib_gt:gt_filebuffer.obj
 0002:0000674c       __TI3?AVGT_FileException@@ 0042974c     lib_gt:gt_filebuffer.obj
 0002:00006878       __CT??_R0?AVGT_BufferException@@@8??0GT_BufferException@@QAE@ABV0@@Z96 00429878     lib_gt:gt_filebuffer.obj
 0002:00006894       __CTA3?AVGT_BufferException@@ 00429894     lib_gt:gt_filebuffer.obj
 0002:000068a4       __TI3?AVGT_BufferException@@ 004298a4     lib_gt:gt_filebuffer.obj
 0002:00007a20       __IMPORT_DESCRIPTOR_KERNEL32 0042aa20     kernel32:KERNEL32.dll
 0002:00007a34       __IMPORT_DESCRIPTOR_USER32 0042aa34     user32:USER32.dll
 0002:00007a48       __IMPORT_DESCRIPTOR_gtdata 0042aa48     gtdata:gtdata.dll
 0002:00007a5c       __IMPORT_DESCRIPTOR_ADVAPI32 0042aa5c     advapi32:ADVAPI32.dll
 0002:00007a70       __NULL_IMPORT_DESCRIPTOR   0042aa70     kernel32:KERNEL32.dll
 0003:00000000       ___xc_a                    0042c000     libc:crt0init.obj
 0003:00000018       ___xc_z                    0042c018     libc:crt0init.obj
 0003:0000001c       ___xi_a                    0042c01c     libc:crt0init.obj
 0003:00000034       ___xi_z                    0042c034     libc:crt0init.obj
 0003:00000038       ___xp_a                    0042c038     libc:crt0init.obj
 0003:00000044       ___xp_z                    0042c044     libc:crt0init.obj
 0003:00000048       ___xt_a                    0042c048     libc:crt0init.obj
 0003:00000050       ___xt_z                    0042c050     libc:crt0init.obj
 0003:00000060       ?GT_VERSION@@3PBDB         0042c060     gt_main.obj
 0003:00000070       __iob                      0042c070     libc:_file.obj
 0003:000002f0       __NLG_Destination          0042c2f0     libc:exsup.obj
 0003:00000644       __fltused                  0042c644     libc:fpinit.obj
 0003:00000648       __ldused                   0042c648     libc:fpinit.obj
 0003:0000064c       __FPinit                   0042c64c     libc:fpinit.obj
 0003:00000650       __FPmtinit                 0042c650     libc:fpinit.obj
 0003:00000654       __FPmtterm                 0042c654     libc:fpinit.obj
 0003:00000658       __aexit_rtn                0042c658     libc:crt0.obj
 0003:0000065c       ___app_type                0042c65c     libc:crt0.obj
 0003:00000660       ___nullstring              0042c660     libc:output.obj
 0003:00000664       ___wnullstring             0042c664     libc:output.obj
 0003:00000668       ___badioinfo               0042c668     libc:ioinit.obj
 0003:00000680       ?__pUnexpected@@3P6AXXZA   0042c680     libc:hooks.obj
 0003:00000684       ?__pInconsistency@@3P6AXXZA 0042c684     libc:hooks.obj
 0003:00000688       __coninpfh                 0042c688     libc:initcon.obj
 0003:0000068c       __confh                    0042c68c     libc:initcon.obj
 0003:00000690       __cfltcvt_tab              0042c690     libc:cmiscdat.obj
 0003:000006a8       __XcptActTab               0042c6a8     libc:winxfltr.obj
 0003:00000720       __First_FPE_Indx           0042c720     libc:winxfltr.obj
 0003:00000724       __Num_FPE                  0042c724     libc:winxfltr.obj
 0003:00000728       __XcptActTabCount          0042c728     libc:winxfltr.obj
 0003:0000072c       __fpecode                  0042c72c     libc:winxfltr.obj
 0003:00000730       __amblksiz                 0042c730     libc:heapinit.obj
 0003:000007d0       __pctype                   0042c7d0     libc:ctype.obj
 0003:000007d4       __pwctype                  0042c7d4     libc:ctype.obj
 0003:000007d8       __ctype                    0042c7d8     libc:ctype.obj
 0003:000009e0       ___old_small_block_heap    0042c9e0     libc:sbheap.obj
 0003:00002a04       ___old_sbh_threshold       0042ea04     libc:sbheap.obj
 0003:00002a10       ___mb_cur_max              0042ea10     libc:nlsdata1.obj
 0003:00002a14       ___decimal_point           0042ea14     libc:nlsdata1.obj
 0003:00002a18       ___decimal_point_length    0042ea18     libc:nlsdata1.obj
 0003:00002cb8       __pow10pos                 0042ecb8     libc:constpow.obj
 0003:00002e18       __pow10neg                 0042ee18     libc:constpow.obj
 0003:00002f74       ?nBlockSize@PString@@0HA   0042ef74     plib:pstring.obj
 0003:00002f78       ?_BOOL_FLAGS@@3PAUGT_FlagBool@@A 0042ef78     lib_gt:gt_commandlineflags.obj
 0003:00003108       ?_ULONG_FLAGS@@3PAUGT_FlagNumber@@A 0042f108     lib_gt:gt_commandlineflags.obj
 0003:00003168       ??_R0?AVPThrowable@@@8     0042f168     lib_gt:gt_filebuffer.obj
 0003:00003184       ??_R0?AVGT_Exception@@@8   0042f184     lib_gt:gt_filebuffer.obj
 0003:000031a0       ??_R0?AVGT_FileException@@@8 0042f1a0     lib_gt:gt_filebuffer.obj
 0003:000031c0       ??_R0?AVGT_BufferException@@@8 0042f1c0     lib_gt:gt_filebuffer.obj
 0003:00003210       ?GT_EXE_PE_RESTYPE@@3PAPBDA 0042f210     lib_exe:gt_exe_types.obj
 0003:00003270       ?GT_EXE_PE_DATADIRECTORY_NAMES@@3PAPBDA 0042f270     lib_exe:gt_exe_types.obj
 0003:000032b0       ?GTArchive_Info@@3PAUGTArchive_InfoEntry@@A 0042f2b0     lib_archive:gt_archiver.obj
 0003:00003598       ?GT_WordPerfect_Types@@3PAPBDA 0042f598     lib_generic:gt_generic.obj
 0003:000035f8       ?GT_WPG_Types@@3PAPBDA     0042f5f8     lib_generic:gt_generic.obj
 0003:00003668       ??_R0?AVtype_info@@@8      0042f668     libc:typinfo.obj
 0003:00003680       ?__pMyUnhandledExceptionFilter@@3PAXA 0042f680     libc:throw.obj
 0003:00003690       __sys_errlist              0042f690     libc:syserr.obj
 0003:00003740       __sys_nerr                 0042f740     libc:syserr.obj
 0003:00003744       __timezone                 0042f744     libc:timeset.obj
 0003:00003748       __daylight                 0042f748     libc:timeset.obj
 0003:0000374c       __dstbias                  0042f74c     libc:timeset.obj
 0003:000037d0       __tzname                   0042f7d0     libc:timeset.obj
 0003:000037f4       __lpdays                   0042f7f4     libc:days.obj
 0003:00003828       __days                     0042f828     libc:days.obj
 0003:00003860       ?aAlloverTimer@@3VPTimer@@A 0042f860     gt_main.obj
 0003:0000386c       ?aFileTimer@@3VPTimer@@A   0042f86c     gt_main.obj
 0003:00003878       ?nTotalFilesFound@@3JA     0042f878     gt_main.obj
 0003:0000387c       ?nTotalFilesIdentified@@3JA 0042f87c     gt_main.obj
 0003:00003880       _bFound                    0042f880     gt_gtui_starter.obj
 0003:00003884       __cflush                   0042f884     libc:_file.obj
 0003:00003888       ___fastflag                0042f888     libc:fpinit.obj
 0003:0000388c       __adjust_fdiv              0042f88c     libc:fpinit.obj
 0003:00003890       __aenvptr                  0042f890     libc:crt0.obj
 0003:00003894       __wenvptr                  0042f894     libc:crt0.obj
 0003:00003898       ___error_mode              0042f898     libc:crt0.obj
 0003:0000389c       __stdbuf                   0042f89c     libc:_sftbuf.obj
 0003:000038a4       _errno                     0042f8a4     libc:crt0dat.obj
 0003:000038a8       __doserrno                 0042f8a8     libc:crt0dat.obj
 0003:000038ac       __umaskval                 0042f8ac     libc:crt0dat.obj
 0003:000038b0       __osver                    0042f8b0     libc:crt0dat.obj
 0003:000038b4       __winver                   0042f8b4     libc:crt0dat.obj
 0003:000038b8       __winmajor                 0042f8b8     libc:crt0dat.obj
 0003:000038bc       __winminor                 0042f8bc     libc:crt0dat.obj
 0003:000038c0       ___argc                    0042f8c0     libc:crt0dat.obj
 0003:000038c4       ___argv                    0042f8c4     libc:crt0dat.obj
 0003:000038c8       ___wargv                   0042f8c8     libc:crt0dat.obj
 0003:000038cc       __environ                  0042f8cc     libc:crt0dat.obj
 0003:000038d0       ___initenv                 0042f8d0     libc:crt0dat.obj
 0003:000038d4       __wenviron                 0042f8d4     libc:crt0dat.obj
 0003:000038d8       ___winitenv                0042f8d8     libc:crt0dat.obj
 0003:000038dc       __pgmptr                   0042f8dc     libc:crt0dat.obj
 0003:000038e0       __wpgmptr                  0042f8e0     libc:crt0dat.obj
 0003:000038e4       __exitflag                 0042f8e4     libc:crt0dat.obj
 0003:000038e8       __C_Termination_Done       0042f8e8     libc:crt0dat.obj
 0003:000038ec       __C_Exit_Done              0042f8ec     libc:crt0dat.obj
 0003:000038f0       ?_pCurrentException@@3PAUEHExceptionRecord@@A 0042f8f0     libc:frame.obj
 0003:000038f4       ?_pCurrentExContext@@3PAU_CONTEXT@@A 0042f8f4     libc:frame.obj
 0003:000038f8       ?__pSETranslator@@3P6AXIPAU_EXCEPTION_POINTERS@@@ZA 0042f8f8     libc:hooks.obj
 0003:000038fc       ?__pTerminate@@3P6AXXZA    0042f8fc     libc:hooks.obj
 0003:00003910       __pxcptinfoptrs            0042f910     libc:winxfltr.obj
 0003:00003a1c       __adbgmsg                  0042fa1c     libc:crt0msg.obj
 0003:00003a20       ?_pnhHeap@@3P6AHI@ZA       0042fa20     libc:handler.obj
 0003:00003a24       __newmode                  0042fa24     libc:_newmode.obj
 0003:00003a70       ___lc_handle               0042fa70     libc:nlsdata2.obj
 0003:00003a88       ___lc_codepage             0042fa88     libc:nlsdata2.obj
 0003:00003a8c       ___lc_collate_cp           0042fa8c     libc:nlsdata2.obj
 0003:00007398       ?gbNotReadLocalConfigFile@@3W4P_BOOL@@A 00433398     lib_gt:gt_commandlineflags.obj
 0003:0000739c       ?gbPE_Imports@@3W4P_BOOL@@A 0043339c     lib_gt:gt_commandlineflags.obj
 0003:000073a0       ?gbHelp@@3W4P_BOOL@@A      004333a0     lib_gt:gt_commandlineflags.obj
 0003:000073a4       ?gbCacheStats@@3W4P_BOOL@@A 004333a4     lib_gt:gt_commandlineflags.obj
 0003:000073a8       ?gbNoFooter@@3W4P_BOOL@@A  004333a8     lib_gt:gt_commandlineflags.obj
 0003:000073ac       ?gbNoArchives@@3W4P_BOOL@@A 004333ac     lib_gt:gt_commandlineflags.obj
 0003:000073b0       ?gnCodeToleranceEXE@@3KA   004333b0     lib_gt:gt_commandlineflags.obj
 0003:000073b4       ?gnCodeTolerancePE@@3KA    004333b4     lib_gt:gt_commandlineflags.obj
 0003:000073b8       ?gbPE_SectionTable@@3W4P_BOOL@@A 004333b8     lib_gt:gt_commandlineflags.obj
 0003:000073bc       ?gnCodeToleranceNE@@3KA    004333bc     lib_gt:gt_commandlineflags.obj
 0003:000073c0       ?gbNotListUnknown@@3W4P_BOOL@@A 004333c0     lib_gt:gt_commandlineflags.obj
 0003:000073c4       ?gbPE_All@@3W4P_BOOL@@A    004333c4     lib_gt:gt_commandlineflags.obj
 0003:000073c8       ?gbListMode@@3W4P_BOOL@@A  004333c8     lib_gt:gt_commandlineflags.obj
 0003:000073cc       ?gnNumberOfRIFFEntries@@3KA 004333cc     lib_gt:gt_commandlineflags.obj
 0003:000073d0       ?gbPE_Exports@@3W4P_BOOL@@A 004333d0     lib_gt:gt_commandlineflags.obj
 0003:000073d4       ?gbNotListIdentified@@3W4P_BOOL@@A 004333d4     lib_gt:gt_commandlineflags.obj
 0003:000073d8       ?gbPE_RessourceStrings@@3W4P_BOOL@@A 004333d8     lib_gt:gt_commandlineflags.obj
 0003:000073dc       ?gbGTUI2@@3W4P_BOOL@@A     004333dc     lib_gt:gt_commandlineflags.obj
 0003:000073e0       ?gbNotReadGlobalConfigFile@@3W4P_BOOL@@A 004333e0     lib_gt:gt_commandlineflags.obj
 0003:000073e4       ?gbPE_ImportFunctions@@3W4P_BOOL@@A 004333e4     lib_gt:gt_commandlineflags.obj
 0003:000073e8       ?gbNoLogo@@3W4P_BOOL@@A    004333e8     lib_gt:gt_commandlineflags.obj
 0003:000073ec       ?gbWaitAfterLastFile@@3W4P_BOOL@@A 004333ec     lib_gt:gt_commandlineflags.obj
 0003:000073f0       ?gbBufferedIO@@3W4P_BOOL@@A 004333f0     lib_gt:gt_commandlineflags.obj
 0003:000073f4       ?gbXWPG@@3W4P_BOOL@@A      004333f4     lib_gt:gt_commandlineflags.obj
 0003:000073f8       ?gbPE_DataDirectory@@3W4P_BOOL@@A 004333f8     lib_gt:gt_commandlineflags.obj
 0003:000073fc       ?gbPE_Version@@3W4P_BOOL@@A 004333fc     lib_gt:gt_commandlineflags.obj
 0003:00007400       ?gbPE_Ressources@@3W4P_BOOL@@A 00433400     lib_gt:gt_commandlineflags.obj
 0003:00007404       ?gbScanSubfolder@@3W4P_BOOL@@A 00433404     lib_gt:gt_commandlineflags.obj
 0003:00007408       ?gnHWND@@3KA               00433408     lib_gt:gt_commandlineflags.obj
 0003:0000740c       ?gnMaxBufferSize@@3KA      0043340c     lib_gt:gt_commandlineflags.obj
 0003:00007410       ?gbNoColor@@3W4P_BOOL@@A   00433410     lib_gt:gt_commandlineflags.obj
 0003:00008420       ?nFileBuffer_CacheHits@@3JA 00434420     lib_gt:gt_filebuffer.obj
 0003:00008424       ?nFileBuffer_PartialCacheHits@@3JA 00434424     lib_gt:gt_filebuffer.obj
 0003:00008428       ?nFileBuffer_CacheMisses@@3JA 00434428     lib_gt:gt_filebuffer.obj
 0003:00008450       ?sTemp@@3PADA              00434450     lib_archive:gt_archiver.obj
 0003:0000879c       ?nTotalArchives@GT_ArchiveAnalyzer@@2JA 0043479c     lib_archive:gt_archiver.obj
 0003:000087a0       ?nDamagedArchives@GT_ArchiveAnalyzer@@2JA 004347a0     lib_archive:gt_archiver.obj
 0003:000087d8       __fmode                    004347d8     libc:txtmode.obj
 0003:0000889c       __commode                  0043489c     libc:ncommode.obj
 0003:000088ac       ___mbcodepage              004348ac     <common>
 0003:000088b0       ___mbulinfo                004348b0     <common>
 0003:000088bc       ___ismbcodepage            004348bc     <common>
 0003:000088c0       __mbcasemap                004348c0     <common>
 0003:000089c0       __mbctype                  004349c0     <common>
 0003:00008ac4       ___mblcid                  00434ac4     <common>
 0003:00008ac8       ___sbh_sizeHeaderList      00434ac8     <common>
 0003:00008acc       ___sbh_indGroupDefer       00434acc     <common>
 0003:00008ad0       ___sbh_pHeaderScan         00434ad0     <common>
 0003:00008ad4       ___sbh_pHeaderDefer        00434ad4     <common>
 0003:00008ad8       ___sbh_cntHeaderList       00434ad8     <common>
 0003:00008adc       ___sbh_pHeaderList         00434adc     <common>
 0003:00008ae0       ___sbh_threshold           00434ae0     <common>
 0003:00008ae4       __crtheap                  00434ae4     <common>
 0003:00008ae8       ___active_heap             00434ae8     <common>
 0003:00008aec       ___env_initialized         00434aec     <common>
 0003:00008af0       ___mbctype_initialized     00434af0     <common>
 0003:00008af4       ___onexitend               00434af4     <common>
 0003:00008af8       ___onexitbegin             00434af8     <common>
 0003:00008b00       ___pioinfo                 00434b00     <common>
 0003:00008c00       __nhandle                  00434c00     <common>
 0003:00008c04       __acmdln                   00434c04     <common>
 0003:00008c08       ___piob                    00434c08     <common>
 0003:00008c20       __bufin                    00434c20     <common>
 0003:00009c20       __nstream                  00435c20     <common>

 entry point at        0001:000017e7

 Static symbols

 0001:00000f90       _GT_EnumWindowsProc@8      00401f90 f   gt_gtui_starter.obj
 0001:00000000       _$E5                       00401000 f   gt_main.obj
 0001:00000010       _$E8                       00401010 f   gt_main.obj
 0001:00000330       ?HandlerRoutine@@YGHK@Z    00401330 f   gt_main.obj
 0001:00000380       ?GlobalListFile@@YIXPBDJ@Z 00401380 f   gt_main.obj
 0001:000006b0       ?GlobalScanDirectory@@YIXPBD0@Z 004016b0 f   gt_main.obj
 0001:00000900       ?GlobalShowSyntax@@YIXPBD@Z 00401900 f   gt_main.obj
 0001:00000cb0       ?GlobalCleanUp@@YIXH@Z     00401cb0 f   gt_main.obj
 0001:0001f83e       _findenv                   0042083e f   libc:setenv.obj
 0001:0001f896       _copy_environ              00420896 f   libc:setenv.obj
 0001:0001f68c       _strncnt                   0042068c f   libc:a_cmp.obj
 0001:0001f12f       _cvtdate                   0042012f f   libc:tzset.obj
 0001:0001d5eb       _xtoa                      0041e5eb f   libc:xtoa.obj
 0001:0001f68c       _strncnt                   0042068c f   libc:a_cmp.obj
 0001:00007641       _siglookup                 00408641 f   libc:winsig.obj
 0001:00006ccc       _strtoxl                   00407ccc f   libc:strtol.obj
 0001:000069f0       LeadUp1                    004079f0 f   libc:memcpy.obj
 0001:00006a1c       LeadUp2                    00407a1c f   libc:memcpy.obj
 0001:00006a40       LeadUp3                    00407a40 f   libc:memcpy.obj
 0001:00006abf       UnwindUp0                  00407abf f   libc:memcpy.obj
 0001:00006aac       UnwindUp1                  00407aac f   libc:memcpy.obj
 0001:00006aa4       UnwindUp2                  00407aa4 f   libc:memcpy.obj
 0001:00006a9c       UnwindUp3                  00407a9c f   libc:memcpy.obj
 0001:00006a94       UnwindUp4                  00407a94 f   libc:memcpy.obj
 0001:00006a8c       UnwindUp5                  00407a8c f   libc:memcpy.obj
 0001:00006a84       UnwindUp6                  00407a84 f   libc:memcpy.obj
 0001:00006a7c       UnwindUp7                  00407a7c f   libc:memcpy.obj
 0001:00006ad8       TrailUp0                   00407ad8 f   libc:memcpy.obj
 0001:00006ae0       TrailUp1                   00407ae0 f   libc:memcpy.obj
 0001:00006aec       TrailUp2                   00407aec f   libc:memcpy.obj
 0001:00006b00       TrailUp3                   00407b00 f   libc:memcpy.obj
 0001:00006b78       LeadDown1                  00407b78 f   libc:memcpy.obj
 0001:00006b98       LeadDown2                  00407b98 f   libc:memcpy.obj
 0001:00006bc0       LeadDown3                  00407bc0 f   libc:memcpy.obj
 0001:00006c14       UnwindDown7                00407c14 f   libc:memcpy.obj
 0001:00006c1c       UnwindDown6                00407c1c f   libc:memcpy.obj
 0001:00006c24       UnwindDown5                00407c24 f   libc:memcpy.obj
 0001:00006c2c       UnwindDown4                00407c2c f   libc:memcpy.obj
 0001:00006c34       UnwindDown3                00407c34 f   libc:memcpy.obj
 0001:00006c3c       UnwindDown2                00407c3c f   libc:memcpy.obj
 0001:00006c44       UnwindDown1                00407c44 f   libc:memcpy.obj
 0001:00006c57       UnwindDown0                00407c57 f   libc:memcpy.obj
 0001:00006c70       TrailDown0                 00407c70 f   libc:memcpy.obj
 0001:00006c78       TrailDown1                 00407c78 f   libc:memcpy.obj
 0001:00006c88       TrailDown2                 00407c88 f   libc:memcpy.obj
 0001:00006c9c       TrailDown3                 00407c9c f   libc:memcpy.obj
 0001:00006733       _getSystemCP               00407733 f   libc:mbctype.obj
 0001:0000677d       _CPtoLCID                  0040777d f   libc:mbctype.obj
 0001:000067b0       _setSBCS                   004077b0 f   libc:mbctype.obj
 0001:000067d9       _setSBUpLow                004077d9 f   libc:mbctype.obj
 0001:00005cc7       __abstract_cw              00406cc7 f   libc:ieee87.obj
 0001:00005d59       __hw_cw                    00406d59 f   libc:ieee87.obj
 0001:000059a0       LeadUp1                    004069a0 f   libc:memmove.obj
 0001:000059cc       LeadUp2                    004069cc f   libc:memmove.obj
 0001:000059f0       LeadUp3                    004069f0 f   libc:memmove.obj
 0001:00005a6f       UnwindUp0                  00406a6f f   libc:memmove.obj
 0001:00005a5c       UnwindUp1                  00406a5c f   libc:memmove.obj
 0001:00005a54       UnwindUp2                  00406a54 f   libc:memmove.obj
 0001:00005a4c       UnwindUp3                  00406a4c f   libc:memmove.obj
 0001:00005a44       UnwindUp4                  00406a44 f   libc:memmove.obj
 0001:00005a3c       UnwindUp5                  00406a3c f   libc:memmove.obj
 0001:00005a34       UnwindUp6                  00406a34 f   libc:memmove.obj
 0001:00005a2c       UnwindUp7                  00406a2c f   libc:memmove.obj
 0001:00005a88       TrailUp0                   00406a88 f   libc:memmove.obj
 0001:00005a90       TrailUp1                   00406a90 f   libc:memmove.obj
 0001:00005a9c       TrailUp2                   00406a9c f   libc:memmove.obj
 0001:00005ab0       TrailUp3                   00406ab0 f   libc:memmove.obj
 0001:00005b28       LeadDown1                  00406b28 f   libc:memmove.obj
 0001:00005b48       LeadDown2                  00406b48 f   libc:memmove.obj
 0001:00005b70       LeadDown3                  00406b70 f   libc:memmove.obj
 0001:00005bc4       UnwindDown7                00406bc4 f   libc:memmove.obj
 0001:00005bcc       UnwindDown6                00406bcc f   libc:memmove.obj
 0001:00005bd4       UnwindDown5                00406bd4 f   libc:memmove.obj
 0001:00005bdc       UnwindDown4                00406bdc f   libc:memmove.obj
 0001:00005be4       UnwindDown3                00406be4 f   libc:memmove.obj
 0001:00005bec       UnwindDown2                00406bec f   libc:memmove.obj
 0001:00005bf4       UnwindDown1                00406bf4 f   libc:memmove.obj
 0001:00005c07       UnwindDown0                00406c07 f   libc:memmove.obj
 0001:00005c20       TrailDown0                 00406c20 f   libc:memmove.obj
 0001:00005c28       TrailDown1                 00406c28 f   libc:memmove.obj
 0001:00005c38       TrailDown2                 00406c38 f   libc:memmove.obj
 0001:00005c4c       TrailDown3                 00406c4c f   libc:memmove.obj
 0001:00003809       _parse_cmdline             00404809 f   libc:stdargv.obj
 0001:00003674       _xcptlookup                00404674 f   libc:winxfltr.obj
 0001:00003473       __cftoe_g                  00404473 f   libc:cvt.obj
 0001:0000349a       __cftof_g                  0040449a f   libc:cvt.obj
 0001:0000350e       __shift                    0040450e f   libc:cvt.obj
 0001:00002741       ?FindHandler@@YAXPAUEHExceptionRecord@@PAUEHRegistrationNode@@PAU_CONTEXT@@PAXPBU_s_FuncInfo@@EH1@Z 00403741 f   libc:frame.obj
 0001:000028e8       ?FindHandlerForForeignException@@YAXPAUEHExceptionRecord@@PAUEHRegistrationNode@@PAU_CONTEXT@@PAXPBU_s_FuncInfo@@HH1@Z 004038e8 f   libc:frame.obj
 0001:00002990       ?TypeMatch@@YAHPBU_s_HandlerType@@PBU_s_CatchableType@@PBU_s_ThrowInfo@@@Z 00403990 f   libc:frame.obj
 0001:00002a8b       ?FrameUnwindFilter@@YAHPAU_EXCEPTION_POINTERS@@@Z 00403a8b f   libc:frame.obj
 0001:00002aa1       ?CatchIt@@YAXPAUEHExceptionRecord@@PAUEHRegistrationNode@@PAU_CONTEXT@@PAXPBU_s_FuncInfo@@PBU_s_HandlerType@@PBU_s_CatchableType@@PBU_s_TryBlockMapEntry@@H1E@Z 00403aa1 f   libc:frame.obj
 0001:00002b1c       ?CallCatchBlock@@YAPAXPAUEHExceptionRecord@@PAUEHRegistrationNode@@PAU_CONTEXT@@PBU_s_FuncInfo@@PAXHK@Z 00403b1c f   libc:frame.obj
 0001:00002c28       ?ExFilterRethrow@@YAHPAU_EXCEPTION_POINTERS@@@Z 00403c28 f   libc:frame.obj
 0001:00002c52       ?BuildCatchObject@@YAXPAUEHExceptionRecord@@PAUEHRegistrationNode@@PBU_s_HandlerType@@PBU_s_CatchableType@@@Z 00403c52 f   libc:frame.obj
 0001:00002e7d       ?AdjustPointer@@YAPAXPAXABUPMD@@@Z 00403e7d f   libc:frame.obj
 0001:00002639       _flsall                    00403639 f   libc:fflush.obj
 0001:000024e6       _doexit                    004034e6 f   libc:crt0dat.obj
 0001:0000257f       __initterm                 0040357f f   libc:crt0dat.obj
 0001:0000211a       _write_char                0040311a f   libc:output.obj
 0001:0000214f       _write_multi_char          0040314f f   libc:output.obj
 0001:00002180       _write_string              00403180 f   libc:output.obj
 0001:000021b8       _get_int_arg               004031b8 f   libc:output.obj
 0001:000021c5       _get_int64_arg             004031c5 f   libc:output.obj
 0001:000021d5       _get_short_arg             004031d5 f   libc:output.obj
 0001:000018eb       _fast_error_exit           004028eb f   libc:crt0.obj
 0001:000016d7       __getextendedkeycode       004026d7 f   libc:getch.obj
 0001:000014f4       _gu_return                 004024f4 f   libc:exsup.obj
 0001:000014fc       __unwind_handler           004024fc f   libc:exsup.obj
 0001:00001312       ?CatchGuardHandler@@YA?AW4_EXCEPTION_DISPOSITION@@PAUEHExceptionRecord@@PAUCatchGuardRN@@PAX2@Z 00402312 f   libc:trnsctrl.obj
 0001:000013eb       ?TranslatorGuardHandler@@YA?AW4_EXCEPTION_DISPOSITION@@PAUEHExceptionRecord@@PAUTranslatorGuardRN@@PAX2@Z 004023eb f   libc:trnsctrl.obj
 0001:000091b0       _$E5                       0040a1b0 f   lib_gt:gt_output.obj
 0001:000091d0       _$E3                       0040a1d0 f   lib_gt:gt_output.obj
 0001:000091e0       _$E10                      0040a1e0 f   lib_gt:gt_output.obj
 0001:00009200       _$E8                       0040a200 f   lib_gt:gt_output.obj
 0001:00009230       _$E15                      0040a230 f   lib_gt:gt_output.obj
 0001:00009260       _$E13                      0040a260 f   lib_gt:gt_output.obj
 0001:0000c3a0       ?_PKLite@@YIXPAU_EXEEntry@@PAEPAVGT_FileBuffer@@@Z 0040d3a0 f   lib_exe:gt_exeanalyzer.obj
 0001:0000c500       ?_WWPack300PR@@YIXPAU_EXEEntry@@PAEPAVGT_FileBuffer@@@Z 0040d500 f   lib_exe:gt_exeanalyzer.obj
 0001:0000c530       ?_WWPack30xPR@@YIXPAU_EXEEntry@@PAEPAVGT_FileBuffer@@@Z 0040d530 f   lib_exe:gt_exeanalyzer.obj
 0001:0000c610       ?_WWPack30xP@@YIXPAU_EXEEntry@@PAEPAVGT_FileBuffer@@@Z 0040d610 f   lib_exe:gt_exeanalyzer.obj
 0001:0001b9e0       ?_GetTextString@@YI?AVPString@@W4P_BOOL@@@Z 0041c9e0 f   lib_generic:gt_generic.obj
 0001:0001ba90       ?GetInfo_BMF@@YI?AVPString@@PAVGT_FileBuffer@@@Z 0041ca90 f   lib_generic:gt_generic.obj
 0001:0001bb90       ?GetInfo_ELF@@YI?AVPString@@PAVGT_FileBuffer@@@Z 0041cb90 f   lib_generic:gt_generic.obj
 0001:0001bbe0       ?GetInfo_GIF@@YI?AVPString@@PAVGT_FileBuffer@@@Z 0041cbe0 f   lib_generic:gt_generic.obj
 0001:0001be30       ?GetInfo_GRP@@YI?AVPString@@PAVGT_FileBuffer@@@Z 0041ce30 f   lib_generic:gt_generic.obj
 0001:0001bfa0       ?GetInfo_HeadText@@YI?AVPString@@PAVGT_FileBuffer@@@Z 0041cfa0 f   lib_generic:gt_generic.obj
 0001:0001c0e0       ?GetInfo_HLP@@YI?AVPString@@H@Z 0041d0e0 f   lib_generic:gt_generic.obj
 0001:0001c190       ?GetInfo_ImpulseTracker@@YI?AVPString@@PAVGT_FileBuffer@@@Z 0041d190 f   lib_generic:gt_generic.obj
 0001:0001c300       ?GetInfo_MAC@@YI?AVPString@@PAVGT_FileBuffer@@@Z 0041d300 f   lib_generic:gt_generic.obj
 0001:0001c3a0       ?GetInfo_MPEG@@YI?AVPString@@PAVGT_FileBuffer@@@Z 0041d3a0 f   lib_generic:gt_generic.obj
 0001:0001c490       ?GetInfo_PCX@@YI?AVPString@@PAVGT_FileBuffer@@@Z 0041d490 f   lib_generic:gt_generic.obj
 0001:0001c5c0       ?GetInfo_PGP@@YI?AVPString@@PAVGT_FileBuffer@@@Z 0041d5c0 f   lib_generic:gt_generic.obj
 0001:0001c6a0       ?GetInfo_PIF@@YI?AVPString@@PAVGT_FileBuffer@@@Z 0041d6a0 f   lib_generic:gt_generic.obj
 0001:0001c770       ?GetInfo_PMWLite@@YI?AVPString@@HH@Z 0041d770 f   lib_generic:gt_generic.obj
 0001:0001c820       ?GetInfo_PNG@@YI?AVPString@@PAVGT_FileBuffer@@@Z 0041d820 f   lib_generic:gt_generic.obj
 0001:0001c990       ?GetInfo_PSD@@YI?AVPString@@PAVGT_FileBuffer@@@Z 0041d990 f   lib_generic:gt_generic.obj
 0001:0001ca90       ?GetInfo_WMF@@YI?AVPString@@PAVGT_FileBuffer@@@Z 0041da90 f   lib_generic:gt_generic.obj
 0001:0001cbd0       ?GetInfo_WPC@@YI?AVPString@@PAVGT_FileBuffer@@@Z 0041dbd0 f   lib_generic:gt_generic.obj
 0001:0001d1c0       ?GetInfo_ImageICO@@YI?AVPString@@PAVGT_FileBuffer@@@Z 0041e1c0 f   lib_generic:gt_generic.obj

 135 bytes saved through ICF

